 win_runtime

 Timestamp is 657de7da (Sun Dec 17 02:09:30 2023)

 Preferred load address is 0000000180000000

 Start         Length     Name                   Class
 0001:00000000 000289d0H .text$mn                CODE
 0001:000289d0 00000020H .text$mn$00             CODE
 0001:000289f0 00000fa0H .text$x                 CODE
 0002:00000000 00000390H .idata$5                DATA
 0002:00000390 00000010H .00cfg                  DATA
 0002:000003a0 00000008H .CRT$XCA                DATA
 0002:000003a8 00000008H .CRT$XCZ                DATA
 0002:000003b0 00000008H .CRT$XIA                DATA
 0002:000003b8 00000018H .CRT$XIC                DATA
 0002:000003d0 00000008H .CRT$XIZ                DATA
 0002:000003d8 00000008H .CRT$XPA                DATA
 0002:000003e0 00000010H .CRT$XPX                DATA
 0002:000003f0 00000008H .CRT$XPXA               DATA
 0002:000003f8 00000008H .CRT$XPZ                DATA
 0002:00000400 00000008H .CRT$XTA                DATA
 0002:00000408 00000008H .CRT$XTZ                DATA
 0002:00000410 00009428H .rdata                  DATA
 0002:00009838 0000037cH .rdata$r                DATA
 0002:00009bb4 000002b4H .rdata$zzzdbg           DATA
 0002:00009e68 00000008H .rtc$IAA                DATA
 0002:00009e70 00000008H .rtc$IZZ                DATA
 0002:00009e78 00000008H .rtc$TAA                DATA
 0002:00009e80 00000010H .rtc$TZZ                DATA
 0002:00009e90 00004788H .xdata                  DATA
 0002:0000e618 000001e8H .xdata$x                DATA
 0002:0000e800 0000046cH .edata                  DATA
 0002:0000ec6c 0000003cH .idata$2                DATA
 0002:0000eca8 00000018H .idata$3                DATA
 0002:0000ecc0 00000390H .idata$4                DATA
 0002:0000f050 00000872H .idata$6                DATA
 0003:00000000 00000900H .data                   DATA
 0003:00000900 00000120H .data$r                 DATA
 0003:00000a20 000011d0H .bss                    DATA
 0004:00000000 00002730H .pdata                  DATA
 0005:00000000 00000080H .gfids$x                DATA
 0005:00000080 00000050H .gfids$y                DATA

  Address         Publics by Value              Rva+Base               Lib:Object

 0000:00000000       __dynamic_value_reloc_table 0000000000000000     <absolute>
 0000:00000000       __guard_iat_count          0000000000000000     <absolute>
 0000:00000000       __guard_iat_table          0000000000000000     <absolute>
 0000:00000000       __guard_longjmp_table      0000000000000000     <absolute>
 0000:00000000       __guard_longjmp_count      0000000000000000     <absolute>
 0000:00000000       __guard_fids_count         0000000000000000     <absolute>
 0000:00000000       ___safe_se_handler_table   0000000000000000     <absolute>
 0000:00000000       ___safe_se_handler_count   0000000000000000     <absolute>
 0000:00000000       __guard_fids_table         0000000000000000     <absolute>
 0000:00000100       __guard_flags              0000000000000100     <absolute>
 0000:00000000       __ImageBase                0000000180000000     <linker-defined>
 0001:00000000       ??0UnicodeString@@QEAA@XZ  0000000180001000 f i registry_manager.obj
 0001:00000050       ??0UnicodeString@@QEAA@PEB_W_K@Z 0000000180001050 f i registry_manager.obj
 0001:000000c0       ??0UnicodeString@@QEAA@AEBV0@@Z 00000001800010c0 f i registry_manager.obj
 0001:00000140       ??1UnicodeString@@QEAA@XZ  0000000180001140 f i registry_manager.obj
 0001:00000150       ?append@UnicodeString@@QEAAAEAV1@PEB_W_K@Z 0000000180001150 f i registry_manager.obj
 0001:00000200       ?HookedNtSetValueKey@@YAJPEAXPEAU_UNICODE_STRING@@KK0K@Z 0000000180001200 f   registry_manager.obj
 0001:00000270       ?HookedNtDeleteValueKey@@YAJPEAXPEAU_UNICODE_STRING@@@Z 0000000180001270 f   registry_manager.obj
 0001:000002a0       ?HookedNtCreateKey@@YAJPEAPEAXKPEAU_OBJECT_ATTRIBUTES@@KPEAU_UNICODE_STRING@@KPEAK@Z 00000001800012a0 f   registry_manager.obj
 0001:00000310       ?HookedNtQueryValueKey@@YAJPEAXPEAU_UNICODE_STRING@@W4_KEY_VALUE_INFORMATION_CLASS@@0KPEAK@Z 0000000180001310 f   registry_manager.obj
 0001:00000380       ?HookedNtOpenKey@@YAJPEAPEAXKPEAU_OBJECT_ATTRIBUTES@@@Z 0000000180001380 f   registry_manager.obj
 0001:000003c0       ?HookedNtOpenKeyEx@@YAJPEAPEAXKPEAU_OBJECT_ATTRIBUTES@@K@Z 00000001800013c0 f   registry_manager.obj
 0001:00000410       ?HookedNtDeleteKey@@YAJPEAX@Z 0000000180001410 f   registry_manager.obj
 0001:00000430       ?HookedNtQueryKey@@YAJPEAXW4_KEY_INFORMATION_CLASS@@0KPEAK@Z 0000000180001430 f   registry_manager.obj
 0001:00000490       ?HookedNtEnumerateValueKey@@YAJPEAXKW4_KEY_VALUE_INFORMATION_CLASS@@0KPEAK@Z 0000000180001490 f   registry_manager.obj
 0001:00000500       ?HookedNtEnumerateKey@@YAJPEAXKW4_KEY_INFORMATION_CLASS@@0KPEAK@Z 0000000180001500 f   registry_manager.obj
 0001:00000570       ??0RegistryKey@@QEAA@PEAV0@PEB_W_N@Z 0000000180001570 f   registry_manager.obj
 0001:00000620       ??1RegistryKey@@QEAA@XZ    0000000180001620 f   registry_manager.obj
 0001:00000710       ?GetValue@RegistryKey@@QEBAPEAVRegistryValue@@PEB_W@Z 0000000180001710 f   registry_manager.obj
 0001:00000780       ?AddValue@RegistryKey@@AEAAPEAVRegistryValue@@PEA_W@Z 0000000180001780 f   registry_manager.obj
 0001:000008b0       ?SetValue@RegistryKey@@QEAAXPEA_WIPEAXI@Z 00000001800018b0 f   registry_manager.obj
 0001:00000990       ?DeleteValue@RegistryKey@@QEAA_NPEA_W@Z 0000000180001990 f   registry_manager.obj
 0001:00000a60       ?GetChild@RegistryKey@@AEBAPEAV1@PEB_W@Z 0000000180001a60 f   registry_manager.obj
 0001:00000b00       ?GetKey@RegistryKey@@QEBAPEAV1@PEB_W@Z 0000000180001b00 f   registry_manager.obj
 0001:00000c00       ?AddChild@RegistryKey@@AEAAPEAV1@PEB_W_NPEA_N@Z 0000000180001c00 f   registry_manager.obj
 0001:00000cc0       ?AddKey@RegistryKey@@QEAAPEAV1@PEB_W_NPEA_N@Z 0000000180001cc0 f   registry_manager.obj
 0001:00000de0       ?DeleteKey@RegistryKey@@QEAA_NPEAV1@@Z 0000000180001de0 f   registry_manager.obj
 0001:00000e80       ?full_name@RegistryKey@@QEBA?AVUnicodeString@@XZ 0000000180001e80 f   registry_manager.obj
 0001:00000f50       ??0RegistryManager@@QEAA@PEBEPEAUHINSTANCE__@@0PEAVVirtualObjectList@@@Z 0000000180001f50 f   registry_manager.obj
 0001:00001000       ?HookAPIs@RegistryManager@@QEAAXAEAVHookManager@@@Z 0000000180002000 f   registry_manager.obj
 0001:00001270       ?UnhookAPIs@RegistryManager@@QEAAXAEAVHookManager@@@Z 0000000180002270 f   registry_manager.obj
 0001:00001350       ?NtSetValueKey@RegistryManager@@QEAAJPEAXPEAU_UNICODE_STRING@@KK0K@Z 0000000180002350 f   registry_manager.obj
 0001:00001480       ?NtDeleteValueKey@RegistryManager@@QEAAJPEAXPEAU_UNICODE_STRING@@@Z 0000000180002480 f   registry_manager.obj
 0001:00001560       ?GetRootKey@RegistryManager@@AEAAPEAVRegistryKey@@PEAXPEAI_N@Z 0000000180002560 f   registry_manager.obj
 0001:00001750       ?NtCreateKey@RegistryManager@@QEAAJPEAPEAXKPEAU_OBJECT_ATTRIBUTES@@KPEAU_UNICODE_STRING@@KPEAK@Z 0000000180002750 f   registry_manager.obj
 0001:000019e0       ?NtOpenKey@RegistryManager@@QEAAJPEAPEAXKPEAU_OBJECT_ATTRIBUTES@@@Z 00000001800029e0 f   registry_manager.obj
 0001:00001cd0       ?NtOpenKeyEx@RegistryManager@@QEAAJPEAPEAXKPEAU_OBJECT_ATTRIBUTES@@K@Z 0000000180002cd0 f   registry_manager.obj
 0001:00001fd0       ?QueryValueKey@RegistryManager@@AEAAJPEAVRegistryValue@@W4_KEY_VALUE_INFORMATION_CLASS@@PEAXKPEAK@Z 0000000180002fd0 f   registry_manager.obj
 0001:000021e0       ?NtQueryValueKey@RegistryManager@@QEAAJPEAXPEAU_UNICODE_STRING@@W4_KEY_VALUE_INFORMATION_CLASS@@0KPEAK@Z 00000001800031e0 f   registry_manager.obj
 0001:000023d0       ?NtDeleteKey@RegistryManager@@QEAAJPEAX@Z 00000001800033d0 f   registry_manager.obj
 0001:000024a0       ?QueryKey@RegistryManager@@AEAAJPEAVRegistryKey@@W4_KEY_INFORMATION_CLASS@@PEAXKPEAK@Z 00000001800034a0 f   registry_manager.obj
 0001:000028e0       ?NtQueryKey@RegistryManager@@QEAAJPEAXW4_KEY_INFORMATION_CLASS@@0KPEAK@Z 00000001800038e0 f   registry_manager.obj
 0001:00002a70       ?NtEnumerateValueKey@RegistryManager@@QEAAJPEAXKW4_KEY_VALUE_INFORMATION_CLASS@@0KPEAK@Z 0000000180003a70 f   registry_manager.obj
 0001:00002ba0       ?NtEnumerateKey@RegistryManager@@QEAAJPEAXKW4_KEY_INFORMATION_CLASS@@0KPEAK@Z 0000000180003ba0 f   registry_manager.obj
 0001:00002f90       ??1?$vector@PEAVRegistryValue@@@@QEAA@XZ 0000000180003f90 f i registry_manager.obj
 0001:00002fa0       ?push_back@?$vector@PEAVRegistryKey@@@@QEAAXAEBQEAVRegistryKey@@@Z 0000000180003fa0 f i registry_manager.obj
 0001:00003050       ??1?$vector@PEAVRegistryKey@@@@QEAA@XZ 0000000180004050 f i registry_manager.obj
 0001:00003060       ?ShowMessage@@YAXPEB_W@Z   0000000180004060 f   utils.obj
 0001:000031e0       ?InternalGetProcAddress@@YAPEAXPEAUHINSTANCE__@@PEBD@Z 00000001800041e0 f   utils.obj
 0001:00003440       ?LzmaDecode@@YAHPEAU_CLzmaDecoderState@@PEBE_KPEA_KPEAE23@Z 0000000180004440 f   LzmaDecode.obj
 0001:00003e60       DllMain                    0000000180004e60 f   core.obj
 0001:00003f00       ?InternalFindFirmwareVendor@@YA_NPEBE_K@Z 0000000180004f00 f   core.obj
 0001:00004020       ??0CRCData@@QEAA@XZ        0000000180005020 f i core.obj
 0001:00004040       ?ExportedIsValidImageCRC@@YA_NXZ 0000000180005040 f   core.obj
 0001:00004290       ?ExportedIsVirtualMachinePresent@@YA_NXZ 0000000180005290 f   core.obj
 0001:00004730       ?ExportedIsDebuggerPresent@@YA_N_N@Z 0000000180005730 f   core.obj
 0001:00004ce0       ?ExportedIsProtected@@YA_NXZ 0000000180005ce0 f   core.obj
 0001:00004cf0       ??1VirtualObjectList@@QEAA@XZ 0000000180005cf0 f   core.obj
 0001:00004d70       ?Add@VirtualObjectList@@QEAAPEAVVirtualObject@@W4VirtualObjectType@@PEAX1I@Z 0000000180005d70 f   core.obj
 0001:00004e60       ?DeleteObject@VirtualObjectList@@QEAAXPEAX@Z 0000000180005e60 f   core.obj
 0001:00004f20       ?DeleteRef@VirtualObjectList@@QEAAXPEAX0@Z 0000000180005f20 f   core.obj
 0001:00004ff0       ??1Core@@QEAA@XZ           0000000180005ff0 f   core.obj
 0001:000051a0       ??_GFileManager@@QEAAPEAXI@Z 00000001800061a0 f i core.obj
 0001:00005230       ?Instance@Core@@SAPEAV1@XZ 0000000180006230 f   core.obj
 0001:000052d0       ??0CoreData@@QEAA@XZ       00000001800062d0 f i core.obj
 0001:00005320       ?Init@Core@@QEAA_NPEAUHINSTANCE__@@@Z 0000000180006320 f   core.obj
 0001:00005700       ?hardware_id@Core@@QEAAPEAVHardwareID@@XZ 0000000180006700 f   core.obj
 0001:00005750       ?HookedNtProtectVirtualMemory@@YAJPEAXPEAPEAXPEA_KKPEAK@Z 0000000180006750 f   core.obj
 0001:000057b0       ?HookedDbgUiRemoteBreakin@@YAXXZ 00000001800067b0 f   core.obj
 0001:000057d0       ?HookedNtClose@@YAJPEAX@Z  00000001800067d0 f   core.obj
 0001:00005830       ?HookedNtQueryObject@@YAJPEAXW4_OBJECT_INFORMATION_CLASS@@0KPEAK@Z 0000000180006830 f   core.obj
 0001:00005890       ?HookAPIs@Core@@AEAAXAEAVHookManager@@I@Z 0000000180006890 f   core.obj
 0001:00005a20       ?UnhookAPIs@Core@@AEAAXAEAVHookManager@@@Z 0000000180006a20 f   core.obj
 0001:00005ac0       ?NtProtectVirtualMemory@Core@@QEAAJPEAXPEAPEAXPEA_KKPEAK@Z 0000000180006ac0 f   core.obj
 0001:00005c00       ?NtQueryObject@Core@@QEAAJPEAXW4_OBJECT_INFORMATION_CLASS@@0KPEAK@Z 0000000180006c00 f   core.obj
 0001:00005cf0       ??1?$vector@VUnicodeString@@@@QEAA@XZ 0000000180006cf0 f i core.obj
 0001:00005d40       ??0CipherRC5@@QEAA@AEBURC5Key@@@Z 0000000180006d40 f   crypto.obj
 0001:00005e30       ??0BigNumber@@QEAA@PEBE_K_N@Z 0000000180006e30 f   crypto.obj
 0001:000060d0       ??1BigNumber@@QEAA@XZ      00000001800070d0 f   crypto.obj
 0001:000060e0       ?init@BigNumber@@AEAAX_K@Z 00000001800070e0 f   crypto.obj
 0001:000063a0       ?internal_mul@BigNumber@@AEBAXPEAG00H@Z 00000001800073a0 f   crypto.obj
 0001:00006610       ?internal_mod@BigNumber@@AEBAXPEAGH0H0H@Z 0000000180007610 f   crypto.obj
 0001:00006a90       ?modpow@BigNumber@@QEBAPEAVCryptoContainer@@AEBV2@_K111@Z 0000000180007a90 f   crypto.obj
 0001:000079c0       ?bignum_byte@BigNumber@@AEBAEPEAG_K@Z 00000001800089c0 f   crypto.obj
 0001:00007a90       ?EncryptValue@CryptoContainer@@AEBA_N_KPEAE0@Z 0000000180008a90 f   crypto.obj
 0001:00007c50       ?DecryptValue@CryptoContainer@@AEBA_N_KPEAE0@Z 0000000180008c50 f   crypto.obj
 0001:00007d70       ?UTF8ToUnicode@CryptoContainer@@QEBAX_K0PEA_W0@Z 0000000180008d70 f   crypto.obj
 0001:00007f50       ?Base64Encode@@YA_NPEBE_KPEADAEA_K@Z 0000000180008f50 f   crypto.obj
 0001:000080b0       ?Base64Decode@@YA_NPEBD_KPEAEAEA_K@Z 00000001800090b0 f   crypto.obj
 0001:000081b0       ?Input@SHA1@@QEAAXPEBE_K@Z 00000001800091b0 f   crypto.obj
 0001:00008230       ?Input@SHA1@@QEAAXAEBVCryptoContainer@@_K1@Z 0000000180009230 f   crypto.obj
 0001:000082d0       ?ProcessMessageBlock@SHA1@@AEAAXXZ 00000001800092d0 f   crypto.obj
 0001:000084d0       ?Result@SHA1@@QEAAPEBEXZ   00000001800094d0 f   crypto.obj
 0001:00008580       ?CalcCRC@@YAIPEBX_K@Z      0000000180009580 f   crypto.obj
 0001:000085d0       ?HookAPI@HookManager@@QEAAPEAXPEAUHINSTANCE__@@PEBDPEAX_NPEAPEAX@Z 00000001800095d0 f   hook_manager.obj
 0001:00008940       ?UnhookAPI@HookManager@@QEAA_NPEAX@Z 0000000180009940 f   hook_manager.obj
 0001:00008ac0       ?GetThreads@HookManager@@AEAAXXZ 0000000180009ac0 f   hook_manager.obj
 0001:00008c40       ?End@HookManager@@QEAAXXZ  0000000180009c40 f   hook_manager.obj
 0001:00008cd0       ?GetInstructionSize@@YA_NPEBEAEAUsCommandInfo@@@Z 0000000180009cd0 f   hook_manager.obj
 0001:00009180       ?Hook@HookedAPI@@QEAA_NPEAX0PEAPEAX@Z 000000018000a180 f   hook_manager.obj
 0001:00009430       ?Unhook@HookedAPI@@QEAAXXZ 000000018000a430 f   hook_manager.obj
 0001:00009510       ??$swprintf_s@$0CAA@@@YAHAEAY0CAA@_WPEB_WZZ 000000018000a510 f i hook_manager.obj
 0001:00009570       ??$swprintf_s@$0GE@@@YAHAEAY0GE@_WPEB_WZZ 000000018000a570 f i hook_manager.obj
 0001:000095d0       __local_stdio_printf_options 000000018000a5d0 f i hook_manager.obj
 0001:000095e0       ?ExportedGetCurrentHWID@@YAHPEADH@Z 000000018000a5e0 f   hwid.obj
 0001:00009660       ??0HardwareID@@QEAA@XZ     000000018000a660 f   hwid.obj
 0001:000099a0       ?AddBlock@HardwareID@@AEAAXPEBX_KW4BlockType@1@@Z 000000018000a9a0 f   hwid.obj
 0001:00009b10       ?GetCPU@HardwareID@@AEAAXE@Z 000000018000ab10 f   hwid.obj
 0001:00009cd0       ?GetMachineName@HardwareID@@AEAAXXZ 000000018000acd0 f   hwid.obj
 0001:00009d60       ?ProcessMAC@HardwareID@@AEAAXPEBE_K@Z 000000018000ad60 f   hwid.obj
 0001:00009e20       ?GetMacAddresses@HardwareID@@AEAAXXZ 000000018000ae20 f   hwid.obj
 0001:00009f50       ?GetHDD@HardwareID@@AEAAXXZ 000000018000af50 f   hwid.obj
 0001:0000a090       ?GetCurrent@HardwareID@@QEAAHPEADH@Z 000000018000b090 f   hwid.obj
 0001:0000a1f0       ?IsCorrect@HardwareID@@QEBA_NPEAE_K@Z 000000018000b1f0 f   hwid.obj
 0001:0000a340       ?IsCorrect@HardwareID@@QEBA_NAEAVCryptoContainer@@_K1@Z 000000018000b340 f   hwid.obj
 0001:0000a430       ?ExportedSetSerialNumber@@YAHPEBD@Z 000000018000b430 f   licensing_manager.obj
 0001:0000a460       ?ExportedGetSerialNumberState@@YAHXZ 000000018000b460 f   licensing_manager.obj
 0001:0000a4e0       ?ExportedGetSerialNumberData@@YA_NPEAUVMProtectSerialNumberData@@H@Z 000000018000b4e0 f   licensing_manager.obj
 0001:0000a520       ?ExportedActivateLicense@@YAHPEBDPEADH@Z 000000018000b520 f   licensing_manager.obj
 0001:0000a580       ?ExportedDeactivateLicense@@YAHPEBD@Z 000000018000b580 f   licensing_manager.obj
 0001:0000a5b0       ?ExportedGetOfflineActivationString@@YAHPEBDPEADH@Z 000000018000b5b0 f   licensing_manager.obj
 0001:0000a610       ?ExportedGetOfflineDeactivationString@@YAHPEBDPEADH@Z 000000018000b610 f   licensing_manager.obj
 0001:0000a670       ?ExportedDecryptBuffer@@YAXPEAE@Z 000000018000b670 f   licensing_manager.obj
 0001:0000a6a0       ??0LicensingManager@@QEAA@PEAEI0@Z 000000018000b6a0 f   licensing_manager.obj
 0001:0000a7a0       ??1LicensingManager@@QEAA@XZ 000000018000b7a0 f   licensing_manager.obj
 0001:0000a830       ?save_state@LicensingManager@@AEAAHH@Z 000000018000b830 f   licensing_manager.obj
 0001:0000a8c0       ?CheckLicenseDataCRC@LicensingManager@@AEBA_NXZ 000000018000b8c0 f   licensing_manager.obj
 0001:0000aa20       ?SetSerialNumber@LicensingManager@@QEAAHPEBD@Z 000000018000ba20 f   licensing_manager.obj
 0001:0000ae90       ?GetCurrentDate@LicensingManager@@SAIXZ 000000018000be90 f   licensing_manager.obj
 0001:0000b100       ?ParseSerial@LicensingManager@@AEAAHPEAUVMProtectSerialNumberData@@@Z 000000018000c100 f   licensing_manager.obj
 0001:0000b810       ?GetSerialNumberData@LicensingManager@@QEAA_NPEAUVMProtectSerialNumberData@@H@Z 000000018000c810 f   licensing_manager.obj
 0001:0000b8e0       ?ActivateLicense@LicensingManager@@QEBAHPEBDPEADH@Z 000000018000c8e0 f   licensing_manager.obj
 0001:0000b9d0       ??1ActivationRequest@@UEAA@XZ 000000018000c9d0 f i licensing_manager.obj
 0001:0000b9f0       ?DeactivateLicense@LicensingManager@@QEBAHPEBD@Z 000000018000c9f0 f   licensing_manager.obj
 0001:0000ba80       ??1DeactivationRequest@@UEAA@XZ 000000018000ca80 f i licensing_manager.obj
 0001:0000baa0       ??_GDeactivationRequest@@UEAAPEAXI@Z 000000018000caa0 f i licensing_manager.obj
 0001:0000baa0       ??_EDeactivationRequest@@UEAAPEAXI@Z 000000018000caa0 f i * CIL library *:* CIL module *
 0001:0000baf0       ?GetOfflineActivationString@LicensingManager@@QEBAHPEBDPEADH@Z 000000018000caf0 f   licensing_manager.obj
 0001:0000bc60       ?GetOfflineDeactivationString@LicensingManager@@QEBAHPEBDPEADH@Z 000000018000cc60 f   licensing_manager.obj
 0001:0000bd80       ?DecryptBuffer@LicensingManager@@QEAAXPEAE@Z 000000018000cd80 f   licensing_manager.obj
 0001:0000be40       ??_EBaseRequest@@UEAAPEAXI@Z 000000018000ce40 f i * CIL library *:* CIL module *
 0001:0000be40       ??_GBaseRequest@@UEAAPEAXI@Z 000000018000ce40 f i licensing_manager.obj
 0001:0000be90       ?BuildUrl@BaseRequest@@IEAA_NAEBVCryptoContainer@@@Z 000000018000ce90 f   licensing_manager.obj
 0001:0000bf90       ?Send@BaseRequest@@QEAA_NXZ 000000018000cf90 f   licensing_manager.obj
 0001:0000c600       ?AppendUrlParam@BaseRequest@@IEAAXPEBD0@Z 000000018000d600 f   licensing_manager.obj
 0001:0000c730       ??_GActivationRequest@@UEAAPEAXI@Z 000000018000d730 f i licensing_manager.obj
 0001:0000c730       ??_EActivationRequest@@UEAAPEAXI@Z 000000018000d730 f i * CIL library *:* CIL module *
 0001:0000c780       ?BuildUrl@ActivationRequest@@AEAA_NAEBVCryptoContainer@@PEBD_N@Z 000000018000d780 f   licensing_manager.obj
 0001:0000cc60       ?Process@ActivationRequest@@QEAAHAEBVCryptoContainer@@PEBD_N@Z 000000018000dc60 f   licensing_manager.obj
 0001:0000ce50       ?BuildUrl@DeactivationRequest@@AEAA_NAEBVCryptoContainer@@PEBD_N@Z 000000018000de50 f   licensing_manager.obj
 0001:0000d090       ?Process@DeactivationRequest@@QEAAHAEBVCryptoContainer@@PEBD_N@Z 000000018000e090 f   licensing_manager.obj
 0001:0000d1c0       ?reserve@?$basic_string@_WU?$char_traits@_W@std@@V?$allocator@_W@2@@std@@QEAAX_K@Z 000000018000e1c0 f i licensing_manager.obj
 0001:0000d280       ??$_Construct@PEAD@?$basic_string@_WU?$char_traits@_W@std@@V?$allocator@_W@2@@std@@QEAAXPEAD0Uinput_iterator_tag@1@@Z 000000018000e280 f i licensing_manager.obj
 0001:0000d390       ?allocate@?$_Wrap_alloc@V?$allocator@_W@std@@@std@@QEAAPEA_W_K@Z 000000018000e390 f i licensing_manager.obj
 0001:0000d400       ?_Copy@?$basic_string@_WU?$char_traits@_W@std@@V?$allocator@_W@2@@std@@QEAAX_K0@Z 000000018000e400 f i licensing_manager.obj
 0001:0000d5d0       ?_Tidy@?$basic_string@_WU?$char_traits@_W@std@@V?$allocator@_W@2@@std@@QEAAX_N_K@Z 000000018000e5d0 f i licensing_manager.obj
 0001:0000d6a0       ??1?$basic_string@_WU?$char_traits@_W@std@@V?$allocator@_W@2@@std@@QEAA@XZ 000000018000e6a0 f i licensing_manager.obj
 0001:0000d740       ??0SETUP_IMAGE_DATA@@QEAA@XZ 000000018000e740 f i loader.obj
 0001:0000d750       ?file_base@SETUP_IMAGE_DATA@@QEAAPEAEXZ 000000018000e750 f i loader.obj
 0001:0000d760       ?image_base@SETUP_IMAGE_DATA@@QEAAPEAEXZ 000000018000e760 f i loader.obj
 0001:0000d770       ?options@SETUP_IMAGE_DATA@@QEAAIXZ 000000018000e770 f i loader.obj
 0001:0000d780       ?storage@SETUP_IMAGE_DATA@@QEAAIXZ 000000018000e780 f i loader.obj
 0001:0000d790       ?runtime_entry@SETUP_IMAGE_DATA@@QEAAIXZ 000000018000e790 f i loader.obj
 0001:0000d7a0       ?tls_index_info@SETUP_IMAGE_DATA@@QEAAIXZ 000000018000e7a0 f i loader.obj
 0001:0000d7b0       ?file_crc_info@SETUP_IMAGE_DATA@@QEAAIXZ 000000018000e7b0 f i loader.obj
 0001:0000d7c0       ?file_crc_info_size@SETUP_IMAGE_DATA@@QEAAIXZ 000000018000e7c0 f i loader.obj
 0001:0000d7d0       ?loader_crc_info@SETUP_IMAGE_DATA@@QEAAIXZ 000000018000e7d0 f i loader.obj
 0001:0000d7e0       ?loader_crc_info_size@SETUP_IMAGE_DATA@@QEAAIXZ 000000018000e7e0 f i loader.obj
 0001:0000d7f0       ?loader_crc_info_hash@SETUP_IMAGE_DATA@@QEAAIXZ 000000018000e7f0 f i loader.obj
 0001:0000d800       ?section_info@SETUP_IMAGE_DATA@@QEAAIXZ 000000018000e800 f i loader.obj
 0001:0000d810       ?section_info_size@SETUP_IMAGE_DATA@@QEAAIXZ 000000018000e810 f i loader.obj
 0001:0000d820       ?packer_info@SETUP_IMAGE_DATA@@QEAAIXZ 000000018000e820 f i loader.obj
 0001:0000d830       ?packer_info_size@SETUP_IMAGE_DATA@@QEAAIXZ 000000018000e830 f i loader.obj
 0001:0000d840       ?fixup_info@SETUP_IMAGE_DATA@@QEAAIXZ 000000018000e840 f i loader.obj
 0001:0000d850       ?fixup_info_size@SETUP_IMAGE_DATA@@QEAAIXZ 000000018000e850 f i loader.obj
 0001:0000d860       ?relocation_info@SETUP_IMAGE_DATA@@QEAAIXZ 000000018000e860 f i loader.obj
 0001:0000d870       ?relocation_info_size@SETUP_IMAGE_DATA@@QEAAIXZ 000000018000e870 f i loader.obj
 0001:0000d880       ?iat_info@SETUP_IMAGE_DATA@@QEAAIXZ 000000018000e880 f i loader.obj
 0001:0000d890       ?iat_info_size@SETUP_IMAGE_DATA@@QEAAIXZ 000000018000e890 f i loader.obj
 0001:0000d8a0       ?import_info@SETUP_IMAGE_DATA@@QEAAIXZ 000000018000e8a0 f i loader.obj
 0001:0000d8b0       ?import_info_size@SETUP_IMAGE_DATA@@QEAAIXZ 000000018000e8b0 f i loader.obj
 0001:0000d8c0       ?internal_import_info@SETUP_IMAGE_DATA@@QEAAIXZ 000000018000e8c0 f i loader.obj
 0001:0000d8d0       ?internal_import_info_size@SETUP_IMAGE_DATA@@QEAAIXZ 000000018000e8d0 f i loader.obj
 0001:0000d8e0       ?memory_crc_info@SETUP_IMAGE_DATA@@QEAAIXZ 000000018000e8e0 f i loader.obj
 0001:0000d8f0       ?memory_crc_info_size@SETUP_IMAGE_DATA@@QEAAIXZ 000000018000e8f0 f i loader.obj
 0001:0000d900       ?memory_crc_info_hash@SETUP_IMAGE_DATA@@QEAAIXZ 000000018000e900 f i loader.obj
 0001:0000d910       ?delay_import_info@SETUP_IMAGE_DATA@@QEAAIXZ 000000018000e910 f i loader.obj
 0001:0000d920       ?delay_import_info_size@SETUP_IMAGE_DATA@@QEAAIXZ 000000018000e920 f i loader.obj
 0001:0000d930       ?LoaderFindFirmwareVendor@@YA_NPEBE_K@Z 000000018000e930 f   loader.obj
 0001:0000da50       ?LoaderLoadLibraryEnc@@YAPEAUHINSTANCE__@@PEBD@Z 000000018000ea50 f   loader.obj
 0001:0000dab0       ?LoaderFindFileVersion@@YAPEB_WPEBE_K@Z 000000018000eab0 f   loader.obj
 0001:0000dbc0       ?LoaderGetProcAddress@@YAPEAXPEAUHINSTANCE__@@PEBD_N@Z 000000018000ebc0 f   loader.obj
 0001:0000def0       ?LoaderGetModuleHandleEnc@@YAPEAUHINSTANCE__@@PEBD@Z 000000018000eef0 f   loader.obj
 0001:0000df50       ?LoaderMessage@@YAXW4MessageType@@PEBX1@Z 000000018000ef50 f   loader.obj
 0001:0000e380       ?FreeImage@@YAXXZ          000000018000f380 f   loader.obj
 0001:0000e410       ?LoaderProcessFixups@@YAX_JIIPEAE1@Z 000000018000f410 f   loader.obj
 0001:0000e4d0       ?SetupImage@@YAIXZ         000000018000f4d0 f   loader.obj
 0001:00011410       ??1CriticalSection@@QEAA@XZ 0000000180012410 f   objects.obj
 0001:00011420       ?ExportedLoadResource@@YAPEAXPEAUHINSTANCE__@@PEAUHRSRC__@@@Z 0000000180012420 f   resource_manager.obj
 0001:00011480       ?ExportedFindResourceA@@YAPEAUHRSRC__@@PEAUHINSTANCE__@@PEBD1@Z 0000000180012480 f   resource_manager.obj
 0001:000114d0       ?ExportedFindResourceExA@@YAPEAUHRSRC__@@PEAUHINSTANCE__@@PEBD1G@Z 00000001800124d0 f   resource_manager.obj
 0001:00011530       ?ExportedFindResourceW@@YAPEAUHRSRC__@@PEAUHINSTANCE__@@PEB_W1@Z 0000000180012530 f   resource_manager.obj
 0001:00011580       ?ExportedFindResourceExW@@YAPEAUHRSRC__@@PEAUHINSTANCE__@@PEB_W1G@Z 0000000180012580 f   resource_manager.obj
 0001:000115e0       ?ExportedLoadStringA@@YAHPEAUHINSTANCE__@@IPEADH@Z 00000001800125e0 f   resource_manager.obj
 0001:00011660       ?ExportedLoadStringW@@YAHPEAUHINSTANCE__@@IPEA_WH@Z 0000000180012660 f   resource_manager.obj
 0001:000116e0       ?ExportedEnumResourceNamesA@@YAHPEAUHINSTANCE__@@PEBDP6AH01PEAD_J@Z3@Z 00000001800126e0 f   resource_manager.obj
 0001:00011740       ?ExportedEnumResourceNamesW@@YAHPEAUHINSTANCE__@@PEB_WP6AH01PEA_W_J@Z3@Z 0000000180012740 f   resource_manager.obj
 0001:000117a0       ?ExportedEnumResourceLanguagesA@@YAHPEAUHINSTANCE__@@PEBD1P6AH011G_J@Z2@Z 00000001800127a0 f   resource_manager.obj
 0001:00011810       ?ExportedEnumResourceLanguagesW@@YAHPEAUHINSTANCE__@@PEB_W1P6AH011G_J@Z2@Z 0000000180012810 f   resource_manager.obj
 0001:00011880       ?ExportedEnumResourceTypesA@@YAHPEAUHINSTANCE__@@P6AH0PEAD_J@Z2@Z 0000000180012880 f   resource_manager.obj
 0001:000118e0       ?ExportedEnumResourceTypesW@@YAHPEAUHINSTANCE__@@P6AH0PEA_W_J@Z2@Z 00000001800128e0 f   resource_manager.obj
 0001:00011940       ?HookedLoadStringA@@YAHPEAUHINSTANCE__@@IPEADH@Z 0000000180012940 f   resource_manager.obj
 0001:000119c0       ?HookedLoadStringW@@YAHPEAUHINSTANCE__@@IPEA_WH@Z 00000001800129c0 f   resource_manager.obj
 0001:00011a40       ?HookedLdrFindResource_U@@YAJPEAUHINSTANCE__@@PEBULDR_RESOURCE_INFO@@KPEAPEBU_IMAGE_RESOURCE_DATA_ENTRY@@@Z 0000000180012a40 f   resource_manager.obj
 0001:00011ad0       ?HookedLdrAccessResource@@YAJPEAUHINSTANCE__@@PEBU_IMAGE_RESOURCE_DATA_ENTRY@@PEAPEAXPEAK@Z 0000000180012ad0 f   resource_manager.obj
 0001:00011b60       ??0ResourceManager@@QEAA@PEBEPEAUHINSTANCE__@@0@Z 0000000180012b60 f   resource_manager.obj
 0001:00011c20       ?HookAPIs@ResourceManager@@QEAAXAEAVHookManager@@@Z 0000000180012c20 f   resource_manager.obj
 0001:00011e00       ?UnhookAPIs@ResourceManager@@QEAAXAEAVHookManager@@@Z 0000000180012e00 f   resource_manager.obj
 0001:00011ec0       ?InternalLoadResource@ResourceManager@@AEAAPEAXPEAUHINSTANCE__@@PEAUHRSRC__@@@Z 0000000180012ec0 f   resource_manager.obj
 0001:00011f80       ?InternalFindResourceExW@ResourceManager@@AEAAPEAUHRSRC__@@PEAUHINSTANCE__@@PEB_W1G@Z 0000000180012f80 f   resource_manager.obj
 0001:00012060       ?CreateResourceName@@YAHPEB_WAEAPEA_W@Z 0000000180013060 f   resource_manager.obj
 0001:00012140       ?CreateResourceName@@YAHPEBDAEAPEA_W@Z 0000000180013140 f   resource_manager.obj
 0001:00012240       ?FindResourceExW@ResourceManager@@QEAAPEAUHRSRC__@@PEAUHINSTANCE__@@PEB_W1G@Z 0000000180013240 f   resource_manager.obj
 0001:00012350       ?FindResourceExA@ResourceManager@@QEAAPEAUHRSRC__@@PEAUHINSTANCE__@@PEBD1G@Z 0000000180013350 f   resource_manager.obj
 0001:00012460       ?FindEntryById@ResourceManager@@AEAAPEBURESOURCE_DIRECTORY@@PEBU2@GK@Z 0000000180013460 f   resource_manager.obj
 0001:00012510       ?DecryptStringW@ResourceManager@@AEBAPEA_WPEB_W@Z 0000000180013510 f   resource_manager.obj
 0001:000125c0       ?FindEntryByName@ResourceManager@@AEAAPEBURESOURCE_DIRECTORY@@PEBU2@PEB_WK@Z 00000001800135c0 f   resource_manager.obj
 0001:000126d0       ?FindResourceEntry@ResourceManager@@AEAAPEBURESOURCE_DIRECTORY@@PEB_W0G@Z 00000001800136d0 f   resource_manager.obj
 0001:00012900       ?InternalFindStringResource@ResourceManager@@AEAAPEA_WPEAUHINSTANCE__@@I@Z 0000000180013900 f   resource_manager.obj
 0001:000129b0       ?InternalLoadStringW@ResourceManager@@AEAAHPEB_WPEA_WH@Z 00000001800139b0 f   resource_manager.obj
 0001:00012a40       ?InternalLoadStringA@ResourceManager@@AEAAHPEB_WPEADH@Z 0000000180013a40 f   resource_manager.obj
 0001:00012b60       ?EnumResourceNamesA@ResourceManager@@QEAAHPEAUHINSTANCE__@@PEBDP6AH01PEAD_J@Z3@Z 0000000180013b60 f   resource_manager.obj
 0001:00012d90       ?EnumResourceNamesW@ResourceManager@@QEAAHPEAUHINSTANCE__@@PEB_WP6AH01PEA_W_J@Z3@Z 0000000180013d90 f   resource_manager.obj
 0001:00012f20       ?EnumResourceLanguagesA@ResourceManager@@QEAAHPEAUHINSTANCE__@@PEBD1P6AH011G_J@Z2@Z 0000000180013f20 f   resource_manager.obj
 0001:000130a0       ?EnumResourceLanguagesW@ResourceManager@@QEAAHPEAUHINSTANCE__@@PEB_W1P6AH011G_J@Z2@Z 00000001800140a0 f   resource_manager.obj
 0001:00013220       ?EnumResourceTypesA@ResourceManager@@QEAAHPEAUHINSTANCE__@@P6AH0PEAD_J@Z2@Z 0000000180014220 f   resource_manager.obj
 0001:000133c0       ?EnumResourceTypesW@ResourceManager@@QEAAHPEAUHINSTANCE__@@P6AH0PEA_W_J@Z2@Z 00000001800143c0 f   resource_manager.obj
 0001:000134d0       ?Decrypt@VirtualResource@@QEAAPEAXPEAUHINSTANCE__@@I@Z 00000001800144d0 f   resource_manager.obj
 0001:00013560       ??1VirtualResourceList@@QEAA@XZ 0000000180014560 f   resource_manager.obj
 0001:000135e0       ?Add@VirtualResourceList@@QEAAPEAVVirtualResource@@PEBURESOURCE_DATA_ENTRY@@I@Z 00000001800145e0 f   resource_manager.obj
 0001:000136d0       ?ExportedDecryptString@@YAPEBXPEBX@Z 00000001800146d0 f   string_manager.obj
 0001:00013700       ?ExportedFreeString@@YA_NPEBX@Z 0000000180014700 f   string_manager.obj
 0001:00013730       ??1StringManager@@QEAA@XZ  0000000180014730 f   string_manager.obj
 0001:000137d0       ??_GVirtualString@@QEAAPEAXI@Z 00000001800147d0 f i string_manager.obj
 0001:00013830       ?DecryptString@StringManager@@QEAAPEBXPEBX@Z 0000000180014830 f   string_manager.obj
 0001:00013940       ?FreeString@StringManager@@QEAA_NPEBX@Z 0000000180014940 f   string_manager.obj
 0001:00013a30       ??0VirtualString@@QEAA@PEBUSTRING_ENTRY@@PEAUHINSTANCE__@@I@Z 0000000180014a30 f   string_manager.obj
 0001:00013ac0       ??0Path@@QEAA@PEA_W@Z      0000000180014ac0 f i file_manager.obj
 0001:00013c00       ?Combine@Path@@QEAA?AVUnicodeString@@PEA_W@Z 0000000180014c00 f i file_manager.obj
 0001:00013f70       ??1Path@@QEAA@XZ           0000000180014f70 f i file_manager.obj
 0001:00013fc0       ?HookedNtQueryAttributesFile@@YAJPEAU_OBJECT_ATTRIBUTES@@PEAU_FILE_BASIC_INFORMATION@@@Z 0000000180014fc0 f   file_manager.obj
 0001:00013ff0       ?HookedNtCreateFile@@YAJPEAPEAXKPEAU_OBJECT_ATTRIBUTES@@PEAU_IO_STATUS_BLOCK@@PEAT_LARGE_INTEGER@@KKKKPEAXK@Z 0000000180014ff0 f   file_manager.obj
 0001:000140a0       ?HookedNtOpenFile@@YAJPEAPEAXKPEAU_OBJECT_ATTRIBUTES@@PEAU_IO_STATUS_BLOCK@@KK@Z 00000001800150a0 f   file_manager.obj
 0001:00014100       ?HookedNtQueryInformationFile@@YAJPEAXPEAU_IO_STATUS_BLOCK@@0KW4_FILE_INFORMATION_CLASS@@@Z 0000000180015100 f   file_manager.obj
 0001:00014160       ?HookedNtQueryVolumeInformationFile@@YAJPEAXPEAU_IO_STATUS_BLOCK@@0KW4_FSINFOCLASS@@@Z 0000000180015160 f   file_manager.obj
 0001:000141c0       ?HookedNtSetInformationFile@@YAJPEAXPEAU_IO_STATUS_BLOCK@@0KW4_FILE_INFORMATION_CLASS@@@Z 00000001800151c0 f   file_manager.obj
 0001:00014220       ?HookedNtQueryDirectoryFile@@YAJPEAX0P6AX0PEAU_IO_STATUS_BLOCK@@K@Z010KW4_FILE_INFORMATION_CLASS@@EPEAU_UNICODE_STRING@@E@Z 0000000180015220 f   file_manager.obj
 0001:000142d0       ?HookedNtReadFile@@YAJPEAX0P6AX0PEAU_IO_STATUS_BLOCK@@K@Z010KPEAT_LARGE_INTEGER@@PEAK@Z 00000001800152d0 f   file_manager.obj
 0001:00014360       ?HookedNtCreateSection@@YAJPEAPEAXKPEAU_OBJECT_ATTRIBUTES@@PEAT_LARGE_INTEGER@@KKPEAX@Z 0000000180015360 f   file_manager.obj
 0001:000143d0       ?HookedNtQuerySection@@YAJPEAXW4_SECTION_INFORMATION_CLASS@@0KPEAK@Z 00000001800153d0 f   file_manager.obj
 0001:00014430       ?HookedNtMapViewOfSection@@YAJPEAX0PEAPEAX_K2PEAT_LARGE_INTEGER@@PEA_KW4_SECTION_INHERIT@@KK@Z 0000000180015430 f   file_manager.obj
 0001:000144d0       ?HookedNtUnmapViewOfSection@@YAJPEAX0@Z 00000001800154d0 f   file_manager.obj
 0001:00014540       ?HookedNtQueryVirtualMemory@@YAJPEAX0W4_MEMORY_INFORMATION_CLASS@@0KPEAK@Z 0000000180015540 f   file_manager.obj
 0001:000145b0       ??0FileManager@@QEAA@PEBEPEAUHINSTANCE__@@0PEAVVirtualObjectList@@@Z 00000001800155b0 f   file_manager.obj
 0001:00014b00       ?HookAPIs@FileManager@@QEAAXAEAVHookManager@@@Z 0000000180015b00 f   file_manager.obj
 0001:00014e00       ?UnhookAPIs@FileManager@@QEAAXAEAVHookManager@@@Z 0000000180015e00 f   file_manager.obj
 0001:00014f10       ?OpenFiles@FileManager@@QEAA_NAEAVRegistryManager@@@Z 0000000180015f10 f   file_manager.obj
 0001:000151c0       ?FindEntry@FileManager@@AEAAPEBUOBJECT_ENTRY@@PEAXPEAU_UNICODE_STRING@@@Z 00000001800161c0 f   file_manager.obj
 0001:00015590       ?ReadFile@FileManager@@AEBA_NPEBUOBJECT_ENTRY@@_KPEAX1@Z 0000000180016590 f   file_manager.obj
 0001:000155f0       ?ReadImageHeader@FileManager@@AEBAJPEBUOBJECT_ENTRY@@PEAU_IMAGE_NT_HEADERS64@@@Z 00000001800165f0 f   file_manager.obj
 0001:00015730       ?ReadImage@FileManager@@AEBAJPEBUOBJECT_ENTRY@@PEAX@Z 0000000180016730 f   file_manager.obj
 0001:00015a60       ?NtQueryAttributesFile@FileManager@@QEAAJPEAU_OBJECT_ATTRIBUTES@@PEAU_FILE_BASIC_INFORMATION@@@Z 0000000180016a60 f   file_manager.obj
 0001:00015ac0       ?NtCreateFile@FileManager@@QEAAJPEAPEAXKPEAU_OBJECT_ATTRIBUTES@@PEAU_IO_STATUS_BLOCK@@PEAT_LARGE_INTEGER@@KKKKPEAXK@Z 0000000180016ac0 f   file_manager.obj
 0001:00015c50       ?NtOpenFile@FileManager@@QEAAJPEAPEAXKPEAU_OBJECT_ATTRIBUTES@@PEAU_IO_STATUS_BLOCK@@KK@Z 0000000180016c50 f   file_manager.obj
 0001:00015d30       ?NtQueryInformationFile@FileManager@@QEAAJPEAXPEAU_IO_STATUS_BLOCK@@0KW4_FILE_INFORMATION_CLASS@@@Z 0000000180016d30 f   file_manager.obj
 0001:00015f00       ?NtQueryVolumeInformationFile@FileManager@@QEAAJPEAXPEAU_IO_STATUS_BLOCK@@0KW4_FSINFOCLASS@@@Z 0000000180016f00 f   file_manager.obj
 0001:00016020       ?NtSetInformationFile@FileManager@@QEAAJPEAXPEAU_IO_STATUS_BLOCK@@0KW4_FILE_INFORMATION_CLASS@@@Z 0000000180017020 f   file_manager.obj
 0001:00016110       ?NtQueryDirectoryFile@FileManager@@QEAAJPEAX0P6AX0PEAU_IO_STATUS_BLOCK@@K@Z010KW4_FILE_INFORMATION_CLASS@@EPEAU_UNICODE_STRING@@E@Z 0000000180017110 f   file_manager.obj
 0001:00016370       ?NtReadFile@FileManager@@QEAAJPEAX0P6AX0PEAU_IO_STATUS_BLOCK@@K@Z010KPEAT_LARGE_INTEGER@@PEAK@Z 0000000180017370 f   file_manager.obj
 0001:00016540       ?NtCreateSection@FileManager@@QEAAJPEAPEAXKPEAU_OBJECT_ATTRIBUTES@@PEAT_LARGE_INTEGER@@KKPEAX@Z 0000000180017540 f   file_manager.obj
 0001:00016710       ?NtQuerySection@FileManager@@QEAAJPEAXW4_SECTION_INFORMATION_CLASS@@0KPEAK@Z 0000000180017710 f   file_manager.obj
 0001:00016940       ?NtMapViewOfSection@FileManager@@QEAAJPEAX0PEAPEAX_K2PEAT_LARGE_INTEGER@@PEA_KW4_SECTION_INHERIT@@KK@Z 0000000180017940 f   file_manager.obj
 0001:00016bf0       ?NtQueryVirtualMemory@FileManager@@QEAAJPEAX0W4_MEMORY_INFORMATION_CLASS@@0KPEAK@Z 0000000180017bf0 f   file_manager.obj
 0001:00016cf0       ??1?$vector@PEBVUnicodeString@@@@QEAA@XZ 0000000180017cf0 f i file_manager.obj
 0001:00016d00       ?push_back@?$vector@VUnicodeString@@@@QEAAXAEBVUnicodeString@@@Z 0000000180017d00 f i file_manager.obj
 0001:00016f00       ??$swprintf_s@$0BGI@@@YAHAEAY0BGI@_WPEB_WZZ 0000000180017f00 f i file_manager.obj
 0001:00016f58       ??0bad_alloc@std@@QEAA@AEBV01@@Z 0000000180017f58 f i libcpmt:xthrow.obj
 0001:00016f98       ??0bad_alloc@std@@QEAA@XZ  0000000180017f98 f i libcpmt:xthrow.obj
 0001:00016fb8       ??0exception@std@@QEAA@AEBV01@@Z 0000000180017fb8 f i libcpmt:xthrow.obj
 0001:00016ff0       ??0length_error@std@@QEAA@AEBV01@@Z 0000000180017ff0 f i libcpmt:xthrow.obj
 0001:00017030       ??0length_error@std@@QEAA@PEBD@Z 0000000180018030 f i libcpmt:xthrow.obj
 0001:0001707c       ??0logic_error@std@@QEAA@AEBV01@@Z 000000018001807c f i libcpmt:xthrow.obj
 0001:000170bc       ??1bad_alloc@std@@UEAA@XZ  00000001800180bc f i libcpmt:xthrow.obj
 0001:000170d0       ??1length_error@std@@UEAA@XZ 00000001800180d0 f i libcpmt:xthrow.obj
 0001:000170e4       ??_Ebad_alloc@std@@UEAAPEAXI@Z 00000001800180e4 f i libcpmt:xthrow.obj
 0001:000170e4       ??_Gbad_alloc@std@@UEAAPEAXI@Z 00000001800180e4 f i libcpmt:xthrow.obj
 0001:00017128       ??_Eexception@std@@UEAAPEAXI@Z 0000000180018128 f i libcpmt:xthrow.obj
 0001:00017128       ??_Gexception@std@@UEAAPEAXI@Z 0000000180018128 f i libcpmt:xthrow.obj
 0001:0001716c       ??_Glength_error@std@@UEAAPEAXI@Z 000000018001816c f i libcpmt:xthrow.obj
 0001:0001716c       ??_Elength_error@std@@UEAAPEAXI@Z 000000018001816c f i libcpmt:xthrow.obj
 0001:000171b0       ??_Glogic_error@std@@UEAAPEAXI@Z 00000001800181b0 f i libcpmt:xthrow.obj
 0001:000171b0       ??_Elogic_error@std@@UEAAPEAXI@Z 00000001800181b0 f i libcpmt:xthrow.obj
 0001:000171f4       ?_Xbad_alloc@std@@YAXXZ    00000001800181f4 f   libcpmt:xthrow.obj
 0001:00017214       ?_Xlength_error@std@@YAXPEBD@Z 0000000180018214 f   libcpmt:xthrow.obj
 0001:00017238       ?what@exception@std@@UEBAPEBDXZ 0000000180018238 f i libcpmt:xthrow.obj
 0001:0001724c       ??_U@YAPEAX_K@Z            000000018001824c f   LIBCMT:new_array.obj
 0001:00017254       ??_V@YAXPEAX@Z             0000000180018254 f   LIBCMT:delete_array.obj
 0001:0001725c       ??3@YAXPEAX_K@Z            000000018001825c f   LIBCMT:delete_scalar_size.obj
 0001:00017264       ??2@YAPEAX_K@Z             0000000180018264 f   LIBCMT:new_scalar.obj
 0001:000172a0       ??_V@YAXPEAX_K@Z           00000001800182a0 f   LIBCMT:delete_array_size.obj
 0001:000172a8       ??_M@YAXPEAX_K1P6AX0@Z@Z   00000001800182a8 f   LIBCMT:ehvecdtr.obj
 0001:00017314       ?__ArrayUnwind@@YAXPEAX_K1P6AX0@Z@Z 0000000180018314 f   LIBCMT:ehvecdtr.obj
 0001:00017378       ??3@YAXPEAX@Z              0000000180018378 f   LIBCMT:delete_scalar.obj
 0001:00017380       ??_L@YAXPEAX_K1P6AX0@Z2@Z  0000000180018380 f   LIBCMT:ehvecctr.obj
 0001:0001773c       _DllMainCRTStartup         000000018001873c f   LIBCMT:dll_dllmain.obj
 0001:0001777c       ??_Etype_info@@UEAAPEAXI@Z 000000018001877c f i LIBCMT:std_type_info_static.obj
 0001:0001777c       ??_Gtype_info@@UEAAPEAXI@Z 000000018001877c f i LIBCMT:std_type_info_static.obj
 0001:000177a8       ??0bad_array_new_length@std@@QEAA@AEBV01@@Z 00000001800187a8 f i LIBCMT:throw_bad_alloc.obj
 0001:000177e8       ??0bad_array_new_length@std@@QEAA@XZ 00000001800187e8 f i LIBCMT:throw_bad_alloc.obj
 0001:00017808       ??1bad_array_new_length@std@@UEAA@XZ 0000000180018808 f i LIBCMT:throw_bad_alloc.obj
 0001:0001781c       ??_Gbad_array_new_length@std@@UEAAPEAXI@Z 000000018001881c f i LIBCMT:throw_bad_alloc.obj
 0001:0001781c       ??_Ebad_array_new_length@std@@UEAAPEAXI@Z 000000018001881c f i LIBCMT:throw_bad_alloc.obj
 0001:00017860       ?__scrt_throw_std_bad_alloc@@YAXXZ 0000000180018860 f   LIBCMT:throw_bad_alloc.obj
 0001:00017880       ?__scrt_throw_std_bad_array_new_length@@YAXXZ 0000000180018880 f   LIBCMT:throw_bad_alloc.obj
 0001:000178a0       _guard_check_icall         00000001800188a0 f i LIBCMT:checkcfg.obj
 0001:000178a8       __scrt_acquire_startup_lock 00000001800188a8 f   LIBCMT:utility.obj
 0001:000178e4       __scrt_dllmain_after_initialize_c 00000001800188e4 f   LIBCMT:utility.obj
 0001:00017918       __scrt_dllmain_before_initialize_c 0000000180018918 f   LIBCMT:utility.obj
 0001:00017930       __scrt_dllmain_crt_thread_attach 0000000180018930 f   LIBCMT:utility.obj
 0001:00017958       __scrt_dllmain_crt_thread_detach 0000000180018958 f   LIBCMT:utility.obj
 0001:00017970       __scrt_dllmain_exception_filter 0000000180018970 f   LIBCMT:utility.obj
 0001:000179d4       __scrt_dllmain_uninitialize_c 00000001800189d4 f   LIBCMT:utility.obj
 0001:00017a04       __scrt_dllmain_uninitialize_critical 0000000180018a04 f   LIBCMT:utility.obj
 0001:00017a18       __scrt_initialize_crt      0000000180018a18 f   LIBCMT:utility.obj
 0001:00017a64       __scrt_initialize_onexit_tables 0000000180018a64 f   LIBCMT:utility.obj
 0001:00017b30       __scrt_is_nonwritable_in_current_image 0000000180018b30 f   LIBCMT:utility.obj
 0001:00017bcc       __scrt_release_startup_lock 0000000180018bcc f   LIBCMT:utility.obj
 0001:00017bf0       __scrt_uninitialize_crt    0000000180018bf0 f   LIBCMT:utility.obj
 0001:00017c1c       _onexit                    0000000180018c1c f   LIBCMT:utility.obj
 0001:00017c6c       atexit                     0000000180018c6c f   LIBCMT:utility.obj
 0001:00017c84       __security_init_cookie     0000000180018c84 f   LIBCMT:gs_support.obj
 0001:00017d30       ?__scrt_initialize_type_info@@YAXXZ 0000000180018d30 f   LIBCMT:tncleanup.obj
 0001:00017d40       ?__scrt_uninitialize_type_info@@YAXXZ 0000000180018d40 f   LIBCMT:tncleanup.obj
 0001:00017d4c       __local_stdio_scanf_options 0000000180018d4c f i LIBCMT:default_local_stdio_options.obj
 0001:00017d54       __scrt_initialize_default_local_stdio_options 0000000180018d54 f   LIBCMT:default_local_stdio_options.obj
 0001:00017d70       __scrt_get_dyn_tls_init_callback 0000000180018d70 f   LIBCMT:dyn_tls_init.obj
 0001:00017d78       __crt_debugger_hook        0000000180018d78 f   LIBCMT:utility_desktop.obj
 0001:00017d80       __scrt_fastfail            0000000180018d80 f   LIBCMT:utility_desktop.obj
 0001:00017ec8       _RTC_Initialize            0000000180018ec8 f   LIBCMT:_initsect_.obj
 0001:00017f14       _RTC_Terminate             0000000180018f14 f   LIBCMT:_initsect_.obj
 0001:00017f60       _guard_check_icall_nop     0000000180018f60 f i LIBCMT:guard_support.obj
 0001:00017f64       __isa_available_init       0000000180018f64 f   LIBCMT:_cpu_disp_.obj
 0001:0001812c       _get_startup_argv_mode     000000018001912c f   LIBCMT:argv_mode.obj
 0001:00018134       __scrt_is_ucrt_dll_in_use  0000000180019134 f   LIBCMT:ucrt_detection.obj
 0001:00018140       __DestructExceptionObject  0000000180019140 f   libvcruntime:frame.obj
 0001:000181c8       ??0bad_exception@std@@QEAA@AEBV01@@Z 00000001800191c8 f i libvcruntime:frame.obj
 0001:00018208       ??0bad_exception@std@@QEAA@XZ 0000000180019208 f i libvcruntime:frame.obj
 0001:00018228       ??1bad_exception@std@@UEAA@XZ 0000000180019228 f i libvcruntime:frame.obj
 0001:0001823c       ??_Ebad_exception@std@@UEAAPEAXI@Z 000000018001923c f i libvcruntime:frame.obj
 0001:0001823c       ??_Gbad_exception@std@@UEAAPEAXI@Z 000000018001923c f i libvcruntime:frame.obj
 0001:00018bdc       ?_CallMemberFunction0@@YAXPEAXP6AX0@Z@Z 0000000180019bdc f i libvcruntime:frame.obj
 0001:00018be0       ?_CallMemberFunction1@@YAXPEAXP6AX0@Z0@Z 0000000180019be0 f i libvcruntime:frame.obj
 0001:00018bec       ?_CallMemberFunction2@@YAXPEAXP6AX0@Z0H@Z 0000000180019bec f i libvcruntime:frame.obj
 0001:00018bfc       __AdjustPointer            0000000180019bfc f   libvcruntime:frame.obj
 0001:00018c20       __BuildCatchObject         0000000180019c20 f   libvcruntime:frame.obj
 0001:00018ce4       __BuildCatchObjectHelper   0000000180019ce4 f   libvcruntime:frame.obj
 0001:00018ec4       __CxxCallCatchBlock        0000000180019ec4 f   libvcruntime:frame.obj
 0001:000190b0       __FrameUnwindFilter        000000018001a0b0 f   libvcruntime:frame.obj
 0001:000190fc       __FrameUnwindToState       000000018001a0fc f   libvcruntime:frame.obj
 0001:00019290       __InternalCxxFrameHandler  000000018001a290 f   libvcruntime:frame.obj
 0001:000194e8       __TypeMatch                000000018001a4e8 f   libvcruntime:frame.obj
 0001:00019628       __std_terminate            000000018001a628 f   libvcruntime:frame.obj
 0001:00019634       wcschr                     000000018001a634 f   libvcruntime:wcschr.obj
 0001:000196c8       wcsrchr                    000000018001a6c8 f   libvcruntime:wcsrchr.obj
 0001:00019778       strchr                     000000018001a778 f   libvcruntime:strchr.obj
 0001:00019804       __std_exception_copy       000000018001a804 f   libvcruntime:std_exception.obj
 0001:00019894       __std_exception_destroy    000000018001a894 f   libvcruntime:std_exception.obj
 0001:000198bc       _CxxThrowException         000000018001a8bc f   libvcruntime:throw.obj
 0001:00019994       __C_specific_handler       000000018001a994 f   libvcruntime:_chandler_.obj
 0001:00019b90       __vcrt_initialize          000000018001ab90 f   libvcruntime:initialization.obj
 0001:00019bc4       __vcrt_thread_attach       000000018001abc4 f   libvcruntime:initialization.obj
 0001:00019bd8       __vcrt_thread_detach       000000018001abd8 f   libvcruntime:initialization.obj
 0001:00019bec       __vcrt_uninitialize        000000018001abec f   libvcruntime:initialization.obj
 0001:00019c0c       __vcrt_uninitialize_critical 000000018001ac0c f   libvcruntime:initialization.obj
 0001:00019c1c       __std_type_info_compare    000000018001ac1c f   libvcruntime:std_type_info.obj
 0001:00019c44       __std_type_info_destroy_list 000000018001ac44 f   libvcruntime:std_type_info.obj
 0001:00019c80       memset                     000000018001ac80 f   libvcruntime:memset.obj
 0001:00019e30       memmove                    000000018001ae30 f   libvcruntime:memcpy.obj
 0001:00019e30       memcpy                     000000018001ae30 f   libvcruntime:memcpy.obj
 0001:0001a268       __vcrt_freefls             000000018001b268 f   libvcruntime:per_thread_data.obj
 0001:0001a288       __vcrt_freeptd             000000018001b288 f   libvcruntime:per_thread_data.obj
 0001:0001a2d8       __vcrt_getptd              000000018001b2d8 f   libvcruntime:per_thread_data.obj
 0001:0001a2f4       __vcrt_getptd_noexit       000000018001b2f4 f   libvcruntime:per_thread_data.obj
 0001:0001a3ac       __vcrt_initialize_ptd      000000018001b3ac f   libvcruntime:per_thread_data.obj
 0001:0001a3ec       __vcrt_uninitialize_ptd    000000018001b3ec f   libvcruntime:per_thread_data.obj
 0001:0001a410       ?__GetCurrentState@@YAHPEA_KPEAU_xDISPATCHER_CONTEXT@@PEBU_s_FuncInfo@@@Z 000000018001b410 f   libvcruntime:ehstate.obj
 0001:0001a438       ?__GetUnwindTryBlock@@YAHPEA_KPEAU_xDISPATCHER_CONTEXT@@PEBU_s_FuncInfo@@@Z 000000018001b438 f   libvcruntime:ehstate.obj
 0001:0001a464       ?__SetState@@YAXPEA_KPEAU_xDISPATCHER_CONTEXT@@PEBU_s_FuncInfo@@H@Z 000000018001b464 f   libvcruntime:ehstate.obj
 0001:0001a470       ?__SetUnwindTryBlock@@YAXPEA_KPEAU_xDISPATCHER_CONTEXT@@PEBU_s_FuncInfo@@H@Z 000000018001b470 f   libvcruntime:ehstate.obj
 0001:0001a4ac       ?__StateFromControlPc@@YAHPEBU_s_FuncInfo@@PEAU_xDISPATCHER_CONTEXT@@@Z 000000018001b4ac f   libvcruntime:ehstate.obj
 0001:0001a4b4       ?__StateFromIp@@YAHPEBU_s_FuncInfo@@PEAU_xDISPATCHER_CONTEXT@@_J@Z 000000018001b4b4 f   libvcruntime:ehstate.obj
 0001:0001a530       _CallSettingFrame          000000018001b530 f   libvcruntime:handlers.obj
 0001:0001a570       ?_ExecutionInCatch@@YAHPEAU_xDISPATCHER_CONTEXT@@PEBU_s_FuncInfo@@@Z 000000018001b570 f   libvcruntime:trnsctrl.obj
 0001:0001a5e4       ?_GetEstablisherFrame@@YAPEA_KPEA_KPEAU_xDISPATCHER_CONTEXT@@PEBU_s_FuncInfo@@0@Z 000000018001b5e4 f   libvcruntime:trnsctrl.obj
 0001:0001a6b0       ?_GetRangeOfTrysToCheck@@YAPEBU_s_TryBlockMapEntry@@PEA_KPEBU_s_FuncInfo@@HHPEAI2PEAU_xDISPATCHER_CONTEXT@@@Z 000000018001b6b0 f   libvcruntime:trnsctrl.obj
 0001:0001a7dc       ?__FrameUnwindToEmptyState@@YAXPEA_KPEAU_xDISPATCHER_CONTEXT@@PEBU_s_FuncInfo@@@Z 000000018001b7dc f   libvcruntime:trnsctrl.obj
 0001:0001a870       ?__SehTransFilter@@YAHPEAU_EXCEPTION_POINTERS@@PEAUEHExceptionRecord@@PEA_KPEAU_CONTEXT@@PEAU_xDISPATCHER_CONTEXT@@PEBU_s_FuncInfo@@PEAH@Z 000000018001b870 f   libvcruntime:trnsctrl.obj
 0001:0001a908       _CallSETranslator          000000018001b908 f   libvcruntime:trnsctrl.obj
 0001:0001a960       _CreateFrameInfo           000000018001b960 f   libvcruntime:trnsctrl.obj
 0001:0001a99c       _FindAndUnlinkFrame        000000018001b99c f   libvcruntime:trnsctrl.obj
 0001:0001a9f4       _GetImageBase              000000018001b9f4 f   libvcruntime:trnsctrl.obj
 0001:0001aa08       _GetThrowImageBase         000000018001ba08 f   libvcruntime:trnsctrl.obj
 0001:0001aa1c       _IsExceptionObjectToBeDestroyed 000000018001ba1c f   libvcruntime:trnsctrl.obj
 0001:0001aa4c       _SetImageBase              000000018001ba4c f   libvcruntime:trnsctrl.obj
 0001:0001aa64       _SetThrowImageBase         000000018001ba64 f   libvcruntime:trnsctrl.obj
 0001:0001aa7c       _UnwindNestedFrames        000000018001ba7c f   libvcruntime:trnsctrl.obj
 0001:0001aba0       __CxxFrameHandler3         000000018001bba0 f   libvcruntime:trnsctrl.obj
 0001:0001ac20       __except_validate_context_record 000000018001bc20 f   libvcruntime:jbcxrval.obj
 0001:0001ac40       _local_unwind              000000018001bc40 f   libvcruntime:_jmpuwind_.obj
 0001:0001ac70       _NLG_Notify                000000018001bc70 f   libvcruntime:_jmpuwind_.obj
 0001:0001ac90       __NLG_Dispatch2            000000018001bc90 f   libvcruntime:_jmpuwind_.obj
 0001:0001aca0       __NLG_Return2              000000018001bca0 f   libvcruntime:_jmpuwind_.obj
 0001:0001aca4       __vcrt_initialize_locks    000000018001bca4 f   libvcruntime:locks.obj
 0001:0001acec       __vcrt_uninitialize_locks  000000018001bcec f   libvcruntime:locks.obj
 0001:0001aeec       __vcrt_FlsAlloc            000000018001beec f   libvcruntime:winapi_downlevel.obj
 0001:0001af40       __vcrt_FlsFree             000000018001bf40 f   libvcruntime:winapi_downlevel.obj
 0001:0001af94       __vcrt_FlsGetValue         000000018001bf94 f   libvcruntime:winapi_downlevel.obj
 0001:0001afe8       __vcrt_FlsSetValue         000000018001bfe8 f   libvcruntime:winapi_downlevel.obj
 0001:0001b050       __vcrt_InitializeCriticalSectionEx 000000018001c050 f   libvcruntime:winapi_downlevel.obj
 0001:0001b0c8       __vcrt_initialize_winapi_thunks 000000018001c0c8 f   libvcruntime:winapi_downlevel.obj
 0001:0001b114       __vcrt_uninitialize_winapi_thunks 000000018001c114 f   libvcruntime:winapi_downlevel.obj
 0001:0001b154       __vcrt_initialize_pure_virtual_call_handler 000000018001c154 f   libvcruntime:purevirt_data.obj
 0001:0001b178       ??0_LocaleUpdate@@QEAA@QEAU__crt_locale_pointers@@@Z 000000018001c178 f i libucrt:wcsicmp.obj
 0001:0001b208       _wcsicmp                   000000018001c208 f   libucrt:wcsicmp.obj
 0001:0001b290       _wcsicmp_l                 000000018001c290 f   libucrt:wcsicmp.obj
 0001:0001b380       _wcsnicmp                  000000018001c380 f   libucrt:wcsnicmp.obj
 0001:0001b41c       _wcsnicmp_l                000000018001c41c f   libucrt:wcsnicmp.obj
 0001:0001b534       ??$is_overflow_condition@K@__crt_strtox@@YA_NIK@Z 000000018001c534 f i libucrt:atox.obj
 0001:0001b560       ??$make_c_string_character_source@D$$T@__crt_strtox@@YA?AV?$c_string_character_source@D@0@QEBD$$T@Z 000000018001c560 f i libucrt:atox.obj
 0001:0001b574       ??$parse_integer@KV?$c_string_character_source@D@__crt_strtox@@@__crt_strtox@@YAKQEAU__crt_locale_pointers@@V?$c_string_character_source@D@0@H_N@Z 000000018001c574 f i libucrt:atox.obj
 0001:0001b888       ??$parse_integer@KV?$c_string_character_source@_W@__crt_strtox@@@__crt_strtox@@YAKQEAU__crt_locale_pointers@@V?$c_string_character_source@_W@0@H_N@Z 000000018001c888 f i libucrt:atox.obj
 0001:0001bf5c       atoi                       000000018001cf5c f   libucrt:atox.obj
 0001:0001bf88       __ascii_stricmp            000000018001cf88 f   libucrt:stricmp.obj
 0001:0001bfc4       _stricmp                   000000018001cfc4 f   libucrt:stricmp.obj
 0001:0001c00c       _stricmp_l                 000000018001d00c f   libucrt:stricmp.obj
 0001:0001c274       ??$ensure_buffer_is_big_enough@D@formatting_buffer@__crt_stdio_output@@QEAA_N_K@Z 000000018001d274 f i libucrt:output.obj
 0001:0001c320       ??$is_wide_character_specifier@_W@__crt_stdio_output@@YA_N_K_WW4length_modifier@0@@Z 000000018001d320 f i libucrt:output.obj
 0001:0001c364       ??$type_case_integer_parse_into_buffer@I@?$output_processor@_WV?$string_output_adapter@_W@__crt_stdio_output@@V?$format_validation_base@_WV?$string_output_adapter@_W@__crt_stdio_output@@@2@@__crt_stdio_output@@AEAAXII_N@Z 000000018001d364 f i libucrt:output.obj
 0001:0001c400       ??$type_case_integer_parse_into_buffer@_K@?$output_processor@_WV?$string_output_adapter@_W@__crt_stdio_output@@V?$format_validation_base@_WV?$string_output_adapter@_W@__crt_stdio_output@@@2@@__crt_stdio_output@@AEAAX_KI_N@Z 000000018001d400 f i libucrt:output.obj
 0001:0001c49c       ??$write_multiple_characters@V?$string_output_adapter@_W@__crt_stdio_output@@D@__crt_stdio_output@@YAXAEBV?$string_output_adapter@_W@0@DHQEAH@Z 000000018001d49c f i libucrt:output.obj
 0001:0001c50c       ??0?$output_processor@_WV?$string_output_adapter@_W@__crt_stdio_output@@V?$format_validation_base@_WV?$string_output_adapter@_W@__crt_stdio_output@@@2@@__crt_stdio_output@@QEAA@AEBV?$string_output_adapter@_W@1@_KQEB_WQEAU__crt_locale_pointers@@QEAD@Z 000000018001d50c f i libucrt:output.obj
 0001:0001c58c       ?force_decimal_point@__crt_stdio_output@@YAXPEADQEAU__crt_locale_pointers@@@Z 000000018001d58c f i libucrt:output.obj
 0001:0001c5fc       ?parse_int_from_format_string@?$output_processor@_WV?$string_output_adapter@_W@__crt_stdio_output@@V?$format_validation_base@_WV?$string_output_adapter@_W@__crt_stdio_output@@@2@@__crt_stdio_output@@AEAA_NQEAH@Z 000000018001d5fc f i libucrt:output.obj
 0001:0001c67c       ?process@?$output_processor@_WV?$string_output_adapter@_W@__crt_stdio_output@@V?$format_validation_base@_WV?$string_output_adapter@_W@__crt_stdio_output@@@2@@__crt_stdio_output@@QEAAHXZ 000000018001d67c f i libucrt:output.obj
 0001:0001c904       ?state_case_size@?$output_processor@_WV?$string_output_adapter@_W@__crt_stdio_output@@V?$format_validation_base@_WV?$string_output_adapter@_W@__crt_stdio_output@@@2@@__crt_stdio_output@@AEAA_NXZ 000000018001d904 f i libucrt:output.obj
 0001:0001caa8       ?state_case_type@?$output_processor@_WV?$string_output_adapter@_W@__crt_stdio_output@@V?$format_validation_base@_WV?$string_output_adapter@_W@__crt_stdio_output@@@2@@__crt_stdio_output@@AEAA_NXZ 000000018001daa8 f i libucrt:output.obj
 0001:0001cd74       ?type_case_Z@?$output_processor@_WV?$string_output_adapter@_W@__crt_stdio_output@@V?$format_validation_base@_WV?$string_output_adapter@_W@__crt_stdio_output@@@2@@__crt_stdio_output@@AEAA_NXZ 000000018001dd74 f i libucrt:output.obj
 0001:0001cdf4       ?type_case_a@?$output_processor@_WV?$string_output_adapter@_W@__crt_stdio_output@@V?$format_validation_base@_WV?$string_output_adapter@_W@__crt_stdio_output@@@2@@__crt_stdio_output@@AEAA_NXZ 000000018001ddf4 f i libucrt:output.obj
 0001:0001d038       ?type_case_c_tchar@?$output_processor@_WV?$string_output_adapter@_W@__crt_stdio_output@@V?$format_validation_base@_WV?$string_output_adapter@_W@__crt_stdio_output@@@2@@__crt_stdio_output@@AEAA_N_W@Z 000000018001e038 f i libucrt:output.obj
 0001:0001d0e0       ?type_case_integer@?$output_processor@_WV?$string_output_adapter@_W@__crt_stdio_output@@V?$format_validation_base@_WV?$string_output_adapter@_W@__crt_stdio_output@@@2@@__crt_stdio_output@@AEAA_NI_N@Z 000000018001e0e0 f i libucrt:output.obj
 0001:0001d280       ?type_case_n@?$output_processor@_WV?$string_output_adapter@_W@__crt_stdio_output@@V?$format_validation_base@_WV?$string_output_adapter@_W@__crt_stdio_output@@@2@@__crt_stdio_output@@AEAA_NXZ 000000018001e280 f i libucrt:output.obj
 0001:0001d35c       ?type_case_s@?$output_processor@_WV?$string_output_adapter@_W@__crt_stdio_output@@V?$format_validation_base@_WV?$string_output_adapter@_W@__crt_stdio_output@@@2@@__crt_stdio_output@@AEAA_NXZ 000000018001e35c f i libucrt:output.obj
 0001:0001d424       ?write_stored_string_tchar@?$output_processor@_WV?$string_output_adapter@_W@__crt_stdio_output@@V?$format_validation_base@_WV?$string_output_adapter@_W@__crt_stdio_output@@@2@@__crt_stdio_output@@AEAA_N_W@Z 000000018001e424 f i libucrt:output.obj
 0001:0001d514       ?write_string@?$string_output_adapter@_W@__crt_stdio_output@@QEBAXQEB_WHQEAH1@Z 000000018001e514 f i libucrt:output.obj
 0001:0001d5d4       __stdio_common_vswprintf_s 000000018001e5d4 f   libucrt:output.obj
 0001:0001d644       wcscat_s                   000000018001e644 f   libucrt:wcscat_s.obj
 0001:0001d6c4       strncpy_s                  000000018001e6c4 f   libucrt:strncpy_s.obj
 0001:0001d798       __acrt_call_reportfault    000000018001e798 f   libucrt:invalid_parameter.obj
 0001:0001d8f4       __acrt_initialize_invalid_parameter_handler 000000018001e8f4 f   libucrt:invalid_parameter.obj
 0001:0001d8fc       _invalid_parameter         000000018001e8fc f   libucrt:invalid_parameter.obj
 0001:0001d9a4       _invalid_parameter_noinfo  000000018001e9a4 f   libucrt:invalid_parameter.obj
 0001:0001d9c4       _invalid_parameter_noinfo_noreturn 000000018001e9c4 f   libucrt:invalid_parameter.obj
 0001:0001d9f4       _invoke_watson             000000018001e9f4 f   libucrt:invalid_parameter.obj
 0001:0001da3c       isalnum                    000000018001ea3c f i libucrt:_ctype.obj
 0001:0001dab8       isdigit                    000000018001eab8 f i libucrt:_ctype.obj
 0001:0001db7c       _tolower_l                 000000018001eb7c f   libucrt:tolower_toupper.obj
 0001:0001dcbc       tolower                    000000018001ecbc f   libucrt:tolower_toupper.obj
 0001:0001dce8       strcpy_s                   000000018001ece8 f   libucrt:strcpy_s.obj
 0001:0001dd48       ??$make_c_string_character_source@DPEAPEAD@__crt_strtox@@YA?AV?$c_string_character_source@D@0@QEBDQEAPEAD@Z 000000018001ed48 f i libucrt:strtox.obj
 0001:0001dd5c       ??$make_c_string_character_source@_WPEAPEA_W@__crt_strtox@@YA?AV?$c_string_character_source@_W@0@QEB_WQEAPEA_W@Z 000000018001ed5c f i libucrt:strtox.obj
 0001:0001dd70       strtoul                    000000018001ed70 f   libucrt:strtox.obj
 0001:0001dda0       wcstol                     000000018001eda0 f   libucrt:strtox.obj
 0001:0001ddd0       wcstoul                    000000018001edd0 f   libucrt:strtox.obj
 0001:0001de00       wcscpy_s                   000000018001ee00 f   libucrt:wcscpy_s.obj
 0001:0001de68       __acrt_initialize_new_handler 000000018001ee68 f   libucrt:new_handler.obj
 0001:0001de70       _callnewh                  000000018001ee70 f   libucrt:new_handler.obj
 0001:0001deb0       _query_new_handler         000000018001eeb0 f   libucrt:new_handler.obj
 0001:0001dee4       malloc                     000000018001eee4 f   libucrt:malloc.obj
 0001:0001deec       terminate                  000000018001eeec f   libucrt:terminate.obj
 0001:0001df14       free                       000000018001ef14 f   libucrt:free.obj
 0001:0001df1c       _initterm                  000000018001ef1c f   libucrt:initterm.obj
 0001:0001df94       _initterm_e                000000018001ef94 f   libucrt:initterm.obj
 0001:0001dfe0       _seh_filter_dll            000000018001efe0 f   libucrt:exception_filter.obj
 0001:0001dff4       _seh_filter_exe            000000018001eff4 f   libucrt:exception_filter.obj
 0001:0001e3b4       __acrt_initialize_thread_local_exit_callback 000000018001f3b4 f   libucrt:exit.obj
 0001:0001e3bc       _cexit                     000000018001f3bc f   libucrt:exit.obj
 0001:0001e3cc       _exit                      000000018001f3cc f   libucrt:exit.obj
 0001:0001e3d8       _is_c_termination_complete 000000018001f3d8 f   libucrt:exit.obj
 0001:0001e59c       __acrt_allocate_buffer_for_argv 000000018001f59c f   libucrt:argv_parsing.obj
 0001:0001e600       _configure_narrow_argv     000000018001f600 f   libucrt:argv_parsing.obj
 0001:0001e9a0       __dcrt_uninitialize_environments_nolock 000000018001f9a0 f   libucrt:environment_initialization.obj
 0001:0001e9d8       _initialize_narrow_environment 000000018001f9d8 f   libucrt:environment_initialization.obj
 0001:0001e9e0       ??$?RV<lambda_b8c45f8f788dd370798f47cfe8ac3a86>@@AEAV<lambda_4e60a939b0d047cfe11ddc22648dfba9>@@V<lambda_332c3edc96d0294ec56c57d38c1cdfd5>@@@?$__crt_seh_guarded_call@H@@QEAAH$$QEAV<lambda_b8c45f8f788dd370798f47cfe8ac3a86>@@AEAV<lambda_4e60a939b0d047cfe11ddc22648dfba9>@@$$QEAV<lambda_332c3edc96d0294ec56c57d38c1cdfd5>@@@Z 000000018001f9e0 f i libucrt:onexit.obj
 0001:0001ea1c       ??$?RV<lambda_e24bbb7b643b32fcea6fa61b31d4c984>@@AEAV<lambda_275893d493268fdec8709772e3fcec0e>@@V<lambda_9d71df4d7cf3f480f8d633942495c3b0>@@@?$__crt_seh_guarded_call@H@@QEAAH$$QEAV<lambda_e24bbb7b643b32fcea6fa61b31d4c984>@@AEAV<lambda_275893d493268fdec8709772e3fcec0e>@@$$QEAV<lambda_9d71df4d7cf3f480f8d633942495c3b0>@@@Z 000000018001fa1c f i libucrt:onexit.obj
 0001:0001ed98       _crt_atexit                000000018001fd98 f   libucrt:onexit.obj
 0001:0001eda8       _execute_onexit_table      000000018001fda8 f   libucrt:onexit.obj
 0001:0001ede4       _initialize_onexit_table   000000018001fde4 f   libucrt:onexit.obj
 0001:0001ee24       _register_onexit_function  000000018001fe24 f   libucrt:onexit.obj
 0001:0001efb4       __acrt_initialize          000000018001ffb4 f   libucrt:initialization.obj
 0001:0001efc8       __acrt_thread_attach       000000018001ffc8 f   libucrt:initialization.obj
 0001:0001efdc       __acrt_thread_detach       000000018001ffdc f   libucrt:initialization.obj
 0001:0001efec       __acrt_uninitialize        000000018001ffec f   libucrt:initialization.obj
 0001:0001f000       __acrt_uninitialize_critical 0000000180020000 f   libucrt:initialization.obj
 0001:0001f010       _free_base                 0000000180020010 f   libucrt:free_base.obj
 0001:0001f050       _malloc_base               0000000180020050 f   libucrt:malloc_base.obj
 0001:0001f0b0       abort                      00000001800200b0 f   libucrt:abort.obj
 0001:0001f108       _calloc_base               0000000180020108 f   libucrt:calloc_base.obj
 0001:0001f180       __acrt_errno_from_os_error 0000000180020180 f   libucrt:errno.obj
 0001:0001f1c8       __acrt_errno_map_os_error  00000001800201c8 f   libucrt:errno.obj
 0001:0001f218       __doserrno                 0000000180020218 f   libucrt:errno.obj
 0001:0001f238       _errno                     0000000180020238 f   libucrt:errno.obj
 0001:0001f258       _towlower_l                0000000180020258 f   libucrt:towlower.obj
 0001:0001f31c       ??$?RV<lambda_46352004c1216016012b18bd6f87e700>@@AEAV<lambda_3bd07e1a1191394380780325891bf33f>@@V<lambda_334532d3f185bcaa59b5be82d7d22bff>@@@?$__crt_seh_guarded_call@X@@QEAAX$$QEAV<lambda_46352004c1216016012b18bd6f87e700>@@AEAV<lambda_3bd07e1a1191394380780325891bf33f>@@$$QEAV<lambda_334532d3f185bcaa59b5be82d7d22bff>@@@Z 000000018002031c f i libucrt:per_thread_data.obj
 0001:0001f37c       ??$?RV<lambda_5e887d1dcbef67a5eb4283622ba103bf>@@AEAV<lambda_4466841279450cc726390878d4a41900>@@V<lambda_341c25c0346d94847f1f3c463c57e077>@@@?$__crt_seh_guarded_call@X@@QEAAX$$QEAV<lambda_5e887d1dcbef67a5eb4283622ba103bf>@@AEAV<lambda_4466841279450cc726390878d4a41900>@@$$QEAV<lambda_341c25c0346d94847f1f3c463c57e077>@@@Z 000000018002037c f i libucrt:per_thread_data.obj
 0001:0001f3c4       ??$?RV<lambda_72d1df2b273a38828b1ce30cbf4cdab5>@@AEAV<lambda_876a65b173b8412d3a47c70a915b0cf4>@@V<lambda_41932305e351933ebe8f8be3ed8bb5dc>@@@?$__crt_seh_guarded_call@X@@QEAAX$$QEAV<lambda_72d1df2b273a38828b1ce30cbf4cdab5>@@AEAV<lambda_876a65b173b8412d3a47c70a915b0cf4>@@$$QEAV<lambda_41932305e351933ebe8f8be3ed8bb5dc>@@@Z 00000001800203c4 f i libucrt:per_thread_data.obj
 0001:0001f404       ??$?RV<lambda_fb3a7dec4e47f37f22dae91bb15c9095>@@AEAV<lambda_698284760c8add0bfb0756c19673e34b>@@V<lambda_dfb8eca1e75fef3034a8fb18dd509707>@@@?$__crt_seh_guarded_call@X@@QEAAX$$QEAV<lambda_fb3a7dec4e47f37f22dae91bb15c9095>@@AEAV<lambda_698284760c8add0bfb0756c19673e34b>@@$$QEAV<lambda_dfb8eca1e75fef3034a8fb18dd509707>@@@Z 0000000180020404 f i libucrt:per_thread_data.obj
 0001:0001f694       __acrt_freeptd             0000000180020694 f   libucrt:per_thread_data.obj
 0001:0001f6d8       __acrt_getptd              00000001800206d8 f   libucrt:per_thread_data.obj
 0001:0001f76c       __acrt_getptd_noexit       000000018002076c f   libucrt:per_thread_data.obj
 0001:0001f80c       __acrt_initialize_ptd      000000018002080c f   libucrt:per_thread_data.obj
 0001:0001f848       __acrt_uninitialize_ptd    0000000180020848 f   libucrt:per_thread_data.obj
 0001:0001f86c       __acrt_update_locale_info  000000018002086c f   libucrt:locale_update.obj
 0001:0001f8a0       __acrt_update_multibyte_info 00000001800208a0 f   libucrt:locale_update.obj
 0001:0001f8d4       __acrt_set_locale_changed  00000001800208d4 f   libucrt:wsetlocale.obj
 0001:0001f8e0       __acrt_uninitialize_locale 00000001800208e0 f   libucrt:wsetlocale.obj
 0001:0001f928       __pctype_func              0000000180020928 f   libucrt:ctype.obj
 0001:0001f958       iswctype                   0000000180020958 f   libucrt:iswctype.obj
 0001:0001f9c8       _isctype_l                 00000001800209c8 f   libucrt:isctype.obj
 0001:0001fad8       _mbtowc_l                  0000000180020ad8 f   libucrt:mbtowc.obj
 0001:0001fc20       mbtowc                     0000000180020c20 f   libucrt:mbtowc.obj
 0001:0001fc28       wcsnlen                    0000000180020c28 f   libucrt:strnlen.obj
 0001:0001fe18       ?__acrt_fp_classify@@YA?AW4__acrt_fp_class@@AEBN@Z 0000000180020e18 f i libucrt:cvt.obj
 0001:00020850       __acrt_fp_format           0000000180021850 f   libucrt:cvt.obj
 0001:00020a94       _fileno                    0000000180021a94 f   libucrt:fileno.obj
 0001:00020abc       __acrt_initialize_stdio    0000000180021abc f   libucrt:_file.obj
 0001:00020bdc       __acrt_uninitialize_stdio  0000000180021bdc f   libucrt:_file.obj
 0001:00020c38       _lock_file                 0000000180021c38 f   libucrt:_file.obj
 0001:00020c44       _unlock_file               0000000180021c44 f   libucrt:_file.obj
 0001:00020c50       _get_printf_count_output   0000000180021c50 f   libucrt:printf_count_output.obj
 0001:00020e50       __acrt_initialize_lowio    0000000180021e50 f   libucrt:ioinit.obj
 0001:00020e8c       __acrt_uninitialize_lowio  0000000180021e8c f   libucrt:ioinit.obj
 0001:00020ecc       _isleadbyte_l              0000000180021ecc f i libucrt:_wctype.obj
 0001:00021268       __acrt_LCMapStringA        0000000180022268 f   libucrt:lcmapstringa.obj
 0001:00021300       __acrt_initialize_locks    0000000180022300 f   libucrt:locks.obj
 0001:00021348       __acrt_lock                0000000180022348 f   libucrt:locks.obj
 0001:00021364       __acrt_uninitialize_locks  0000000180022364 f   libucrt:locks.obj
 0001:0002139c       __acrt_unlock              000000018002239c f   libucrt:locks.obj
 0001:00021558       __acrt_FlsAlloc            0000000180022558 f   libucrt:winapi_thunks.obj
 0001:000215b0       __acrt_FlsFree             00000001800225b0 f   libucrt:winapi_thunks.obj
 0001:00021608       __acrt_FlsGetValue         0000000180022608 f   libucrt:winapi_thunks.obj
 0001:00021660       __acrt_FlsSetValue         0000000180022660 f   libucrt:winapi_thunks.obj
 0001:000216c8       __acrt_InitializeCriticalSectionEx 00000001800226c8 f   libucrt:winapi_thunks.obj
 0001:00021740       __acrt_LCMapStringEx       0000000180022740 f   libucrt:winapi_thunks.obj
 0001:00021830       __acrt_LocaleNameToLCID    0000000180022830 f   libucrt:winapi_thunks.obj
 0001:00021898       __acrt_initialize_winapi_thunks 0000000180022898 f   libucrt:winapi_thunks.obj
 0001:000218d0       __acrt_is_packaged_app     00000001800228d0 f   libucrt:winapi_thunks.obj
 0001:00021958       __acrt_uninitialize_winapi_thunks 0000000180022958 f   libucrt:winapi_thunks.obj
 0001:00021e78       ?expand_if_necessary@?$argument_list@D@?A0xca0879c4@@AEAAHXZ 0000000180022e78 f i libucrt:argv_wildcards.obj
 0001:00021f40       __acrt_expand_narrow_argv_wildcards 0000000180022f40 f   libucrt:argv_wildcards.obj
 0001:00021f48       ??$?RV<lambda_99476a1ad63dd22509b5d3e65b0ffc95>@@AEAV<lambda_ad1ced32f4ac17aa236e5ef05d6b3b7c>@@V<lambda_f7424dd8d45958661754dc4f2697e9c3>@@@?$__crt_seh_guarded_call@X@@QEAAX$$QEAV<lambda_99476a1ad63dd22509b5d3e65b0ffc95>@@AEAV<lambda_ad1ced32f4ac17aa236e5ef05d6b3b7c>@@$$QEAV<lambda_f7424dd8d45958661754dc4f2697e9c3>@@@Z 0000000180022f48 f i libucrt:mbctype.obj
 0001:00022644       __acrt_initialize_multibyte 0000000180023644 f   libucrt:mbctype.obj
 0001:0002266c       __acrt_update_thread_multibyte_data 000000018002366c f   libucrt:mbctype.obj
 0001:0002272c       _setmbcp_nolock            000000018002372c f   libucrt:mbctype.obj
 0001:00022a4c       _ismbblead                 0000000180023a4c f   libucrt:ismbbyte.obj
 0001:00022a60       __acrt_initialize_command_line 0000000180023a60 f   libucrt:argv_data.obj
 0001:00022a88       __acrt_uninitialize_command_line 0000000180023a88 f   libucrt:argv_data.obj
 0001:00022a8c       __dcrt_get_narrow_environment_from_os 0000000180023a8c f   libucrt:get_environment_from_os.obj
 0001:00022b90       _recalloc                  0000000180023b90 f   libucrt:recalloc.obj
 0001:00022b98       _recalloc_base             0000000180023b98 f   libucrt:recalloc.obj
 0001:00022c30       __acrt_initialize_heap     0000000180023c30 f   libucrt:heap_handle.obj
 0001:00022c4c       __acrt_uninitialize_heap   0000000180023c4c f   libucrt:heap_handle.obj
 0001:00022c58       __acrt_execute_initializers 0000000180023c58 f   libucrt:shared_initialization.obj
 0001:00022cec       __acrt_execute_uninitializers 0000000180023cec f   libucrt:shared_initialization.obj
 0001:00022d3c       ??$?RV<lambda_c36588078e9f5dfd39652860aa6b3aaf>@@AEAV<lambda_ec61778202f4f5fc7e7711acc23c3bca>@@V<lambda_dc9d2797ccde5d239b4a0efae8ebd7db>@@@?$__crt_seh_guarded_call@P6AXH@Z@@QEAAP6AXH@Z$$QEAV<lambda_c36588078e9f5dfd39652860aa6b3aaf>@@AEAV<lambda_ec61778202f4f5fc7e7711acc23c3bca>@@$$QEAV<lambda_dc9d2797ccde5d239b4a0efae8ebd7db>@@@Z 0000000180023d3c f i libucrt:signal.obj
 0001:00022d84       __acrt_get_sigabrt_handler 0000000180023d84 f   libucrt:signal.obj
 0001:00022db4       __acrt_initialize_signal_handlers 0000000180023db4 f   libucrt:signal.obj
 0001:00022dd4       raise                      0000000180023dd4 f   libucrt:signal.obj
 0001:00023070       __acrt_has_user_matherr    0000000180024070 f   libucrt:matherr.obj
 0001:00023090       __acrt_initialize_user_matherr 0000000180024090 f   libucrt:matherr.obj
 0001:00023098       __acrt_invoke_user_matherr 0000000180024098 f   libucrt:matherr.obj
 0001:000230e0       _query_new_mode            00000001800240e0 f   libucrt:new_mode.obj
 0001:000230e8       __acrt_LCMapStringW        00000001800240e8 f   libucrt:lcmapstringw.obj
 0001:00023170       __acrt_add_locale_ref      0000000180024170 f   libucrt:locale_refcounting.obj
 0001:000231fc       __acrt_free_locale         00000001800241fc f   libucrt:locale_refcounting.obj
 0001:00023374       __acrt_locale_add_lc_time_reference 0000000180024374 f   libucrt:locale_refcounting.obj
 0001:0002339c       __acrt_locale_free_lc_time_if_unreferenced 000000018002439c f   libucrt:locale_refcounting.obj
 0001:000233d4       __acrt_locale_release_lc_time_reference 00000001800243d4 f   libucrt:locale_refcounting.obj
 0001:000233fc       __acrt_release_locale_ref  00000001800243fc f   libucrt:locale_refcounting.obj
 0001:000234a4       __acrt_update_thread_locale_data 00000001800244a4 f   libucrt:locale_refcounting.obj
 0001:00023514       _updatetlocinfoEx_nolock   0000000180024514 f   libucrt:locale_refcounting.obj
 0001:0002357c       __acrt_locale_free_monetary 000000018002457c f   libucrt:initmon.obj
 0001:00023688       __acrt_locale_free_numeric 0000000180024688 f   libucrt:initnum.obj
 0001:0002374c       __acrt_locale_free_time    000000018002474c f   libucrt:inittime.obj
 0001:00023854       __acrt_GetStringTypeA      0000000180024854 f   libucrt:getstringtypea.obj
 0001:00023a08       __acrt_fp_strflt_to_string 0000000180024a08 f   libucrt:_fptostr.obj
 0001:00023ad0       ?divide@__crt_strtox@@YA_KAEAUbig_integer@1@AEBU21@@Z 0000000180024ad0 f i libucrt:cfout.obj
 0001:00023fa0       __acrt_fltout              0000000180024fa0 f   libucrt:cfout.obj
 0001:00025394       _fcloseall                 0000000180026394 f   libucrt:closeall.obj
 0001:00025448       __acrt_stdio_flush_nolock  0000000180026448 f   libucrt:fflush.obj
 0001:000254c0       _fflush_nolock             00000001800264c0 f   libucrt:fflush.obj
 0001:0002550c       _flushall                  000000018002650c f   libucrt:fflush.obj
 0001:000255fc       __acrt_stdio_free_buffer_nolock 00000001800265fc f   libucrt:_freebuf.obj
 0001:0002563c       _isatty                    000000018002663c f   libucrt:isatty.obj
 0001:0002569c       __acrt_lowio_create_handle_array 000000018002669c f   libucrt:osfinfo.obj
 0001:00025734       __acrt_lowio_destroy_handle_array 0000000180026734 f   libucrt:osfinfo.obj
 0001:00025784       __acrt_lowio_ensure_fh_exists 0000000180026784 f   libucrt:osfinfo.obj
 0001:0002583c       __acrt_lowio_lock_fh       000000018002683c f   libucrt:osfinfo.obj
 0001:00025860       __acrt_lowio_unlock_fh     0000000180026860 f   libucrt:osfinfo.obj
 0001:00025884       _free_osfhnd               0000000180026884 f   libucrt:osfinfo.obj
 0001:00025940       _get_osfhandle             0000000180026940 f   libucrt:osfinfo.obj
 0001:000259b8       __strncnt                  00000001800269b8 f   libucrt:strncnt.obj
 0001:00025a98       __acrt_DownlevelLocaleNameToLCID 0000000180026a98 f   libucrt:lcidtoname_downlevel.obj
 0001:00025ba0       qsort                      0000000180026ba0 f   libucrt:qsort.obj
 0001:00025ed4       strpbrk                    0000000180026ed4 f   libucrt:strpbrk.obj
 0001:00025f74       _mbsdec                    0000000180026f74 f   libucrt:mbsdec.obj
 0001:00025f7c       _mbsdec_l                  0000000180026f7c f   libucrt:mbsdec.obj
 0001:0002602c       _msize                     000000018002702c f   libucrt:msize.obj
 0001:00026068       _realloc_base              0000000180027068 f   libucrt:realloc_base.obj
 0001:000260ec       fegetenv                   00000001800270ec f   libucrt:fegetenv.obj
 0001:0002610c       fesetenv                   000000018002710c f   libucrt:fesetenv.obj
 0001:00026158       feholdexcept               0000000180027158 f   libucrt:feholdexcept.obj
 0001:000261a8       ceil                       00000001800271a8 f   libucrt:ceil.obj
 0001:00026270       log10                      0000000180027270 f   libucrt:log10.obj
 0001:00026dbc       _write                     0000000180027dbc f   libucrt:write.obj
 0001:00026ea8       _write_nolock              0000000180027ea8 f   libucrt:write.obj
 0001:00027228       _lseeki64_nolock           0000000180028228 f   libucrt:lseek.obj
 0001:00027230       _fclose_nolock             0000000180028230 f   libucrt:fclose.obj
 0001:000272b4       fclose                     00000001800282b4 f   libucrt:fclose.obj
 0001:00027320       ??$?RV<lambda_b521505b218e5242e90febf6bfebc422>@@AEAV<lambda_6978c1fb23f02e42e1d9e99668cc68aa>@@V<lambda_314360699dd331753a4119843814e9a7>@@@?$__crt_seh_guarded_call@H@@QEAAH$$QEAV<lambda_b521505b218e5242e90febf6bfebc422>@@AEAV<lambda_6978c1fb23f02e42e1d9e99668cc68aa>@@$$QEAV<lambda_314360699dd331753a4119843814e9a7>@@@Z 0000000180028320 f i libucrt:commit.obj
 0001:000273ac       _commit                    00000001800283ac f   libucrt:commit.obj
 0001:00027440       _query_app_type            0000000180028440 f   libucrt:report_runtime_error.obj
 0001:00027448       _getfpcontrolword          0000000180028448 f   libucrt:_fenvutils.obj
 0001:00027460       _getfpstatusword           0000000180028460 f   libucrt:_fenvutils.obj
 0001:00027474       _setfpcontrolword          0000000180028474 f   libucrt:_fenvutils.obj
 0001:00027480       _setfpstatusword           0000000180028480 f   libucrt:_fenvutils.obj
 0001:000274d0       _clearfp                   00000001800284d0 f   libucrt:ieee.obj
 0001:00027524       _controlfp                 0000000180028524 f   libucrt:ieee.obj
 0001:00027530       _statusfp                  0000000180028530 f   libucrt:ieee.obj
 0001:00027934       _handle_error              0000000180028934 f   libucrt:libm_error.obj
 0001:00027a5c       _handle_nan                0000000180028a5c f   libucrt:libm_error.obj
 0001:00027a80       __acrt_initialize_fma3     0000000180028a80 f   libucrt:fma3_available.obj
 0001:00027af0       _log10_special             0000000180028af0 f   libucrt:log_special.obj
 0001:00027ba8       _putwch_nolock             0000000180028ba8 f   libucrt:putwch.obj
 0001:00027c04       ??$?RV<lambda_bfedae4ebbf01fab1bb6dcc6a9e276e0>@@AEAV<lambda_2fe9b910cf3cbf4a0ab98a02ba45b3ec>@@V<lambda_237c231691f317818eb88cc1d5d642d6>@@@?$__crt_seh_guarded_call@H@@QEAAH$$QEAV<lambda_bfedae4ebbf01fab1bb6dcc6a9e276e0>@@AEAV<lambda_2fe9b910cf3cbf4a0ab98a02ba45b3ec>@@$$QEAV<lambda_237c231691f317818eb88cc1d5d642d6>@@@Z 0000000180028c04 f i libucrt:close.obj
 0001:00027c78       _close                     0000000180028c78 f   libucrt:close.obj
 0001:00027d1c       _close_nolock              0000000180028d1c f   libucrt:close.obj
 0001:00027dd8       ?__acrt_stdio_free_stream@@YAXV__crt_stdio_stream@@@Z 0000000180028dd8 f   libucrt:stream.obj
 0001:00027e30       _get_fpsr                  0000000180028e30 f   libucrt:fpsr.obj
 0001:00027e40       _set_fpsr                  0000000180028e40 f   libucrt:fpsr.obj
 0001:00027e4a       _fclrf                     0000000180028e4a f   libucrt:fpsr.obj
 0001:00027e5e       _frnd                      0000000180028e5e f   libucrt:fpsr.obj
 0001:00027e80       _raise_exc                 0000000180028e80 f   libucrt:fpexcept.obj
 0001:00027ea8       _raise_exc_ex              0000000180028ea8 f   libucrt:fpexcept.obj
 0001:000281b0       _set_errno_from_matherr    00000001800291b0 f   libucrt:fpexcept.obj
 0001:000281e0       _clrfp                     00000001800291e0 f   libucrt:fpctrl.obj
 0001:00028200       _ctrlfp                    0000000180029200 f   libucrt:fpctrl.obj
 0001:0002827c       _set_statfp                000000018002927c f   libucrt:fpctrl.obj
 0001:0002829c       _statfp                    000000018002929c f   libucrt:fpctrl.obj
 0001:000282b0       __dcrt_lowio_initialize_console_output 00000001800292b0 f   libucrt:initcon.obj
 0001:000282ec       __dcrt_terminate_console_output 00000001800292ec f   libucrt:initcon.obj
 0001:0002830c       IsProcessorFeaturePresent  000000018002930c f   kernel32:KERNEL32.dll
 0001:00028312       RtlUnwindEx                0000000180029312 f   kernel32:KERNEL32.dll
 0001:00028320       _FindPESection             0000000180029320 f   LIBCMT:pesect.obj
 0001:00028370       _IsNonwritableInCurrentImage 0000000180029370 f   LIBCMT:pesect.obj
 0001:000283c0       _ValidateImageBase         00000001800293c0 f   LIBCMT:pesect.obj
 0001:000283f0       __GSHandlerCheck           00000001800293f0 f   LIBCMT:_gshandler_.obj
 0001:00028410       __GSHandlerCheckCommon     0000000180029410 f   LIBCMT:_gshandler_.obj
 0001:00028480       __security_check_cookie    0000000180029480 f   LIBCMT:_amdsecgs_.obj
 0001:000284a4       __raise_securityfailure    00000001800294a4 f   LIBCMT:gs_report.obj
 0001:000284d8       __report_gsfailure         00000001800294d8 f   LIBCMT:gs_report.obj
 0001:000285ac       __report_rangecheckfailure 00000001800295ac f   LIBCMT:gs_report.obj
 0001:000285c0       __report_securityfailure   00000001800295c0 f   LIBCMT:gs_report.obj
 0001:00028750       __chkstk                   0000000180029750 f   LIBCMT:_chkstk_.obj
 0001:00028750       _alloca_probe              0000000180029750 f   LIBCMT:_chkstk_.obj
 0001:000287c0       memcmp                     00000001800297c0 f   libvcruntime:memcmp.obj
 0001:00028888       strrchr                    0000000180029888 f   libvcruntime:strrchr.obj
 0001:000289e0       _guard_dispatch_icall_nop  00000001800299e0 f   LIBCMT:_guard_dispatch_.obj
 0002:00000000       __imp_GetSystemTimeAsFileTime 000000018002b000     kernel32:KERNEL32.dll
 0002:00000008       __imp_GetModuleHandleA     000000018002b008     kernel32:KERNEL32.dll
 0002:00000010       __imp_CreateEventA         000000018002b010     kernel32:KERNEL32.dll
 0002:00000018       __imp_GetModuleFileNameW   000000018002b018     kernel32:KERNEL32.dll
 0002:00000020       __imp_LoadLibraryA         000000018002b020     kernel32:KERNEL32.dll
 0002:00000028       __imp_TerminateProcess     000000018002b028     kernel32:KERNEL32.dll
 0002:00000030       __imp_GetCurrentProcess    000000018002b030     kernel32:KERNEL32.dll
 0002:00000038       __imp_CreateToolhelp32Snapshot 000000018002b038     kernel32:KERNEL32.dll
 0002:00000040       __imp_Thread32First        000000018002b040     kernel32:KERNEL32.dll
 0002:00000048       __imp_GetCurrentProcessId  000000018002b048     kernel32:KERNEL32.dll
 0002:00000050       __imp_GetCurrentThreadId   000000018002b050     kernel32:KERNEL32.dll
 0002:00000058       __imp_OpenThread           000000018002b058     kernel32:KERNEL32.dll
 0002:00000060       __imp_Thread32Next         000000018002b060     kernel32:KERNEL32.dll
 0002:00000068       __imp_CloseHandle          000000018002b068     kernel32:KERNEL32.dll
 0002:00000070       __imp_SuspendThread        000000018002b070     kernel32:KERNEL32.dll
 0002:00000078       __imp_ResumeThread         000000018002b078     kernel32:KERNEL32.dll
 0002:00000080       __imp_WriteProcessMemory   000000018002b080     kernel32:KERNEL32.dll
 0002:00000088       __imp_GetSystemInfo        000000018002b088     kernel32:KERNEL32.dll
 0002:00000090       __imp_VirtualAlloc         000000018002b090     kernel32:KERNEL32.dll
 0002:00000098       __imp_VirtualProtect       000000018002b098     kernel32:KERNEL32.dll
 0002:000000a0       __imp_VirtualFree          000000018002b0a0     kernel32:KERNEL32.dll
 0002:000000a8       __imp_GetProcessAffinityMask 000000018002b0a8     kernel32:KERNEL32.dll
 0002:000000b0       __imp_SetProcessAffinityMask 000000018002b0b0     kernel32:KERNEL32.dll
 0002:000000b8       __imp_GetCurrentThread     000000018002b0b8     kernel32:KERNEL32.dll
 0002:000000c0       __imp_SetThreadAffinityMask 000000018002b0c0     kernel32:KERNEL32.dll
 0002:000000c8       __imp_Sleep                000000018002b0c8     kernel32:KERNEL32.dll
 0002:000000d0       __imp_FreeLibrary          000000018002b0d0     kernel32:KERNEL32.dll
 0002:000000d8       __imp_GetTickCount         000000018002b0d8     kernel32:KERNEL32.dll
 0002:000000e0       __imp_SystemTimeToFileTime 000000018002b0e0     kernel32:KERNEL32.dll
 0002:000000e8       __imp_FileTimeToSystemTime 000000018002b0e8     kernel32:KERNEL32.dll
 0002:000000f0       __imp_GlobalFree           000000018002b0f0     kernel32:KERNEL32.dll
 0002:000000f8       __imp_LocalAlloc           000000018002b0f8     kernel32:KERNEL32.dll
 0002:00000100       __imp_LocalFree            000000018002b100     kernel32:KERNEL32.dll
 0002:00000108       __imp_GetProcAddress       000000018002b108     kernel32:KERNEL32.dll
 0002:00000110       __imp_ExitProcess          000000018002b110     kernel32:KERNEL32.dll
 0002:00000118       __imp_EnterCriticalSection 000000018002b118     kernel32:KERNEL32.dll
 0002:00000120       __imp_LeaveCriticalSection 000000018002b120     kernel32:KERNEL32.dll
 0002:00000128       __imp_InitializeCriticalSection 000000018002b128     kernel32:KERNEL32.dll
 0002:00000130       __imp_DeleteCriticalSection 000000018002b130     kernel32:KERNEL32.dll
 0002:00000138       __imp_GetModuleHandleW     000000018002b138     kernel32:KERNEL32.dll
 0002:00000140       __imp_LoadResource         000000018002b140     kernel32:KERNEL32.dll
 0002:00000148       __imp_MultiByteToWideChar  000000018002b148     kernel32:KERNEL32.dll
 0002:00000150       __imp_FindResourceExW      000000018002b150     kernel32:KERNEL32.dll
 0002:00000158       __imp_FindResourceExA      000000018002b158     kernel32:KERNEL32.dll
 0002:00000160       __imp_WideCharToMultiByte  000000018002b160     kernel32:KERNEL32.dll
 0002:00000168       __imp_GetThreadLocale      000000018002b168     kernel32:KERNEL32.dll
 0002:00000170       __imp_GetUserDefaultLCID   000000018002b170     kernel32:KERNEL32.dll
 0002:00000178       __imp_GetSystemDefaultLCID 000000018002b178     kernel32:KERNEL32.dll
 0002:00000180       __imp_EnumResourceNamesA   000000018002b180     kernel32:KERNEL32.dll
 0002:00000188       __imp_EnumResourceNamesW   000000018002b188     kernel32:KERNEL32.dll
 0002:00000190       __imp_EnumResourceLanguagesA 000000018002b190     kernel32:KERNEL32.dll
 0002:00000198       __imp_EnumResourceLanguagesW 000000018002b198     kernel32:KERNEL32.dll
 0002:000001a0       __imp_EnumResourceTypesA   000000018002b1a0     kernel32:KERNEL32.dll
 0002:000001a8       __imp_EnumResourceTypesW   000000018002b1a8     kernel32:KERNEL32.dll
 0002:000001b0       __imp_CreateFileW          000000018002b1b0     kernel32:KERNEL32.dll
 0002:000001b8       __imp_LoadLibraryW         000000018002b1b8     kernel32:KERNEL32.dll
 0002:000001c0       __imp_GetLastError         000000018002b1c0     kernel32:KERNEL32.dll
 0002:000001c8       __imp_WriteConsoleW        000000018002b1c8     kernel32:KERNEL32.dll
 0002:000001d0       __imp_FlushFileBuffers     000000018002b1d0     kernel32:KERNEL32.dll
 0002:000001d8       __imp_QueryPerformanceCounter 000000018002b1d8     kernel32:KERNEL32.dll
 0002:000001e0       __imp_InitializeSListHead  000000018002b1e0     kernel32:KERNEL32.dll
 0002:000001e8       __imp_RtlCaptureContext    000000018002b1e8     kernel32:KERNEL32.dll
 0002:000001f0       __imp_RtlLookupFunctionEntry 000000018002b1f0     kernel32:KERNEL32.dll
 0002:000001f8       __imp_RtlVirtualUnwind     000000018002b1f8     kernel32:KERNEL32.dll
 0002:00000200       __imp_IsDebuggerPresent    000000018002b200     kernel32:KERNEL32.dll
 0002:00000208       __imp_UnhandledExceptionFilter 000000018002b208     kernel32:KERNEL32.dll
 0002:00000210       __imp_SetUnhandledExceptionFilter 000000018002b210     kernel32:KERNEL32.dll
 0002:00000218       __imp_GetStartupInfoW      000000018002b218     kernel32:KERNEL32.dll
 0002:00000220       __imp_IsProcessorFeaturePresent 000000018002b220     kernel32:KERNEL32.dll
 0002:00000228       __imp_RtlPcToFileHeader    000000018002b228     kernel32:KERNEL32.dll
 0002:00000230       __imp_EncodePointer        000000018002b230     kernel32:KERNEL32.dll
 0002:00000238       __imp_RaiseException       000000018002b238     kernel32:KERNEL32.dll
 0002:00000240       __imp_RtlUnwindEx          000000018002b240     kernel32:KERNEL32.dll
 0002:00000248       __imp_InterlockedFlushSList 000000018002b248     kernel32:KERNEL32.dll
 0002:00000250       __imp_SetLastError         000000018002b250     kernel32:KERNEL32.dll
 0002:00000258       __imp_InitializeCriticalSectionAndSpinCount 000000018002b258     kernel32:KERNEL32.dll
 0002:00000260       __imp_TlsAlloc             000000018002b260     kernel32:KERNEL32.dll
 0002:00000268       __imp_TlsGetValue          000000018002b268     kernel32:KERNEL32.dll
 0002:00000270       __imp_TlsSetValue          000000018002b270     kernel32:KERNEL32.dll
 0002:00000278       __imp_TlsFree              000000018002b278     kernel32:KERNEL32.dll
 0002:00000280       __imp_LoadLibraryExW       000000018002b280     kernel32:KERNEL32.dll
 0002:00000288       __imp_GetModuleHandleExW   000000018002b288     kernel32:KERNEL32.dll
 0002:00000290       __imp_GetModuleFileNameA   000000018002b290     kernel32:KERNEL32.dll
 0002:00000298       __imp_HeapFree             000000018002b298     kernel32:KERNEL32.dll
 0002:000002a0       __imp_HeapAlloc            000000018002b2a0     kernel32:KERNEL32.dll
 0002:000002a8       __imp_GetACP               000000018002b2a8     kernel32:KERNEL32.dll
 0002:000002b0       __imp_GetStringTypeW       000000018002b2b0     kernel32:KERNEL32.dll
 0002:000002b8       __imp_GetStdHandle         000000018002b2b8     kernel32:KERNEL32.dll
 0002:000002c0       __imp_GetFileType          000000018002b2c0     kernel32:KERNEL32.dll
 0002:000002c8       __imp_LCMapStringW         000000018002b2c8     kernel32:KERNEL32.dll
 0002:000002d0       __imp_FindClose            000000018002b2d0     kernel32:KERNEL32.dll
 0002:000002d8       __imp_FindFirstFileExA     000000018002b2d8     kernel32:KERNEL32.dll
 0002:000002e0       __imp_FindNextFileA        000000018002b2e0     kernel32:KERNEL32.dll
 0002:000002e8       __imp_IsValidCodePage      000000018002b2e8     kernel32:KERNEL32.dll
 0002:000002f0       __imp_GetOEMCP             000000018002b2f0     kernel32:KERNEL32.dll
 0002:000002f8       __imp_GetCPInfo            000000018002b2f8     kernel32:KERNEL32.dll
 0002:00000300       __imp_GetCommandLineA      000000018002b300     kernel32:KERNEL32.dll
 0002:00000308       __imp_GetCommandLineW      000000018002b308     kernel32:KERNEL32.dll
 0002:00000310       __imp_GetEnvironmentStringsW 000000018002b310     kernel32:KERNEL32.dll
 0002:00000318       __imp_FreeEnvironmentStringsW 000000018002b318     kernel32:KERNEL32.dll
 0002:00000320       __imp_GetProcessHeap       000000018002b320     kernel32:KERNEL32.dll
 0002:00000328       __imp_SetStdHandle         000000018002b328     kernel32:KERNEL32.dll
 0002:00000330       __imp_HeapSize             000000018002b330     kernel32:KERNEL32.dll
 0002:00000338       __imp_HeapReAlloc          000000018002b338     kernel32:KERNEL32.dll
 0002:00000340       __imp_WriteFile            000000018002b340     kernel32:KERNEL32.dll
 0002:00000348       __imp_GetConsoleCP         000000018002b348     kernel32:KERNEL32.dll
 0002:00000350       __imp_GetConsoleMode       000000018002b350     kernel32:KERNEL32.dll
 0002:00000358       __imp_SetFilePointerEx     000000018002b358     kernel32:KERNEL32.dll
 0002:00000360       \177KERNEL32_NULL_THUNK_DATA 000000018002b360     kernel32:KERNEL32.dll
 0002:00000368       __imp_CharUpperBuffW       000000018002b368     user32:USER32.dll
 0002:00000370       \177USER32_NULL_THUNK_DATA 000000018002b370     user32:USER32.dll
 0002:00000378       __imp_VMProtectDecryptStringA 000000018002b378     VMProtectSDK64:VMProtectSDK64.dll
 0002:00000380       __imp_VMProtectDecryptStringW 000000018002b380     VMProtectSDK64:VMProtectSDK64.dll
 0002:00000388       \177VMProtectSDK64_NULL_THUNK_DATA 000000018002b388     VMProtectSDK64:VMProtectSDK64.dll
 0002:00000390       __guard_check_icall_fptr   000000018002b390     LIBCMT:guard_support.obj
 0002:00000398       __guard_dispatch_icall_fptr 000000018002b398     LIBCMT:guard_support.obj
 0002:000003a0       __xc_a                     000000018002b3a0     LIBCMT:initializers.obj
 0002:000003a8       __xc_z                     000000018002b3a8     LIBCMT:initializers.obj
 0002:000003b0       __xi_a                     000000018002b3b0     LIBCMT:initializers.obj
 0002:000003b8       __acrt_stdio_initializer   000000018002b3b8     libucrt:stdio_initializer.obj
 0002:000003c0       __acrt_multibyte_initializer 000000018002b3c0     libucrt:multibyte_initializer.obj
 0002:000003c8       __acrt_tran_fma3_initializer 000000018002b3c8     libucrt:fma3_initializer.obj
 0002:000003d0       __xi_z                     000000018002b3d0     LIBCMT:initializers.obj
 0002:000003d8       __xp_a                     000000018002b3d8     LIBCMT:initializers.obj
 0002:000003e0       __acrt_locale_terminator   000000018002b3e0     libucrt:locale_initializer.obj
 0002:000003e8       __dcrt_console_output_terminator 000000018002b3e8     libucrt:console_output_initializer.obj
 0002:000003f0       __acrt_stdio_terminator    000000018002b3f0     libucrt:stdio_initializer.obj
 0002:000003f8       __xp_z                     000000018002b3f8     LIBCMT:initializers.obj
 0002:00000400       __xt_a                     000000018002b400     LIBCMT:initializers.obj
 0002:00000408       __xt_z                     000000018002b408     LIBCMT:initializers.obj
 0002:00000418       ??_7exception@std@@6B@     000000018002b418     libcpmt:xthrow.obj
 0002:00000428       ??_C@_0BC@EOODALEL@Unknown?5exception?$AA@ 000000018002b428     libcpmt:xthrow.obj
 0002:00000448       ??_7bad_alloc@std@@6B@     000000018002b448     libcpmt:xthrow.obj
 0002:00000458       ??_C@_0P@GHFPNOJB@bad?5allocation?$AA@ 000000018002b458     libcpmt:xthrow.obj
 0002:00000470       ??_7logic_error@std@@6B@   000000018002b470     libcpmt:xthrow.obj
 0002:00000488       ??_7length_error@std@@6B@  000000018002b488     libcpmt:xthrow.obj
 0002:00000498       _pDefaultRawDllMain        000000018002b498     LIBCMT:dll_dllmain.obj
 0002:00000498       _pRawDllMain               000000018002b498     LIBCMT:dll_dllmain.obj
 0002:000004a8       ??_7type_info@@6B@         000000018002b4a8     LIBCMT:std_type_info_static.obj
 0002:000004b8       ??_7bad_array_new_length@std@@6B@ 000000018002b4b8     LIBCMT:throw_bad_alloc.obj
 0002:000004c8       ??_C@_0BF@KINCDENJ@bad?5array?5new?5length?$AA@ 000000018002b4c8     LIBCMT:throw_bad_alloc.obj
 0002:000004e0       _pDestructExceptionObject  000000018002b4e0     libvcruntime:frame.obj
 0002:000004f0       ??_7bad_exception@std@@6B@ 000000018002b4f0     libvcruntime:frame.obj
 0002:00000500       ??_C@_0O@DPKOEFFH@bad?5exception?$AA@ 000000018002b500     libvcruntime:frame.obj
 0002:00000608       ??_C@_1BC@DNHGCMLG@?$AAa?$AAd?$AAv?$AAa?$AAp?$AAi?$AA3?$AA2?$AA?$AA@ 000000018002b608     libvcruntime:winapi_downlevel.obj
 0002:00000620       ??_C@_1DM@KHCHBNEB@?$AAa?$AAp?$AAi?$AA?9?$AAm?$AAs?$AA?9?$AAw?$AAi?$AAn?$AA?9?$AAc?$AAo?$AAr?$AAe?$AA?9?$AAf?$AAi?$AAb?$AAe?$AAr?$AAs?$AA?9?$AAl?$AA1?$AA?9?$AA1?$AA?9?$AA1?$AA?$AA@ 000000018002b620     libvcruntime:winapi_downlevel.obj
 0002:00000660       ??_C@_1DK@LPPGFMPP@?$AAa?$AAp?$AAi?$AA?9?$AAm?$AAs?$AA?9?$AAw?$AAi?$AAn?$AA?9?$AAc?$AAo?$AAr?$AAe?$AA?9?$AAs?$AAy?$AAn?$AAc?$AAh?$AA?9?$AAl?$AA1?$AA?9?$AA2?$AA?9?$AA0?$AA?$AA@ 000000018002b660     libvcruntime:winapi_downlevel.obj
 0002:000006a0       ??_C@_1BC@GDMECMAK@?$AAk?$AAe?$AAr?$AAn?$AAe?$AAl?$AA3?$AA2?$AA?$AA@ 000000018002b6a0     libvcruntime:winapi_downlevel.obj
 0002:000006c0       ??_C@_08KNHFBNJ@FlsAlloc?$AA@ 000000018002b6c0     libvcruntime:winapi_downlevel.obj
 0002:000006d8       ??_C@_07PEJMOBNF@FlsFree?$AA@ 000000018002b6d8     libvcruntime:winapi_downlevel.obj
 0002:000006e8       ??_C@_0M@GDNOONDI@FlsGetValue?$AA@ 000000018002b6e8     libvcruntime:winapi_downlevel.obj
 0002:00000700       ??_C@_0M@JCPCPOEF@FlsSetValue?$AA@ 000000018002b700     libvcruntime:winapi_downlevel.obj
 0002:00000718       ??_C@_0BM@HCFOFFN@InitializeCriticalSectionEx?$AA@ 000000018002b718     libvcruntime:winapi_downlevel.obj
 0002:00000a60       ??_C@_08EHJDFFNH@__based?$CI?$AA@ 000000018002ba60     libvcruntime:undname.obj
 0002:00000a70       ??_C@_07KOLFKCDI@__cdecl?$AA@ 000000018002ba70     libvcruntime:undname.obj
 0002:00000a78       ??_C@_08GHMPAG@__pascal?$AA@ 000000018002ba78     libvcruntime:undname.obj
 0002:00000a88       ??_C@_09IFJBGAPI@__stdcall?$AA@ 000000018002ba88     libvcruntime:undname.obj
 0002:00000a98       ??_C@_0L@NPHFGOKO@__thiscall?$AA@ 000000018002ba98     libvcruntime:undname.obj
 0002:00000aa8       ??_C@_0L@JMKHOMEK@__fastcall?$AA@ 000000018002baa8     libvcruntime:undname.obj
 0002:00000ab8       ??_C@_0N@BCKKPABJ@__vectorcall?$AA@ 000000018002bab8     libvcruntime:undname.obj
 0002:00000ac8       ??_C@_09HIJEGCPM@__clrcall?$AA@ 000000018002bac8     libvcruntime:undname.obj
 0002:00000ad4       ??_C@_06GHPCKEAG@__eabi?$AA@ 000000018002bad4     libvcruntime:undname.obj
 0002:00000ae0       ??_C@_07JOMMBBKO@__ptr64?$AA@ 000000018002bae0     libvcruntime:undname.obj
 0002:00000ae8       ??_C@_0L@PILCLIHE@__restrict?$AA@ 000000018002bae8     libvcruntime:undname.obj
 0002:00000af8       ??_C@_0M@GFIIJFMG@__unaligned?$AA@ 000000018002baf8     libvcruntime:undname.obj
 0002:00000b08       ??_C@_09DHDLOLLB@restrict?$CI?$AA@ 000000018002bb08     libvcruntime:undname.obj
 0002:00000b12       ??_C@_00CNPNBAHC@?$AA@     000000018002bb12     libvcruntime:undname.obj
 0002:00000b14       ??_C@_04NIHEBCM@?5new?$AA@ 000000018002bb14     libvcruntime:undname.obj
 0002:00000b20       ??_C@_07FPCDHGMM@?5delete?$AA@ 000000018002bb20     libvcruntime:undname.obj
 0002:00000b28       ??_C@_01NEMOKFLO@?$DN?$AA@ 000000018002bb28     libvcruntime:undname.obj
 0002:00000b2c       ??_C@_02GPIOPFAK@?$DO?$DO?$AA@ 000000018002bb2c     libvcruntime:undname.obj
 0002:00000b30       ??_C@_02FODMEDOG@?$DM?$DM?$AA@ 000000018002bb30     libvcruntime:undname.obj
 0002:00000b34       ??_C@_01DCLJPIOD@?$CB?$AA@ 000000018002bb34     libvcruntime:undname.obj
 0002:00000b38       ??_C@_02EGOFBIJA@?$DN?$DN?$AA@ 000000018002bb38     libvcruntime:undname.obj
 0002:00000b3c       ??_C@_02FDNJECIE@?$CB?$DN?$AA@ 000000018002bb3c     libvcruntime:undname.obj
 0002:00000b40       ??_C@_02GPECMEKF@?$FL?$FN?$AA@ 000000018002bb40     libvcruntime:undname.obj
 0002:00000b48       ??_C@_08LHJFAFGD@operator?$AA@ 000000018002bb48     libvcruntime:undname.obj
 0002:00000b54       ??_C@_02HBOOOICD@?9?$DO?$AA@ 000000018002bb54     libvcruntime:undname.obj
 0002:00000b58       ??_C@_01NBENCBCI@?$CK?$AA@ 000000018002bb58     libvcruntime:undname.obj
 0002:00000b5c       ??_C@_02ECNGHCIF@?$CL?$CL?$AA@ 000000018002bb5c     libvcruntime:undname.obj
 0002:00000b60       ??_C@_02BAABKJLB@?9?9?$AA@ 000000018002bb60     libvcruntime:undname.obj
 0002:00000b64       ??_C@_01JOAMLHOP@?9?$AA@   000000018002bb64     libvcruntime:undname.obj
 0002:00000b68       ??_C@_01MIFGBAGJ@?$CL?$AA@ 000000018002bb68     libvcruntime:undname.obj
 0002:00000b6c       ??_C@_01HNPIGOCE@?$CG?$AA@ 000000018002bb6c     libvcruntime:undname.obj
 0002:00000b70       ??_C@_03MNHNFDLC@?9?$DO?$CK?$AA@ 000000018002bb70     libvcruntime:undname.obj
 0002:00000b74       ??_C@_01KMDKNFGN@?1?$AA@   000000018002bb74     libvcruntime:undname.obj
 0002:00000b78       ??_C@_01FGNFDNOH@?$CF?$AA@ 000000018002bb78     libvcruntime:undname.obj
 0002:00000b7c       ??_C@_01MNNFJEPP@?$DM?$AA@ 000000018002bb7c     libvcruntime:undname.obj
 0002:00000b80       ??_C@_02EHCHHCKH@?$DM?$DN?$AA@ 000000018002bb80     libvcruntime:undname.obj
 0002:00000b84       ??_C@_01PPODPGHN@?$DO?$AA@ 000000018002bb84     libvcruntime:undname.obj
 0002:00000b88       ??_C@_02EEKDKGMJ@?$DO?$DN?$AA@ 000000018002bb88     libvcruntime:undname.obj
 0002:00000b8c       ??_C@_01IHBHIGKO@?0?$AA@   000000018002bb8c     libvcruntime:undname.obj
 0002:00000b90       ??_C@_02HCKGKOFO@?$CI?$CJ?$AA@ 000000018002bb90     libvcruntime:undname.obj
 0002:00000b94       ??_C@_01PJKLJHI@?$HO?$AA@  000000018002bb94     libvcruntime:undname.obj
 0002:00000b98       ??_C@_01JKBOJNNK@?$FO?$AA@ 000000018002bb98     libvcruntime:undname.obj
 0002:00000b9c       ??_C@_01DNKMNLPK@?$HM?$AA@ 000000018002bb9c     libvcruntime:undname.obj
 0002:00000ba0       ??_C@_02PPKAJPJL@?$CG?$CG?$AA@ 000000018002bba0     libvcruntime:undname.obj
 0002:00000ba4       ??_C@_02NONPIBCD@?$HM?$HM?$AA@ 000000018002bba4     libvcruntime:undname.obj
 0002:00000ba8       ??_C@_02FPIMKNGF@?$CK?$DN?$AA@ 000000018002bba8     libvcruntime:undname.obj
 0002:00000bac       ??_C@_02FOEOMHFC@?$CL?$DN?$AA@ 000000018002bbac     libvcruntime:undname.obj
 0002:00000bb0       ??_C@_02FKMDLLOA@?9?$DN?$AA@ 000000018002bbb0     libvcruntime:undname.obj
 0002:00000bb4       ??_C@_02FJEHGPIO@?1?$DN?$AA@ 000000018002bbb4     libvcruntime:undname.obj
 0002:00000bb8       ??_C@_02FENAOKFI@?$CF?$DN?$AA@ 000000018002bbb8     libvcruntime:undname.obj
 0002:00000bbc       ??_C@_03IKFCCPFF@?$DO?$DO?$DN?$AA@ 000000018002bbbc     libvcruntime:undname.obj
 0002:00000bc0       ??_C@_03CDNPDDLA@?$DM?$DM?$DN?$AA@ 000000018002bbc0     libvcruntime:undname.obj
 0002:00000bc4       ??_C@_02FGJGFEAB@?$CG?$DN?$AA@ 000000018002bbc4     libvcruntime:undname.obj
 0002:00000bc8       ??_C@_02DHLNPPGH@?$HM?$DN?$AA@ 000000018002bbc8     libvcruntime:undname.obj
 0002:00000bcc       ??_C@_02MHEGNOJ@?$FO?$DN?$AA@ 000000018002bbcc     libvcruntime:undname.obj
 0002:00000bd0       ??_C@_09IFPLHPGF@?$GAvftable?8?$AA@ 000000018002bbd0     libvcruntime:undname.obj
 0002:00000be0       ??_C@_09BLBHBJP@?$GAvbtable?8?$AA@ 000000018002bbe0     libvcruntime:undname.obj
 0002:00000bf0       ??_C@_07FEEIOKP@?$GAvcall?8?$AA@ 000000018002bbf0     libvcruntime:undname.obj
 0002:00000bf8       ??_C@_08LLFFHHDJ@?$GAtypeof?8?$AA@ 000000018002bbf8     libvcruntime:undname.obj
 0002:00000c08       ??_C@_0BF@KDPPACIK@?$GAlocal?5static?5guard?8?$AA@ 000000018002bc08     libvcruntime:undname.obj
 0002:00000c20       ??_C@_08OBABFOLI@?$GAstring?8?$AA@ 000000018002bc20     libvcruntime:undname.obj
 0002:00000c30       ??_C@_0BD@JDLKDPAB@?$GAvbase?5destructor?8?$AA@ 000000018002bc30     libvcruntime:undname.obj
 0002:00000c48       ??_C@_0BN@DEGPLNFK@?$GAvector?5deleting?5destructor?8?$AA@ 000000018002bc48     libvcruntime:undname.obj
 0002:00000c68       ??_C@_0BO@OBMKPJIG@?$GAdefault?5constructor?5closure?8?$AA@ 000000018002bc68     libvcruntime:undname.obj
 0002:00000c88       ??_C@_0BN@IMDCHIKM@?$GAscalar?5deleting?5destructor?8?$AA@ 000000018002bc88     libvcruntime:undname.obj
 0002:00000ca8       ??_C@_0BO@PFGOCPJJ@?$GAvector?5constructor?5iterator?8?$AA@ 000000018002bca8     libvcruntime:undname.obj
 0002:00000cc8       ??_C@_0BN@LFPFMEDL@?$GAvector?5destructor?5iterator?8?$AA@ 000000018002bcc8     libvcruntime:undname.obj
 0002:00000ce8       ??_C@_0CE@IKBNEHA@?$GAvector?5vbase?5constructor?5iterat@ 000000018002bce8     libvcruntime:undname.obj
 0002:00000d10       ??_C@_0BL@NILFHHPC@?$GAvirtual?5displacement?5map?8?$AA@ 000000018002bd10     libvcruntime:undname.obj
 0002:00000d30       ??_C@_0CB@JONCMFFK@?$GAeh?5vector?5constructor?5iterator?8@ 000000018002bd30     libvcruntime:undname.obj
 0002:00000d58       ??_C@_0CA@GCEOPDGL@?$GAeh?5vector?5destructor?5iterator?8?$AA@ 000000018002bd58     libvcruntime:undname.obj
 0002:00000d78       ??_C@_0CH@OOJPLCPH@?$GAeh?5vector?5vbase?5constructor?5ite@ 000000018002bd78     libvcruntime:undname.obj
 0002:00000da0       ??_C@_0BL@LLKPOHJI@?$GAcopy?5constructor?5closure?8?$AA@ 000000018002bda0     libvcruntime:undname.obj
 0002:00000dc0       ??_C@_0BA@KBCDOMBN@?$GAudt?5returning?8?$AA@ 000000018002bdc0     libvcruntime:undname.obj
 0002:00000dd0       ??_C@_03KLGMFNMG@?$GAEH?$AA@ 000000018002bdd0     libvcruntime:undname.obj
 0002:00000dd4       ??_C@_05KHLCHHI@?$GARTTI?$AA@ 000000018002bdd4     libvcruntime:undname.obj
 0002:00000de0       ??_C@_0BA@KKLDJDLB@?$GAlocal?5vftable?8?$AA@ 000000018002bde0     libvcruntime:undname.obj
 0002:00000df0       ??_C@_0CE@IIHCMGGL@?$GAlocal?5vftable?5constructor?5closu@ 000000018002bdf0     libvcruntime:undname.obj
 0002:00000e14       ??_C@_06FHBGPFGH@?5new?$FL?$FN?$AA@ 000000018002be14     libvcruntime:undname.obj
 0002:00000e20       ??_C@_09LBNFPBCA@?5delete?$FL?$FN?$AA@ 000000018002be20     libvcruntime:undname.obj
 0002:00000e30       ??_C@_0P@HJKNJFNN@?$GAomni?5callsig?8?$AA@ 000000018002be30     libvcruntime:undname.obj
 0002:00000e40       ??_C@_0BL@CNOONJFP@?$GAplacement?5delete?5closure?8?$AA@ 000000018002be40     libvcruntime:undname.obj
 0002:00000e60       ??_C@_0BN@CKNJLHMB@?$GAplacement?5delete?$FL?$FN?5closure?8?$AA@ 000000018002be60     libvcruntime:undname.obj
 0002:00000e80       ??_C@_0CG@CFDHKGGD@?$GAmanaged?5vector?5constructor?5iter@ 000000018002be80     libvcruntime:undname.obj
 0002:00000ea8       ??_C@_0CF@IMGKMJNO@?$GAmanaged?5vector?5destructor?5itera@ 000000018002bea8     libvcruntime:undname.obj
 0002:00000ed0       ??_C@_0CG@HLDDJMAG@?$GAeh?5vector?5copy?5constructor?5iter@ 000000018002bed0     libvcruntime:undname.obj
 0002:00000ef8       ??_C@_0CM@FCBBDIGB@?$GAeh?5vector?5vbase?5copy?5constructo@ 000000018002bef8     libvcruntime:undname.obj
 0002:00000f28       ??_C@_0BL@CLIPGLGB@?$GAdynamic?5initializer?5for?5?8?$AA@ 000000018002bf28     libvcruntime:undname.obj
 0002:00000f48       ??_C@_0CB@PDBIFEP@?$GAdynamic?5atexit?5destructor?5for?5?8@ 000000018002bf48     libvcruntime:undname.obj
 0002:00000f70       ??_C@_0CD@CGAJBKEJ@?$GAvector?5copy?5constructor?5iterato@ 000000018002bf70     libvcruntime:undname.obj
 0002:00000f98       ??_C@_0CJ@GJELGAMM@?$GAvector?5vbase?5copy?5constructor?5i@ 000000018002bf98     libvcruntime:undname.obj
 0002:00000fc8       ??_C@_0CL@FGIJHLCE@?$GAmanaged?5vector?5copy?5constructor@ 000000018002bfc8     libvcruntime:undname.obj
 0002:00000ff8       ??_C@_0BM@PMGGMLDN@?$GAlocal?5static?5thread?5guard?8?$AA@ 000000018002bff8     libvcruntime:undname.obj
 0002:00001018       ??_C@_0N@BDNMDMOL@operator?5?$CC?$CC?5?$AA@ 000000018002c018     libvcruntime:undname.obj
 0002:00001028       ??_C@_0BC@DAFEJGAK@?5Type?5Descriptor?8?$AA@ 000000018002c028     libvcruntime:undname.obj
 0002:00001040       ??_C@_0BM@LDKODKLH@?5Base?5Class?5Descriptor?5at?5?$CI?$AA@ 000000018002c040     libvcruntime:undname.obj
 0002:00001060       ??_C@_0BD@LGICGFMM@?5Base?5Class?5Array?8?$AA@ 000000018002c060     libvcruntime:undname.obj
 0002:00001078       ??_C@_0BN@MECKDCOJ@?5Class?5Hierarchy?5Descriptor?8?$AA@ 000000018002c078     libvcruntime:undname.obj
 0002:00001098       ??_C@_0BK@CFCOFLF@?5Complete?5Object?5Locator?8?$AA@ 000000018002c098     libvcruntime:undname.obj
 0002:000010c0       format_validation_lookup_table 000000018002c0c0     libucrt:output.obj
 0002:0000111c       ??_C@_06OJHGLDPL@?$CInull?$CJ?$AA@ 000000018002c11c     libucrt:output.obj
 0002:00001128       ??_C@_1O@CEDCILHN@?$AA?$CI?$AAn?$AAu?$AAl?$AAl?$AA?$CJ?$AA?$AA@ 000000018002c128     libucrt:output.obj
 0002:00001140       __acrt_exception_action_table 000000018002c140     libucrt:exception_filter.obj
 0002:00001200       __acrt_signal_action_table_count 000000018002c200     libucrt:exception_filter.obj
 0002:00001208       __acrt_signal_action_first_fpe_index 000000018002c208     libucrt:exception_filter.obj
 0002:00001210       __acrt_signal_action_fpe_count 000000018002c210     libucrt:exception_filter.obj
 0002:00001218       ??_C@_1BI@BGOHAHKC@?$AAm?$AAs?$AAc?$AAo?$AAr?$AAe?$AAe?$AA?4?$AAd?$AAl?$AAl?$AA?$AA@ 000000018002c218     libucrt:exit.obj
 0002:00001230       ??_C@_0P@MIGLKIOC@CorExitProcess?$AA@ 000000018002c230     libucrt:exit.obj
 0002:000014a0       __lc_time_c                000000018002c4a0     libucrt:nlsdata.obj
 0002:00001760       ??_C@_03KOEHGMDN@Sun?$AA@  000000018002c760     libucrt:nlsdata.obj
 0002:00001764       ??_C@_03PDAGKDH@Mon?$AA@   000000018002c764     libucrt:nlsdata.obj
 0002:00001768       ??_C@_03NAGEINEP@Tue?$AA@  000000018002c768     libucrt:nlsdata.obj
 0002:0000176c       ??_C@_03MHOMLAJA@Wed?$AA@  000000018002c76c     libucrt:nlsdata.obj
 0002:00001770       ??_C@_03IOFIKPDN@Thu?$AA@  000000018002c770     libucrt:nlsdata.obj
 0002:00001774       ??_C@_03IDIOELNC@Fri?$AA@  000000018002c774     libucrt:nlsdata.obj
 0002:00001778       ??_C@_03FEFJNEK@Sat?$AA@   000000018002c778     libucrt:nlsdata.obj
 0002:0000177c       ??_C@_06OOPIFAJ@Sunday?$AA@ 000000018002c77c     libucrt:nlsdata.obj
 0002:00001784       ??_C@_06JLEDEDGH@Monday?$AA@ 000000018002c784     libucrt:nlsdata.obj
 0002:00001790       ??_C@_07BAAGCFCM@Tuesday?$AA@ 000000018002c790     libucrt:nlsdata.obj
 0002:00001798       ??_C@_09DLIGFAKA@Wednesday?$AA@ 000000018002c798     libucrt:nlsdata.obj
 0002:000017a8       ??_C@_08HACCIKIA@Thursday?$AA@ 000000018002c7a8     libucrt:nlsdata.obj
 0002:000017b4       ??_C@_06JECMNKMI@Friday?$AA@ 000000018002c7b4     libucrt:nlsdata.obj
 0002:000017c0       ??_C@_08INBOOONO@Saturday?$AA@ 000000018002c7c0     libucrt:nlsdata.obj
 0002:000017cc       ??_C@_03JIHJHPIE@Jan?$AA@  000000018002c7cc     libucrt:nlsdata.obj
 0002:000017d0       ??_C@_03HJBDCHOM@Feb?$AA@  000000018002c7d0     libucrt:nlsdata.obj
 0002:000017d4       ??_C@_03ODNJBKGA@Mar?$AA@  000000018002c7d4     libucrt:nlsdata.obj
 0002:000017d8       ??_C@_03LEOLGMJP@Apr?$AA@  000000018002c7d8     libucrt:nlsdata.obj
 0002:000017dc       ??_C@_03CNMDKL@May?$AA@    000000018002c7dc     libucrt:nlsdata.obj
 0002:000017e0       ??_C@_03IDFGHECI@Jun?$AA@  000000018002c7e0     libucrt:nlsdata.obj
 0002:000017e4       ??_C@_03LBGABGKK@Jul?$AA@  000000018002c7e4     libucrt:nlsdata.obj
 0002:000017e8       ??_C@_03IFJFEIGA@Aug?$AA@  000000018002c7e8     libucrt:nlsdata.obj
 0002:000017ec       ??_C@_03GGCAPAJC@Sep?$AA@  000000018002c7ec     libucrt:nlsdata.obj
 0002:000017f0       ??_C@_03BMAOKBAD@Oct?$AA@  000000018002c7f0     libucrt:nlsdata.obj
 0002:000017f4       ??_C@_03JPJOFNIA@Nov?$AA@  000000018002c7f4     libucrt:nlsdata.obj
 0002:000017f8       ??_C@_03MKABNOCG@Dec?$AA@  000000018002c7f8     libucrt:nlsdata.obj
 0002:00001800       ??_C@_07CGJPFGJA@January?$AA@ 000000018002c800     libucrt:nlsdata.obj
 0002:00001808       ??_C@_08GNJGEPFN@February?$AA@ 000000018002c808     libucrt:nlsdata.obj
 0002:00001814       ??_C@_05HPCKOFNC@March?$AA@ 000000018002c814     libucrt:nlsdata.obj
 0002:0000181c       ??_C@_05DMJDNLEJ@April?$AA@ 000000018002c81c     libucrt:nlsdata.obj
 0002:00001824       ??_C@_04CNLMGBGM@June?$AA@ 000000018002c824     libucrt:nlsdata.obj
 0002:0000182c       ??_C@_04MIEPOIFP@July?$AA@ 000000018002c82c     libucrt:nlsdata.obj
 0002:00001834       ??_C@_06LBBHFDDG@August?$AA@ 000000018002c834     libucrt:nlsdata.obj
 0002:00001840       ??_C@_09BHHEALKD@September?$AA@ 000000018002c840     libucrt:nlsdata.obj
 0002:00001850       ??_C@_07JJNFCEND@October?$AA@ 000000018002c850     libucrt:nlsdata.obj
 0002:00001858       ??_C@_08HCHEGEOA@November?$AA@ 000000018002c858     libucrt:nlsdata.obj
 0002:00001868       ??_C@_08EDHMEBNP@December?$AA@ 000000018002c868     libucrt:nlsdata.obj
 0002:00001874       ??_C@_02DEDBPAFC@AM?$AA@   000000018002c874     libucrt:nlsdata.obj
 0002:00001878       ??_C@_02CJNFDJBF@PM?$AA@   000000018002c878     libucrt:nlsdata.obj
 0002:00001880       ??_C@_08BPBNCDIB@MM?1dd?1yy?$AA@ 000000018002c880     libucrt:nlsdata.obj
 0002:00001890       ??_C@_0BE@CKGJFCPC@dddd?0?5MMMM?5dd?0?5yyyy?$AA@ 000000018002c890     libucrt:nlsdata.obj
 0002:000018a8       ??_C@_08JCCMCCIL@HH?3mm?3ss?$AA@ 000000018002c8a8     libucrt:nlsdata.obj
 0002:000018b8       ??_C@_17MBGCMIPB@?$AAS?$AAu?$AAn?$AA?$AA@ 000000018002c8b8     libucrt:nlsdata.obj
 0002:000018c0       ??_C@_17KBOMKBF@?$AAM?$AAo?$AAn?$AA?$AA@ 000000018002c8c0     libucrt:nlsdata.obj
 0002:000018c8       ??_C@_17BMKGEGOJ@?$AAT?$AAu?$AAe?$AA?$AA@ 000000018002c8c8     libucrt:nlsdata.obj
 0002:000018d0       ??_C@_17CJEDCEPE@?$AAW?$AAe?$AAd?$AA?$AA@ 000000018002c8d0     libucrt:nlsdata.obj
 0002:000018d8       ??_C@_17PDPHAADD@?$AAT?$AAh?$AAu?$AA?$AA@ 000000018002c8d8     libucrt:nlsdata.obj
 0002:000018e0       ??_C@_17HFOLPPLP@?$AAF?$AAr?$AAi?$AA?$AA@ 000000018002c8e0     libucrt:nlsdata.obj
 0002:000018e8       ??_C@_17GGIBDPIH@?$AAS?$AAa?$AAt?$AA?$AA@ 000000018002c8e8     libucrt:nlsdata.obj
 0002:000018f0       ??_C@_1O@IHNHDHPB@?$AAS?$AAu?$AAn?$AAd?$AAa?$AAy?$AA?$AA@ 000000018002c8f0     libucrt:nlsdata.obj
 0002:00001900       ??_C@_1O@MMNBFLIA@?$AAM?$AAo?$AAn?$AAd?$AAa?$AAy?$AA?$AA@ 000000018002c900     libucrt:nlsdata.obj
 0002:00001910       ??_C@_1BA@ENFBFFEK@?$AAT?$AAu?$AAe?$AAs?$AAd?$AAa?$AAy?$AA?$AA@ 000000018002c910     libucrt:nlsdata.obj
 0002:00001920       ??_C@_1BE@EBOGMDOH@?$AAW?$AAe?$AAd?$AAn?$AAe?$AAs?$AAd?$AAa?$AAy?$AA?$AA@ 000000018002c920     libucrt:nlsdata.obj
 0002:00001938       ??_C@_1BC@HHMNLIHE@?$AAT?$AAh?$AAu?$AAr?$AAs?$AAd?$AAa?$AAy?$AA?$AA@ 000000018002c938     libucrt:nlsdata.obj
 0002:00001950       ??_C@_1O@PDICJHAG@?$AAF?$AAr?$AAi?$AAd?$AAa?$AAy?$AA?$AA@ 000000018002c950     libucrt:nlsdata.obj
 0002:00001960       ??_C@_1BC@ENMNNPAJ@?$AAS?$AAa?$AAt?$AAu?$AAr?$AAd?$AAa?$AAy?$AA?$AA@ 000000018002c960     libucrt:nlsdata.obj
 0002:00001978       ??_C@_17DKNBKCHM@?$AAJ?$AAa?$AAn?$AA?$AA@ 000000018002c978     libucrt:nlsdata.obj
 0002:00001980       ??_C@_17LMDJEKJN@?$AAF?$AAe?$AAb?$AA?$AA@ 000000018002c980     libucrt:nlsdata.obj
 0002:00001988       ??_C@_17CKNLEDEC@?$AAM?$AAa?$AAr?$AA?$AA@ 000000018002c988     libucrt:nlsdata.obj
 0002:00001990       ??_C@_17LFPOIHDD@?$AAA?$AAp?$AAr?$AA?$AA@ 000000018002c990     libucrt:nlsdata.obj
 0002:00001998       ??_C@_17PNNKMEED@?$AAM?$AAa?$AAy?$AA?$AA@ 000000018002c998     libucrt:nlsdata.obj
 0002:000019a0       ??_C@_17KCJGOCPB@?$AAJ?$AAu?$AAn?$AA?$AA@ 000000018002c9a0     libucrt:nlsdata.obj
 0002:000019a8       ??_C@_17IJPCKHK@?$AAJ?$AAu?$AAl?$AA?$AA@ 000000018002c9a8     libucrt:nlsdata.obj
 0002:000019b0       ??_C@_17ICPELBCN@?$AAA?$AAu?$AAg?$AA?$AA@ 000000018002c9b0     libucrt:nlsdata.obj
 0002:000019b8       ??_C@_17HCHCOKMG@?$AAS?$AAe?$AAp?$AA?$AA@ 000000018002c9b8     libucrt:nlsdata.obj
 0002:000019c0       ??_C@_17FNLKOI@?$AAO?$AAc?$AAt?$AA?$AA@ 000000018002c9c0     libucrt:nlsdata.obj
 0002:000019c8       ??_C@_17BBDMLCIG@?$AAN?$AAo?$AAv?$AA?$AA@ 000000018002c9c8     libucrt:nlsdata.obj
 0002:000019d0       ??_C@_17EGKACKIF@?$AAD?$AAe?$AAc?$AA?$AA@ 000000018002c9d0     libucrt:nlsdata.obj
 0002:000019d8       ??_C@_1BA@EFMEIEBA@?$AAJ?$AAa?$AAn?$AAu?$AAa?$AAr?$AAy?$AA?$AA@ 000000018002c9d8     libucrt:nlsdata.obj
 0002:000019e8       ??_C@_1BC@JGDDFFAM@?$AAF?$AAe?$AAb?$AAr?$AAu?$AAa?$AAr?$AAy?$AA?$AA@ 000000018002c9e8     libucrt:nlsdata.obj
 0002:00001a00       ??_C@_1M@IKEENEDF@?$AAM?$AAa?$AAr?$AAc?$AAh?$AA?$AA@ 000000018002ca00     libucrt:nlsdata.obj
 0002:00001a10       ??_C@_1M@GJNLMHFD@?$AAA?$AAp?$AAr?$AAi?$AAl?$AA?$AA@ 000000018002ca10     libucrt:nlsdata.obj
 0002:00001a20       ??_C@_19EPFLPGAP@?$AAJ?$AAu?$AAn?$AAe?$AA?$AA@ 000000018002ca20     libucrt:nlsdata.obj
 0002:00001a30       ??_C@_19BIFMLPCD@?$AAJ?$AAu?$AAl?$AAy?$AA?$AA@ 000000018002ca30     libucrt:nlsdata.obj
 0002:00001a40       ??_C@_1O@PAHLKOAC@?$AAA?$AAu?$AAg?$AAu?$AAs?$AAt?$AA?$AA@ 000000018002ca40     libucrt:nlsdata.obj
 0002:00001a50       ??_C@_1BE@DKAAMBJL@?$AAS?$AAe?$AAp?$AAt?$AAe?$AAm?$AAb?$AAe?$AAr?$AA?$AA@ 000000018002ca50     libucrt:nlsdata.obj
 0002:00001a68       ??_C@_1BA@EPANDLNG@?$AAO?$AAc?$AAt?$AAo?$AAb?$AAe?$AAr?$AA?$AA@ 000000018002ca68     libucrt:nlsdata.obj
 0002:00001a78       ??_C@_1BC@BGLIFPF@?$AAN?$AAo?$AAv?$AAe?$AAm?$AAb?$AAe?$AAr?$AA?$AA@ 000000018002ca78     libucrt:nlsdata.obj
 0002:00001a90       ??_C@_1BC@FEMKIFH@?$AAD?$AAe?$AAc?$AAe?$AAm?$AAb?$AAe?$AAr?$AA?$AA@ 000000018002ca90     libucrt:nlsdata.obj
 0002:00001aa4       ??_C@_15ODEHAHHF@?$AAA?$AAM?$AA?$AA@ 000000018002caa4     libucrt:nlsdata.obj
 0002:00001aac       ??_C@_15CLMNNGEL@?$AAP?$AAM?$AA?$AA@ 000000018002caac     libucrt:nlsdata.obj
 0002:00001ab8       ??_C@_1BC@IEBCMHCM@?$AAM?$AAM?$AA?1?$AAd?$AAd?$AA?1?$AAy?$AAy?$AA?$AA@ 000000018002cab8     libucrt:nlsdata.obj
 0002:00001ad0       ??_C@_1CI@KNAKOEBC@?$AAd?$AAd?$AAd?$AAd?$AA?0?$AA?5?$AAM?$AAM?$AAM?$AAM?$AA?5?$AAd?$AAd?$AA?0?$AA?5?$AAy?$AAy?$AAy?$AAy?$AA?$AA@ 000000018002cad0     libucrt:nlsdata.obj
 0002:00001af8       ??_C@_1BC@GDGBMEMK@?$AAH?$AAH?$AA?3?$AAm?$AAm?$AA?3?$AAs?$AAs?$AA?$AA@ 000000018002caf8     libucrt:nlsdata.obj
 0002:00001b10       ??_C@_1M@BMHNFIME@?$AAe?$AAn?$AA?9?$AAU?$AAS?$AA?$AA@ 000000018002cb10     libucrt:nlsdata.obj
 0002:00001b20       __newctype                 000000018002cb20     libucrt:ctype.obj
 0002:00001e20       __newclmap                 000000018002ce20     libucrt:ctype.obj
 0002:00001fa0       __newcumap                 000000018002cfa0     libucrt:ctype.obj
 0002:00002120       _wctype                    000000018002d120     libucrt:ctype.obj
 0002:00002324       ??_C@_03OEIAHPBN@INF?$AA@  000000018002d324     libucrt:cvt.obj
 0002:00002328       ??_C@_03OJHLLCGB@inf?$AA@  000000018002d328     libucrt:cvt.obj
 0002:0000232c       ??_C@_03LKNCIKJB@NAN?$AA@  000000018002d32c     libucrt:cvt.obj
 0002:00002330       ??_C@_03LHCJEHON@nan?$AA@  000000018002d330     libucrt:cvt.obj
 0002:00002338       ??_C@_09OFJJIMPC@NAN?$CISNAN?$CJ?$AA@ 000000018002d338     libucrt:cvt.obj
 0002:00002348       ??_C@_09IPFBKMDL@nan?$CIsnan?$CJ?$AA@ 000000018002d348     libucrt:cvt.obj
 0002:00002358       ??_C@_08IKHNHAJ@NAN?$CIIND?$CJ?$AA@ 000000018002d358     libucrt:cvt.obj
 0002:00002368       ??_C@_08OFCDMILK@nan?$CIind?$CJ?$AA@ 000000018002d368     libucrt:cvt.obj
 0002:00002374       ??_C@_05KLBDPFGC@e?$CL000?$AA@ 000000018002d374     libucrt:cvt.obj
 0002:00002420       ??_C@_1EG@CNNIPFIM@?$AAa?$AAp?$AAi?$AA?9?$AAm?$AAs?$AA?9?$AAw?$AAi?$AAn?$AA?9?$AAa?$AAp?$AAp?$AAm?$AAo?$AAd?$AAe?$AAl?$AA?9?$AAr?$AAu?$AAn?$AAt?$AAi?$AAm?$AAe?$AA?9?$AAl?$AA1?$AA?9?$AA1@ 000000018002d420     libucrt:winapi_thunks.obj
 0002:00002470       ??_C@_1EA@JGEFHKEI@?$AAa?$AAp?$AAi?$AA?9?$AAm?$AAs?$AA?9?$AAw?$AAi?$AAn?$AA?9?$AAc?$AAo?$AAr?$AAe?$AA?9?$AAd?$AAa?$AAt?$AAe?$AAt?$AAi?$AAm?$AAe?$AA?9?$AAl?$AA1?$AA?9?$AA1?$AA?9?$AA1?$AA?$AA@ 000000018002d470     libucrt:winapi_thunks.obj
 0002:000024b0       ??_C@_1DI@GCIAAENM@?$AAa?$AAp?$AAi?$AA?9?$AAm?$AAs?$AA?9?$AAw?$AAi?$AAn?$AA?9?$AAc?$AAo?$AAr?$AAe?$AA?9?$AAf?$AAi?$AAl?$AAe?$AA?9?$AAl?$AA2?$AA?9?$AA1?$AA?9?$AA1?$AA?$AA@ 000000018002d4b0     libucrt:winapi_thunks.obj
 0002:000024f0       ??_C@_1EI@MPIAOHOC@?$AAa?$AAp?$AAi?$AA?9?$AAm?$AAs?$AA?9?$AAw?$AAi?$AAn?$AA?9?$AAc?$AAo?$AAr?$AAe?$AA?9?$AAl?$AAo?$AAc?$AAa?$AAl?$AAi?$AAz?$AAa?$AAt?$AAi?$AAo?$AAn?$AA?9?$AAl?$AA1?$AA?9@ 000000018002d4f0     libucrt:winapi_thunks.obj
 0002:00002540       ??_C@_1FK@FPHCKFIE@?$AAa?$AAp?$AAi?$AA?9?$AAm?$AAs?$AA?9?$AAw?$AAi?$AAn?$AA?9?$AAc?$AAo?$AAr?$AAe?$AA?9?$AAl?$AAo?$AAc?$AAa?$AAl?$AAi?$AAz?$AAa?$AAt?$AAi?$AAo?$AAn?$AA?9?$AAo?$AAb?$AAs@ 000000018002d540     libucrt:winapi_thunks.obj
 0002:000025a0       ??_C@_1EM@DILCGIIO@?$AAa?$AAp?$AAi?$AA?9?$AAm?$AAs?$AA?9?$AAw?$AAi?$AAn?$AA?9?$AAc?$AAo?$AAr?$AAe?$AA?9?$AAp?$AAr?$AAo?$AAc?$AAe?$AAs?$AAs?$AAt?$AAh?$AAr?$AAe?$AAa?$AAd?$AAs?$AA?9?$AAl@ 000000018002d5a0     libucrt:winapi_thunks.obj
 0002:000025f0       ??_C@_1DM@LNCGDDPN@?$AAa?$AAp?$AAi?$AA?9?$AAm?$AAs?$AA?9?$AAw?$AAi?$AAn?$AA?9?$AAc?$AAo?$AAr?$AAe?$AA?9?$AAs?$AAt?$AAr?$AAi?$AAn?$AAg?$AA?9?$AAl?$AA1?$AA?9?$AA1?$AA?9?$AA0?$AA?$AA@ 000000018002d5f0     libucrt:winapi_thunks.obj
 0002:00002630       ??_C@_1DO@FPAPJEMD@?$AAa?$AAp?$AAi?$AA?9?$AAm?$AAs?$AA?9?$AAw?$AAi?$AAn?$AA?9?$AAc?$AAo?$AAr?$AAe?$AA?9?$AAs?$AAy?$AAs?$AAi?$AAn?$AAf?$AAo?$AA?9?$AAl?$AA1?$AA?9?$AA2?$AA?9?$AA1?$AA?$AA@ 000000018002d630     libucrt:winapi_thunks.obj
 0002:00002670       ??_C@_1DK@NDHNAHIO@?$AAa?$AAp?$AAi?$AA?9?$AAm?$AAs?$AA?9?$AAw?$AAi?$AAn?$AA?9?$AAc?$AAo?$AAr?$AAe?$AA?9?$AAw?$AAi?$AAn?$AAr?$AAt?$AA?9?$AAl?$AA1?$AA?9?$AA1?$AA?9?$AA0?$AA?$AA@ 000000018002d670     libucrt:winapi_thunks.obj
 0002:000026b0       ??_C@_1DM@KGHDGBCM@?$AAa?$AAp?$AAi?$AA?9?$AAm?$AAs?$AA?9?$AAw?$AAi?$AAn?$AA?9?$AAc?$AAo?$AAr?$AAe?$AA?9?$AAx?$AAs?$AAt?$AAa?$AAt?$AAe?$AA?9?$AAl?$AA2?$AA?9?$AA1?$AA?9?$AA0?$AA?$AA@ 000000018002d6b0     libucrt:winapi_thunks.obj
 0002:000026f0       ??_C@_1EO@IJIOEFOH@?$AAa?$AAp?$AAi?$AA?9?$AAm?$AAs?$AA?9?$AAw?$AAi?$AAn?$AA?9?$AAr?$AAt?$AAc?$AAo?$AAr?$AAe?$AA?9?$AAn?$AAt?$AAu?$AAs?$AAe?$AAr?$AA?9?$AAw?$AAi?$AAn?$AAd?$AAo?$AAw?$AA?9@ 000000018002d6f0     libucrt:winapi_thunks.obj
 0002:00002740       ??_C@_1FG@HHGEKANL@?$AAa?$AAp?$AAi?$AA?9?$AAm?$AAs?$AA?9?$AAw?$AAi?$AAn?$AA?9?$AAs?$AAe?$AAc?$AAu?$AAr?$AAi?$AAt?$AAy?$AA?9?$AAs?$AAy?$AAs?$AAt?$AAe?$AAm?$AAf?$AAu?$AAn?$AAc?$AAt?$AAi@ 000000018002d740     libucrt:winapi_thunks.obj
 0002:000027a0       ??_C@_1FG@NCKKOLKO@?$AAe?$AAx?$AAt?$AA?9?$AAm?$AAs?$AA?9?$AAw?$AAi?$AAn?$AA?9?$AAk?$AAe?$AAr?$AAn?$AAe?$AAl?$AA3?$AA2?$AA?9?$AAp?$AAa?$AAc?$AAk?$AAa?$AAg?$AAe?$AA?9?$AAc?$AAu?$AAr?$AAr@ 000000018002d7a0     libucrt:winapi_thunks.obj
 0002:00002800       ??_C@_1EG@DBIOJECG@?$AAe?$AAx?$AAt?$AA?9?$AAm?$AAs?$AA?9?$AAw?$AAi?$AAn?$AA?9?$AAn?$AAt?$AAu?$AAs?$AAe?$AAr?$AA?9?$AAd?$AAi?$AAa?$AAl?$AAo?$AAg?$AAb?$AAo?$AAx?$AA?9?$AAl?$AA1?$AA?9?$AA1@ 000000018002d800     libucrt:winapi_thunks.obj
 0002:00002850       ??_C@_1EO@FIHMJCLF@?$AAe?$AAx?$AAt?$AA?9?$AAm?$AAs?$AA?9?$AAw?$AAi?$AAn?$AA?9?$AAn?$AAt?$AAu?$AAs?$AAe?$AAr?$AA?9?$AAw?$AAi?$AAn?$AAd?$AAo?$AAw?$AAs?$AAt?$AAa?$AAt?$AAi?$AAo?$AAn?$AA?9@ 000000018002d850     libucrt:winapi_thunks.obj
 0002:000028a0       ??_C@_1O@BCCLBEOE@?$AAu?$AAs?$AAe?$AAr?$AA3?$AA2?$AA?$AA@ 000000018002d8a0     libucrt:winapi_thunks.obj
 0002:000028d8       ??_C@_0BE@JOGNEJCI@GetCurrentPackageId?$AA@ 000000018002d8d8     libucrt:winapi_thunks.obj
 0002:00002900       ??_C@_0O@KKBNKAPF@LCMapStringEx?$AA@ 000000018002d900     libucrt:winapi_thunks.obj
 0002:00002918       ??_C@_0BB@HBDEELFH@LocaleNameToLCID?$AA@ 000000018002d918     libucrt:winapi_thunks.obj
 0002:00002950       ??_C@_1M@HPNHIDJI@?$AAj?$AAa?$AA?9?$AAJ?$AAP?$AA?$AA@ 000000018002d950     libucrt:mbctype.obj
 0002:00002960       ??_C@_1M@BIBDDEMK@?$AAz?$AAh?$AA?9?$AAC?$AAN?$AA?$AA@ 000000018002d960     libucrt:mbctype.obj
 0002:00002970       ??_C@_1M@JLOOOEGK@?$AAk?$AAo?$AA?9?$AAK?$AAR?$AA?$AA@ 000000018002d970     libucrt:mbctype.obj
 0002:00002980       ??_C@_1M@CLNBBOPM@?$AAz?$AAh?$AA?9?$AAT?$AAW?$AA?$AA@ 000000018002d980     libucrt:mbctype.obj
 0002:0000298c       ??_C@_15PJPFLCCM@?$AAu?$AAk?$AA?$AA@ 000000018002d98c     libucrt:get_qualified_locale.obj
 0002:000029a0       ?large_power_data@?1??multiply_by_power_of_ten@__crt_strtox@@YA_NAEAUbig_integer@2@I@Z@4QBIB 000000018002d9a0     libucrt:cfout.obj
 0002:000032b0       ?large_power_indices@?1??multiply_by_power_of_ten@__crt_strtox@@YA_NAEAUbig_integer@2@I@Z@4QBUunpack_index@?1??12@YA_N0I@Z@B 000000018002e2b0     libucrt:cfout.obj
 0002:00003348       ?small_powers_of_ten@?6??multiply_by_power_of_ten@__crt_strtox@@YA_NAEAUbig_integer@2@I@Z@4QBIB 000000018002e348     libucrt:cfout.obj
 0002:0000336c       ??_C@_01GBGANLPD@0?$AA@    000000018002e36c     libucrt:cfout.obj
 0002:00003370       ??_C@_05DNEBIAHO@1?$CDINF?$AA@ 000000018002e370     libucrt:cfout.obj
 0002:00003378       ??_C@_06IMKFLFPG@1?$CDQNAN?$AA@ 000000018002e378     libucrt:cfout.obj
 0002:00003380       ??_C@_06PGGFOGJG@1?$CDSNAN?$AA@ 000000018002e380     libucrt:cfout.obj
 0002:00003388       ??_C@_05PHHOCPM@1?$CDIND?$AA@ 000000018002e388     libucrt:cfout.obj
 0002:000041d0       ??_C@_15EMKDOKLE@?$AAa?$AAr?$AA?$AA@ 000000018002f1d0     libucrt:lcidtoname_downlevel.obj
 0002:000041d8       ??_C@_15KNPADPLH@?$AAb?$AAg?$AA?$AA@ 000000018002f1d8     libucrt:lcidtoname_downlevel.obj
 0002:000041e0       ??_C@_15EDMHLDMO@?$AAc?$AAa?$AA?$AA@ 000000018002f1e0     libucrt:lcidtoname_downlevel.obj
 0002:000041e8       ??_C@_1O@BPEAJADD@?$AAz?$AAh?$AA?9?$AAC?$AAH?$AAS?$AA?$AA@ 000000018002f1e8     libucrt:lcidtoname_downlevel.obj
 0002:000041f8       ??_C@_15LJNHCMNK@?$AAc?$AAs?$AA?$AA@ 000000018002f1f8     libucrt:lcidtoname_downlevel.obj
 0002:00004200       ??_C@_15FOMCIDHG@?$AAd?$AAa?$AA?$AA@ 000000018002f200     libucrt:lcidtoname_downlevel.obj
 0002:00004208       ??_C@_15NBKABECB@?$AAd?$AAe?$AA?$AA@ 000000018002f208     libucrt:lcidtoname_downlevel.obj
 0002:00004210       ??_C@_15GHPEIIAO@?$AAe?$AAl?$AA?$AA@ 000000018002f210     libucrt:lcidtoname_downlevel.obj
 0002:00004218       ??_C@_15MNPNEAIF@?$AAe?$AAn?$AA?$AA@ 000000018002f218     libucrt:lcidtoname_downlevel.obj
 0002:00004220       ??_C@_15GPIOMPMH@?$AAe?$AAs?$AA?$AA@ 000000018002f220     libucrt:lcidtoname_downlevel.obj
 0002:00004228       ??_C@_15NGLOAKJC@?$AAf?$AAi?$AA?$AA@ 000000018002f228     libucrt:lcidtoname_downlevel.obj
 0002:00004230       ??_C@_15FBKGNKAM@?$AAf?$AAr?$AA?$AA@ 000000018002f230     libucrt:lcidtoname_downlevel.obj
 0002:00004238       ??_C@_15KGGCNEFK@?$AAh?$AAe?$AA?$AA@ 000000018002f238     libucrt:lcidtoname_downlevel.obj
 0002:00004240       ??_C@_15PGHLIDMF@?$AAh?$AAu?$AA?$AA@ 000000018002f240     libucrt:lcidtoname_downlevel.obj
 0002:00004248       ??_C@_15BIEMAPLM@?$AAi?$AAs?$AA?$AA@ 000000018002f248     libucrt:lcidtoname_downlevel.obj
 0002:00004250       ??_C@_15IFJLDHAF@?$AAi?$AAt?$AA?$AA@ 000000018002f250     libucrt:lcidtoname_downlevel.obj
 0002:00004258       ??_C@_15GEMIOCAG@?$AAj?$AAa?$AA?$AA@ 000000018002f258     libucrt:lcidtoname_downlevel.obj
 0002:00004260       ??_C@_15EPELEGJA@?$AAk?$AAo?$AA?$AA@ 000000018002f260     libucrt:lcidtoname_downlevel.obj
 0002:00004268       ??_C@_15NDDHIMN@?$AAn?$AAl?$AA?$AA@ 000000018002f268     libucrt:lcidtoname_downlevel.obj
 0002:00004270       ??_C@_15BPIGNHCD@?$AAn?$AAo?$AA?$AA@ 000000018002f270     libucrt:lcidtoname_downlevel.obj
 0002:00004278       ??_C@_15DEOPBLCG@?$AAp?$AAl?$AA?$AA@ 000000018002f278     libucrt:lcidtoname_downlevel.obj
 0002:00004280       ??_C@_15KBECGEFG@?$AAp?$AAt?$AA?$AA@ 000000018002f280     libucrt:lcidtoname_downlevel.obj
 0002:00004288       ??_C@_15GLJCBFMD@?$AAr?$AAo?$AA?$AA@ 000000018002f288     libucrt:lcidtoname_downlevel.obj
 0002:00004290       ??_C@_15FEDGKCDI@?$AAr?$AAu?$AA?$AA@ 000000018002f290     libucrt:lcidtoname_downlevel.obj
 0002:00004298       ??_C@_15GLKMLLHM@?$AAh?$AAr?$AA?$AA@ 000000018002f298     libucrt:lcidtoname_downlevel.obj
 0002:000042a0       ??_C@_15CPKMFBDB@?$AAs?$AAk?$AA?$AA@ 000000018002f2a0     libucrt:lcidtoname_downlevel.obj
 0002:000042a8       ??_C@_15BAAIOGMK@?$AAs?$AAq?$AA?$AA@ 000000018002f2a8     libucrt:lcidtoname_downlevel.obj
 0002:000042b0       ??_C@_15INNPNOHD@?$AAs?$AAv?$AA?$AA@ 000000018002f2b0     libucrt:lcidtoname_downlevel.obj
 0002:000042b8       ??_C@_15CABMMOGH@?$AAt?$AAh?$AA?$AA@ 000000018002f2b8     libucrt:lcidtoname_downlevel.obj
 0002:000042c0       ??_C@_15BPLIHJJM@?$AAt?$AAr?$AA?$AA@ 000000018002f2c0     libucrt:lcidtoname_downlevel.obj
 0002:000042c8       ??_C@_15NEOEKKDJ@?$AAu?$AAr?$AA?$AA@ 000000018002f2c8     libucrt:lcidtoname_downlevel.obj
 0002:000042d0       ??_C@_15NFICGAJK@?$AAi?$AAd?$AA?$AA@ 000000018002f2d0     libucrt:lcidtoname_downlevel.obj
 0002:000042d8       ??_C@_15HPJPHDM@?$AAb?$AAe?$AA?$AA@ 000000018002f2d8     libucrt:lcidtoname_downlevel.obj
 0002:000042e0       ??_C@_15LCHLGJII@?$AAs?$AAl?$AA?$AA@ 000000018002f2e0     libucrt:lcidtoname_downlevel.obj
 0002:000042e8       ??_C@_15PCFJPHHO@?$AAe?$AAt?$AA?$AA@ 000000018002f2e8     libucrt:lcidtoname_downlevel.obj
 0002:000042f0       ??_C@_15HPFPGODN@?$AAl?$AAv?$AA?$AA@ 000000018002f2f0     libucrt:lcidtoname_downlevel.obj
 0002:000042f8       ??_C@_15NFFGKGLG@?$AAl?$AAt?$AA?$AA@ 000000018002f2f8     libucrt:lcidtoname_downlevel.obj
 0002:00004300       ??_C@_15BDAKCCHN@?$AAf?$AAa?$AA?$AA@ 000000018002f300     libucrt:lcidtoname_downlevel.obj
 0002:00004308       ??_C@_15NFGIAIAJ@?$AAv?$AAi?$AA?$AA@ 000000018002f308     libucrt:lcidtoname_downlevel.obj
 0002:00004310       ??_C@_15LMKNDMHN@?$AAh?$AAy?$AA?$AA@ 000000018002f310     libucrt:lcidtoname_downlevel.obj
 0002:00004318       ??_C@_15IJBHMCFL@?$AAa?$AAz?$AA?$AA@ 000000018002f318     libucrt:lcidtoname_downlevel.obj
 0002:00004320       ??_C@_15EKOFJABL@?$AAe?$AAu?$AA?$AA@ 000000018002f320     libucrt:lcidtoname_downlevel.obj
 0002:00004328       ??_C@_15BGHADCNK@?$AAm?$AAk?$AA?$AA@ 000000018002f328     libucrt:lcidtoname_downlevel.obj
 0002:00004330       ??_C@_15JDNICKHM@?$AAa?$AAf?$AA?$AA@ 000000018002f330     libucrt:lcidtoname_downlevel.obj
 0002:00004338       ??_C@_15KPJEDBKD@?$AAk?$AAa?$AA?$AA@ 000000018002f338     libucrt:lcidtoname_downlevel.obj
 0002:00004340       ??_C@_15PDNFFFEO@?$AAf?$AAo?$AA?$AA@ 000000018002f340     libucrt:lcidtoname_downlevel.obj
 0002:00004348       ??_C@_15OMLEGLOC@?$AAh?$AAi?$AA?$AA@ 000000018002f348     libucrt:lcidtoname_downlevel.obj
 0002:00004350       ??_C@_15IDNNENKK@?$AAm?$AAs?$AA?$AA@ 000000018002f350     libucrt:lcidtoname_downlevel.obj
 0002:00004358       ??_C@_15MACJNBMH@?$AAk?$AAk?$AA?$AA@ 000000018002f358     libucrt:lcidtoname_downlevel.obj
 0002:00004360       ??_C@_15DKDJEOND@?$AAk?$AAy?$AA?$AA@ 000000018002f360     libucrt:lcidtoname_downlevel.obj
 0002:00004368       ??_C@_15DFGDLJBG@?$AAs?$AAw?$AA?$AA@ 000000018002f368     libucrt:lcidtoname_downlevel.obj
 0002:00004370       ??_C@_15BBFAICNG@?$AAu?$AAz?$AA?$AA@ 000000018002f370     libucrt:lcidtoname_downlevel.obj
 0002:00004378       ??_C@_15DKNDCGEA@?$AAt?$AAt?$AA?$AA@ 000000018002f378     libucrt:lcidtoname_downlevel.obj
 0002:00004380       ??_C@_15MGIFMDPL@?$AAp?$AAa?$AA?$AA@ 000000018002f380     libucrt:lcidtoname_downlevel.obj
 0002:00004388       ??_C@_15HCNDBBA@?$AAg?$AAu?$AA?$AA@ 000000018002f388     libucrt:lcidtoname_downlevel.obj
 0002:00004390       ??_C@_15FNBEIBON@?$AAt?$AAa?$AA?$AA@ 000000018002f390     libucrt:lcidtoname_downlevel.obj
 0002:00004398       ??_C@_15NCHGBGLK@?$AAt?$AAe?$AA?$AA@ 000000018002f398     libucrt:lcidtoname_downlevel.obj
 0002:000043a0       ??_C@_15PHPHCBPF@?$AAk?$AAn?$AA?$AA@ 000000018002f3a0     libucrt:lcidtoname_downlevel.obj
 0002:000043a8       ??_C@_15DLGBCKMP@?$AAm?$AAr?$AA?$AA@ 000000018002f3a8     libucrt:lcidtoname_downlevel.obj
 0002:000043b0       ??_C@_15EABBLBFF@?$AAs?$AAa?$AA?$AA@ 000000018002f3b0     libucrt:lcidtoname_downlevel.obj
 0002:000043b8       ??_C@_15CBKOMCOI@?$AAm?$AAn?$AA?$AA@ 000000018002f3b8     libucrt:lcidtoname_downlevel.obj
 0002:000043c0       ??_C@_15CKDMCJAF@?$AAg?$AAl?$AA?$AA@ 000000018002f3c0     libucrt:lcidtoname_downlevel.obj
 0002:000043c8       ??_C@_17CNJFBPG@?$AAk?$AAo?$AAk?$AA?$AA@ 000000018002f3c8     libucrt:lcidtoname_downlevel.obj
 0002:000043d0       ??_C@_17FFBJICPL@?$AAs?$AAy?$AAr?$AA?$AA@ 000000018002f3d0     libucrt:lcidtoname_downlevel.obj
 0002:000043d8       ??_C@_17KPNDCPAF@?$AAd?$AAi?$AAv?$AA?$AA@ 000000018002f3d8     libucrt:lcidtoname_downlevel.obj
 0002:000043e0       ??_C@_1M@OKAHONE@?$AAa?$AAr?$AA?9?$AAS?$AAA?$AA?$AA@ 000000018002f3e0     libucrt:lcidtoname_downlevel.obj
 0002:000043f0       ??_C@_1M@FFFIGIGK@?$AAb?$AAg?$AA?9?$AAB?$AAG?$AA?$AA@ 000000018002f3f0     libucrt:lcidtoname_downlevel.obj
 0002:00004400       ??_C@_1M@BJNKEDC@?$AAc?$AAa?$AA?9?$AAE?$AAS?$AA?$AA@ 000000018002f400     libucrt:lcidtoname_downlevel.obj
 0002:00004410       ??_C@_1M@IJJHFJHA@?$AAc?$AAs?$AA?9?$AAC?$AAZ?$AA?$AA@ 000000018002f410     libucrt:lcidtoname_downlevel.obj
 0002:00004420       ??_C@_1M@CLPEOBGI@?$AAd?$AAa?$AA?9?$AAD?$AAK?$AA?$AA@ 000000018002f420     libucrt:lcidtoname_downlevel.obj
 0002:00004430       ??_C@_1M@MCMADGCB@?$AAd?$AAe?$AA?9?$AAD?$AAE?$AA?$AA@ 000000018002f430     libucrt:lcidtoname_downlevel.obj
 0002:00004440       ??_C@_1M@OOCKEMAM@?$AAe?$AAl?$AA?9?$AAG?$AAR?$AA?$AA@ 000000018002f440     libucrt:lcidtoname_downlevel.obj
 0002:00004450       ??_C@_1M@DDNJFGID@?$AAf?$AAi?$AA?9?$AAF?$AAI?$AA?$AA@ 000000018002f450     libucrt:lcidtoname_downlevel.obj
 0002:00004460       ??_C@_1M@GLIPPMAC@?$AAf?$AAr?$AA?9?$AAF?$AAR?$AA?$AA@ 000000018002f460     libucrt:lcidtoname_downlevel.obj
 0002:00004470       ??_C@_1M@GFMCHPE@?$AAh?$AAe?$AA?9?$AAI?$AAL?$AA?$AA@ 000000018002f470     libucrt:lcidtoname_downlevel.obj
 0002:00004480       ??_C@_1M@MHLPGNKM@?$AAh?$AAu?$AA?9?$AAH?$AAU?$AA?$AA@ 000000018002f480     libucrt:lcidtoname_downlevel.obj
 0002:00004490       ??_C@_1M@LPDDNNPN@?$AAi?$AAs?$AA?9?$AAI?$AAS?$AA?$AA@ 000000018002f490     libucrt:lcidtoname_downlevel.obj
 0002:000044a0       ??_C@_1M@MADIPODN@?$AAi?$AAt?$AA?9?$AAI?$AAT?$AA?$AA@ 000000018002f4a0     libucrt:lcidtoname_downlevel.obj
 0002:000044b0       ??_C@_1M@IHBJJGG@?$AAn?$AAl?$AA?9?$AAN?$AAL?$AA?$AA@ 000000018002f4b0     libucrt:lcidtoname_downlevel.obj
 0002:000044c0       ??_C@_1M@EANAGDL@?$AAn?$AAb?$AA?9?$AAN?$AAO?$AA?$AA@ 000000018002f4c0     libucrt:lcidtoname_downlevel.obj
 0002:000044d0       ??_C@_1M@NEIEMEGP@?$AAp?$AAl?$AA?9?$AAP?$AAL?$AA?$AA@ 000000018002f4d0     libucrt:lcidtoname_downlevel.obj
 0002:000044e0       ??_C@_1M@BOCFIGEP@?$AAp?$AAt?$AA?9?$AAB?$AAR?$AA?$AA@ 000000018002f4e0     libucrt:lcidtoname_downlevel.obj
 0002:000044f0       ??_C@_1M@IMPFOPBG@?$AAr?$AAo?$AA?9?$AAR?$AAO?$AA?$AA@ 000000018002f4f0     libucrt:lcidtoname_downlevel.obj
 0002:00004500       ??_C@_1M@IDNNEJMM@?$AAr?$AAu?$AA?9?$AAR?$AAU?$AA?$AA@ 000000018002f500     libucrt:lcidtoname_downlevel.obj
 0002:00004510       ??_C@_1M@LILEEOGM@?$AAh?$AAr?$AA?9?$AAH?$AAR?$AA?$AA@ 000000018002f510     libucrt:lcidtoname_downlevel.obj
 0002:00004520       ??_C@_1M@FKIFEHPB@?$AAs?$AAk?$AA?9?$AAS?$AAK?$AA?$AA@ 000000018002f520     libucrt:lcidtoname_downlevel.obj
 0002:00004530       ??_C@_1M@LJMAMNPJ@?$AAs?$AAq?$AA?9?$AAA?$AAL?$AA?$AA@ 000000018002f530     libucrt:lcidtoname_downlevel.obj
 0002:00004540       ??_C@_1M@GIAKDKJK@?$AAs?$AAv?$AA?9?$AAS?$AAE?$AA?$AA@ 000000018002f540     libucrt:lcidtoname_downlevel.obj
 0002:00004550       ??_C@_1M@MKJKIKCL@?$AAt?$AAh?$AA?9?$AAT?$AAH?$AA?$AA@ 000000018002f550     libucrt:lcidtoname_downlevel.obj
 0002:00004560       ??_C@_1M@MFLCCMPB@?$AAt?$AAr?$AA?9?$AAT?$AAR?$AA?$AA@ 000000018002f560     libucrt:lcidtoname_downlevel.obj
 0002:00004570       ??_C@_1M@OIJHDKJN@?$AAu?$AAr?$AA?9?$AAP?$AAK?$AA?$AA@ 000000018002f570     libucrt:lcidtoname_downlevel.obj
 0002:00004580       ??_C@_1M@LHIPCIEK@?$AAi?$AAd?$AA?9?$AAI?$AAD?$AA?$AA@ 000000018002f580     libucrt:lcidtoname_downlevel.obj
 0002:00004590       ??_C@_1M@MFMOBGI@?$AAu?$AAk?$AA?9?$AAU?$AAA?$AA?$AA@ 000000018002f590     libucrt:lcidtoname_downlevel.obj
 0002:000045a0       ??_C@_1M@OBGLJIPL@?$AAb?$AAe?$AA?9?$AAB?$AAY?$AA?$AA@ 000000018002f5a0     libucrt:lcidtoname_downlevel.obj
 0002:000045b0       ??_C@_1M@BCFAJEAD@?$AAs?$AAl?$AA?9?$AAS?$AAI?$AA?$AA@ 000000018002f5b0     libucrt:lcidtoname_downlevel.obj
 0002:000045c0       ??_C@_1M@FKFFEDDN@?$AAe?$AAt?$AA?9?$AAE?$AAE?$AA?$AA@ 000000018002f5c0     libucrt:lcidtoname_downlevel.obj
 0002:000045d0       ??_C@_1M@KGKKAACI@?$AAl?$AAv?$AA?9?$AAL?$AAV?$AA?$AA@ 000000018002f5d0     libucrt:lcidtoname_downlevel.obj
 0002:000045e0       ??_C@_1M@IFGBIJO@?$AAl?$AAt?$AA?9?$AAL?$AAT?$AA?$AA@ 000000018002f5e0     libucrt:lcidtoname_downlevel.obj
 0002:000045f0       ??_C@_1M@FGEAHEDM@?$AAf?$AAa?$AA?9?$AAI?$AAR?$AA?$AA@ 000000018002f5f0     libucrt:lcidtoname_downlevel.obj
 0002:00004600       ??_C@_1M@KBMAIBFN@?$AAv?$AAi?$AA?9?$AAV?$AAN?$AA?$AA@ 000000018002f600     libucrt:lcidtoname_downlevel.obj
 0002:00004610       ??_C@_1M@GPCBKDJK@?$AAh?$AAy?$AA?9?$AAA?$AAM?$AA?$AA@ 000000018002f610     libucrt:lcidtoname_downlevel.obj
 0002:00004620       ??_C@_1BG@BECMDDJB@?$AAa?$AAz?$AA?9?$AAA?$AAZ?$AA?9?$AAL?$AAa?$AAt?$AAn?$AA?$AA@ 000000018002f620     libucrt:lcidtoname_downlevel.obj
 0002:00004638       ??_C@_1M@MAOFCAEA@?$AAe?$AAu?$AA?9?$AAE?$AAS?$AA?$AA@ 000000018002f638     libucrt:lcidtoname_downlevel.obj
 0002:00004648       ??_C@_1M@IGHABKPI@?$AAm?$AAk?$AA?9?$AAM?$AAK?$AA?$AA@ 000000018002f648     libucrt:lcidtoname_downlevel.obj
 0002:00004658       ??_C@_1M@IAIGNEJG@?$AAt?$AAn?$AA?9?$AAZ?$AAA?$AA?$AA@ 000000018002f658     libucrt:lcidtoname_downlevel.obj
 0002:00004668       ??_C@_1M@IIJCOJFA@?$AAx?$AAh?$AA?9?$AAZ?$AAA?$AA?$AA@ 000000018002f668     libucrt:lcidtoname_downlevel.obj
 0002:00004678       ??_C@_1M@LGPJHNJH@?$AAz?$AAu?$AA?9?$AAZ?$AAA?$AA?$AA@ 000000018002f678     libucrt:lcidtoname_downlevel.obj
 0002:00004688       ??_C@_1M@HOKAOIO@?$AAa?$AAf?$AA?9?$AAZ?$AAA?$AA?$AA@ 000000018002f688     libucrt:lcidtoname_downlevel.obj
 0002:00004698       ??_C@_1M@DPCLHLIE@?$AAk?$AAa?$AA?9?$AAG?$AAE?$AA?$AA@ 000000018002f698     libucrt:lcidtoname_downlevel.obj
 0002:000046a8       ??_C@_1M@BLKMHJBI@?$AAf?$AAo?$AA?9?$AAF?$AAO?$AA?$AA@ 000000018002f6a8     libucrt:lcidtoname_downlevel.obj
 0002:000046b8       ??_C@_1M@LGGJAPPB@?$AAh?$AAi?$AA?9?$AAI?$AAN?$AA?$AA@ 000000018002f6b8     libucrt:lcidtoname_downlevel.obj
 0002:000046c8       ??_C@_1M@FIKPIHFE@?$AAm?$AAt?$AA?9?$AAM?$AAT?$AA?$AA@ 000000018002f6c8     libucrt:lcidtoname_downlevel.obj
 0002:000046d8       ??_C@_1M@HEGGPBFA@?$AAs?$AAe?$AA?9?$AAN?$AAO?$AA?$AA@ 000000018002f6d8     libucrt:lcidtoname_downlevel.obj
 0002:000046e8       ??_C@_1M@EIBJEEPA@?$AAm?$AAs?$AA?9?$AAM?$AAY?$AA?$AA@ 000000018002f6e8     libucrt:lcidtoname_downlevel.obj
 0002:000046f8       ??_C@_1M@FHLBGMPP@?$AAk?$AAk?$AA?9?$AAK?$AAZ?$AA?$AA@ 000000018002f6f8     libucrt:lcidtoname_downlevel.obj
 0002:00004708       ??_C@_1M@NGJJLCGI@?$AAk?$AAy?$AA?9?$AAK?$AAG?$AA?$AA@ 000000018002f708     libucrt:lcidtoname_downlevel.obj
 0002:00004718       ??_C@_1M@GIENNBFC@?$AAs?$AAw?$AA?9?$AAK?$AAE?$AA?$AA@ 000000018002f718     libucrt:lcidtoname_downlevel.obj
 0002:00004728       ??_C@_1BG@NDGMJIMJ@?$AAu?$AAz?$AA?9?$AAU?$AAZ?$AA?9?$AAL?$AAa?$AAt?$AAn?$AA?$AA@ 000000018002f728     libucrt:lcidtoname_downlevel.obj
 0002:00004740       ??_C@_1M@IDCCIHBC@?$AAt?$AAt?$AA?9?$AAR?$AAU?$AA?$AA@ 000000018002f740     libucrt:lcidtoname_downlevel.obj
 0002:00004750       ??_C@_1M@LOICPMOJ@?$AAb?$AAn?$AA?9?$AAI?$AAN?$AA?$AA@ 000000018002f750     libucrt:lcidtoname_downlevel.obj
 0002:00004760       ??_C@_1M@KPKKNEAH@?$AAp?$AAa?$AA?9?$AAI?$AAN?$AA?$AA@ 000000018002f760     libucrt:lcidtoname_downlevel.obj
 0002:00004770       ??_C@_1M@PJGPPBOG@?$AAg?$AAu?$AA?9?$AAI?$AAN?$AA?$AA@ 000000018002f770     libucrt:lcidtoname_downlevel.obj
 0002:00004780       ??_C@_1M@KMKMOPHI@?$AAt?$AAa?$AA?9?$AAI?$AAN?$AA?$AA@ 000000018002f780     libucrt:lcidtoname_downlevel.obj
 0002:00004790       ??_C@_1M@KFEHEPAC@?$AAt?$AAe?$AA?9?$AAI?$AAN?$AA?$AA@ 000000018002f790     libucrt:lcidtoname_downlevel.obj
 0002:000047a0       ??_C@_1M@CDCLMGHI@?$AAk?$AAn?$AA?9?$AAI?$AAN?$AA?$AA@ 000000018002f7a0     libucrt:lcidtoname_downlevel.obj
 0002:000047b0       ??_C@_1M@MIODLDKF@?$AAm?$AAl?$AA?9?$AAI?$AAN?$AA?$AA@ 000000018002f7b0     libucrt:lcidtoname_downlevel.obj
 0002:000047c0       ??_C@_1M@PBIEACPO@?$AAm?$AAr?$AA?9?$AAI?$AAN?$AA?$AA@ 000000018002f7c0     libucrt:lcidtoname_downlevel.obj
 0002:000047d0       ??_C@_1M@NIDEAGPH@?$AAs?$AAa?$AA?9?$AAI?$AAN?$AA?$AA@ 000000018002f7d0     libucrt:lcidtoname_downlevel.obj
 0002:000047e0       ??_C@_1M@FHIHCBIO@?$AAm?$AAn?$AA?9?$AAM?$AAN?$AA?$AA@ 000000018002f7e0     libucrt:lcidtoname_downlevel.obj
 0002:000047f0       ??_C@_1M@JAIJPENP@?$AAc?$AAy?$AA?9?$AAG?$AAB?$AA?$AA@ 000000018002f7f0     libucrt:lcidtoname_downlevel.obj
 0002:00004800       ??_C@_1M@PHGFBEPN@?$AAg?$AAl?$AA?9?$AAE?$AAS?$AA?$AA@ 000000018002f800     libucrt:lcidtoname_downlevel.obj
 0002:00004810       ??_C@_1O@KPIPDNCP@?$AAk?$AAo?$AAk?$AA?9?$AAI?$AAN?$AA?$AA@ 000000018002f810     libucrt:lcidtoname_downlevel.obj
 0002:00004820       ??_C@_1O@KNHJLDJA@?$AAs?$AAy?$AAr?$AA?9?$AAS?$AAY?$AA?$AA@ 000000018002f820     libucrt:lcidtoname_downlevel.obj
 0002:00004830       ??_C@_1O@MKEKBLAH@?$AAd?$AAi?$AAv?$AA?9?$AAM?$AAV?$AA?$AA@ 000000018002f830     libucrt:lcidtoname_downlevel.obj
 0002:00004840       ??_C@_1O@OHDCKDDF@?$AAq?$AAu?$AAz?$AA?9?$AAB?$AAO?$AA?$AA@ 000000018002f840     libucrt:lcidtoname_downlevel.obj
 0002:00004850       ??_C@_1M@LEPJNLFD@?$AAn?$AAs?$AA?9?$AAZ?$AAA?$AA?$AA@ 000000018002f850     libucrt:lcidtoname_downlevel.obj
 0002:00004860       ??_C@_1M@OMLEIIJB@?$AAm?$AAi?$AA?9?$AAN?$AAZ?$AA?$AA@ 000000018002f860     libucrt:lcidtoname_downlevel.obj
 0002:00004870       ??_C@_1M@PMPEAILG@?$AAa?$AAr?$AA?9?$AAI?$AAQ?$AA?$AA@ 000000018002f870     libucrt:lcidtoname_downlevel.obj
 0002:00004880       ??_C@_1M@CNKPNOEE@?$AAd?$AAe?$AA?9?$AAC?$AAH?$AA?$AA@ 000000018002f880     libucrt:lcidtoname_downlevel.obj
 0002:00004890       ??_C@_1M@LKMGMLKO@?$AAe?$AAn?$AA?9?$AAG?$AAB?$AA?$AA@ 000000018002f890     libucrt:lcidtoname_downlevel.obj
 0002:000048a0       ??_C@_1M@PGKJFFGL@?$AAe?$AAs?$AA?9?$AAM?$AAX?$AA?$AA@ 000000018002f8a0     libucrt:lcidtoname_downlevel.obj
 0002:000048b0       ??_C@_1M@DNNANBDC@?$AAf?$AAr?$AA?9?$AAB?$AAE?$AA?$AA@ 000000018002f8b0     libucrt:lcidtoname_downlevel.obj
 0002:000048c0       ??_C@_1M@HLGMDFHM@?$AAi?$AAt?$AA?9?$AAC?$AAH?$AA?$AA@ 000000018002f8c0     libucrt:lcidtoname_downlevel.obj
 0002:000048d0       ??_C@_1M@CLLBGJH@?$AAn?$AAl?$AA?9?$AAB?$AAE?$AA?$AA@ 000000018002f8d0     libucrt:lcidtoname_downlevel.obj
 0002:000048e0       ??_C@_1M@BODBOGLF@?$AAn?$AAn?$AA?9?$AAN?$AAO?$AA?$AA@ 000000018002f8e0     libucrt:lcidtoname_downlevel.obj
 0002:000048f0       ??_C@_1M@HFFAHKAD@?$AAp?$AAt?$AA?9?$AAP?$AAT?$AA?$AA@ 000000018002f8f0     libucrt:lcidtoname_downlevel.obj
 0002:00004900       ??_C@_1BG@LNOAKHIE@?$AAs?$AAr?$AA?9?$AAS?$AAP?$AA?9?$AAL?$AAa?$AAt?$AAn?$AA?$AA@ 000000018002f900     libucrt:lcidtoname_downlevel.obj
 0002:00004918       ??_C@_1M@HBMHBGAK@?$AAs?$AAv?$AA?9?$AAF?$AAI?$AA?$AA@ 000000018002f918     libucrt:lcidtoname_downlevel.obj
 0002:00004928       ??_C@_1BG@DGCJGJBE@?$AAa?$AAz?$AA?9?$AAA?$AAZ?$AA?9?$AAC?$AAy?$AAr?$AAl?$AA?$AA@ 000000018002f928     libucrt:lcidtoname_downlevel.obj
 0002:00004940       ??_C@_1M@KEJDAAHB@?$AAs?$AAe?$AA?9?$AAS?$AAE?$AA?$AA@ 000000018002f940     libucrt:lcidtoname_downlevel.obj
 0002:00004950       ??_C@_1M@HEIBJJAD@?$AAm?$AAs?$AA?9?$AAB?$AAN?$AA?$AA@ 000000018002f950     libucrt:lcidtoname_downlevel.obj
 0002:00004960       ??_C@_1BG@PBGJMCEM@?$AAu?$AAz?$AA?9?$AAU?$AAZ?$AA?9?$AAC?$AAy?$AAr?$AAl?$AA?$AA@ 000000018002f960     libucrt:lcidtoname_downlevel.obj
 0002:00004978       ??_C@_1O@LAOBCMDF@?$AAq?$AAu?$AAz?$AA?9?$AAE?$AAC?$AA?$AA@ 000000018002f978     libucrt:lcidtoname_downlevel.obj
 0002:00004988       ??_C@_1M@POEEMAIO@?$AAa?$AAr?$AA?9?$AAE?$AAG?$AA?$AA@ 000000018002f988     libucrt:lcidtoname_downlevel.obj
 0002:00004998       ??_C@_1M@EFAKDEDL@?$AAz?$AAh?$AA?9?$AAH?$AAK?$AA?$AA@ 000000018002f998     libucrt:lcidtoname_downlevel.obj
 0002:000049a8       ??_C@_1M@HKKIJHGI@?$AAd?$AAe?$AA?9?$AAA?$AAT?$AA?$AA@ 000000018002f9a8     libucrt:lcidtoname_downlevel.obj
 0002:000049b8       ??_C@_1M@KBFBEHJF@?$AAe?$AAn?$AA?9?$AAA?$AAU?$AA?$AA@ 000000018002f9b8     libucrt:lcidtoname_downlevel.obj
 0002:000049c8       ??_C@_1M@MNPLFAAH@?$AAe?$AAs?$AA?9?$AAE?$AAS?$AA?$AA@ 000000018002f9c8     libucrt:lcidtoname_downlevel.obj
 0002:000049d8       ??_C@_1M@HJOOJFMA@?$AAf?$AAr?$AA?9?$AAC?$AAA?$AA?$AA@ 000000018002f9d8     libucrt:lcidtoname_downlevel.obj
 0002:000049e8       ??_C@_1BG@JPOFPNAB@?$AAs?$AAr?$AA?9?$AAS?$AAP?$AA?9?$AAC?$AAy?$AAr?$AAl?$AA?$AA@ 000000018002f9e8     libucrt:lcidtoname_downlevel.obj
 0002:00004a00       ??_C@_1M@LNFOCMOB@?$AAs?$AAe?$AA?9?$AAF?$AAI?$AA?$AA@ 000000018002fa00     libucrt:lcidtoname_downlevel.obj
 0002:00004a10       ??_C@_1O@MGJBOAMB@?$AAq?$AAu?$AAz?$AA?9?$AAP?$AAE?$AA?$AA@ 000000018002fa10     libucrt:lcidtoname_downlevel.obj
 0002:00004a20       ??_C@_1M@GJINLBOK@?$AAa?$AAr?$AA?9?$AAL?$AAY?$AA?$AA@ 000000018002fa20     libucrt:lcidtoname_downlevel.obj
 0002:00004a30       ??_C@_1M@GGMNHJNL@?$AAz?$AAh?$AA?9?$AAS?$AAG?$AA?$AA@ 000000018002fa30     libucrt:lcidtoname_downlevel.obj
 0002:00004a40       ??_C@_1M@HOIKODND@?$AAd?$AAe?$AA?9?$AAL?$AAU?$AA?$AA@ 000000018002fa40     libucrt:lcidtoname_downlevel.obj
 0002:00004a50       ??_C@_1M@DDOCCGFG@?$AAe?$AAn?$AA?9?$AAC?$AAA?$AA?$AA@ 000000018002fa50     libucrt:lcidtoname_downlevel.obj
 0002:00004a60       ??_C@_1M@BNOEMJLF@?$AAe?$AAs?$AA?9?$AAG?$AAT?$AA?$AA@ 000000018002fa60     libucrt:lcidtoname_downlevel.obj
 0002:00004a70       ??_C@_1M@EOGNKEK@?$AAf?$AAr?$AA?9?$AAC?$AAH?$AA?$AA@ 000000018002fa70     libucrt:lcidtoname_downlevel.obj
 0002:00004a80       ??_C@_1M@FLIDJFHL@?$AAh?$AAr?$AA?9?$AAB?$AAA?$AA?$AA@ 000000018002fa80     libucrt:lcidtoname_downlevel.obj
 0002:00004a90       ??_C@_1O@FMCELNAJ@?$AAs?$AAm?$AAj?$AA?9?$AAN?$AAO?$AA?$AA@ 000000018002fa90     libucrt:lcidtoname_downlevel.obj
 0002:00004aa0       ??_C@_1M@JHGLJMGJ@?$AAa?$AAr?$AA?9?$AAD?$AAZ?$AA?$AA@ 000000018002faa0     libucrt:lcidtoname_downlevel.obj
 0002:00004ab0       ??_C@_1M@JKKFDCNP@?$AAz?$AAh?$AA?9?$AAM?$AAO?$AA?$AA@ 000000018002fab0     libucrt:lcidtoname_downlevel.obj
 0002:00004ac0       ??_C@_1M@GEEFALPE@?$AAd?$AAe?$AA?9?$AAL?$AAI?$AA?$AA@ 000000018002fac0     libucrt:lcidtoname_downlevel.obj
 0002:00004ad0       ??_C@_1M@IGEOFBG@?$AAe?$AAn?$AA?9?$AAN?$AAZ?$AA?$AA@ 000000018002fad0     libucrt:lcidtoname_downlevel.obj
 0002:00004ae0       ??_C@_1M@KDBONEHP@?$AAe?$AAs?$AA?9?$AAC?$AAR?$AA?$AA@ 000000018002fae0     libucrt:lcidtoname_downlevel.obj
 0002:00004af0       ??_C@_1M@FHMDOHNN@?$AAf?$AAr?$AA?9?$AAL?$AAU?$AA?$AA@ 000000018002faf0     libucrt:lcidtoname_downlevel.obj
 0002:00004b00       ??_C@_1BG@NFKKMAFG@?$AAb?$AAs?$AA?9?$AAB?$AAA?$AA?9?$AAL?$AAa?$AAt?$AAn?$AA?$AA@ 000000018002fb00     libucrt:lcidtoname_downlevel.obj
 0002:00004b18       ??_C@_1O@IMNBEMCI@?$AAs?$AAm?$AAj?$AA?9?$AAS?$AAE?$AA?$AA@ 000000018002fb18     libucrt:lcidtoname_downlevel.obj
 0002:00004b28       ??_C@_1M@DHHMBNDP@?$AAa?$AAr?$AA?9?$AAM?$AAA?$AA?$AA@ 000000018002fb28     libucrt:lcidtoname_downlevel.obj
 0002:00004b38       ??_C@_1M@BNBLJCGH@?$AAe?$AAn?$AA?9?$AAI?$AAE?$AA?$AA@ 000000018002fb38     libucrt:lcidtoname_downlevel.obj
 0002:00004b48       ??_C@_1M@GEPAFMDL@?$AAe?$AAs?$AA?9?$AAP?$AAA?$AA?$AA@ 000000018002fb48     libucrt:lcidtoname_downlevel.obj
 0002:00004b58       ??_C@_1M@OJONDMDL@?$AAf?$AAr?$AA?9?$AAM?$AAC?$AA?$AA@ 000000018002fb58     libucrt:lcidtoname_downlevel.obj
 0002:00004b68       ??_C@_1BG@OBCNFJB@?$AAs?$AAr?$AA?9?$AAB?$AAA?$AA?9?$AAL?$AAa?$AAt?$AAn?$AA?$AA@ 000000018002fb68     libucrt:lcidtoname_downlevel.obj
 0002:00004b80       ??_C@_1O@KEMEEGPO@?$AAs?$AAm?$AAa?$AA?9?$AAN?$AAO?$AA?$AA@ 000000018002fb80     libucrt:lcidtoname_downlevel.obj
 0002:00004b90       ??_C@_1M@ELMGFODK@?$AAa?$AAr?$AA?9?$AAT?$AAN?$AA?$AA@ 000000018002fb90     libucrt:lcidtoname_downlevel.obj
 0002:00004ba0       ??_C@_1M@BHDLHFAF@?$AAe?$AAn?$AA?9?$AAZ?$AAA?$AA?$AA@ 000000018002fba0     libucrt:lcidtoname_downlevel.obj
 0002:00004bb0       ??_C@_1M@BMGIGLIF@?$AAe?$AAs?$AA?9?$AAD?$AAO?$AA?$AA@ 000000018002fbb0     libucrt:lcidtoname_downlevel.obj
 0002:00004bc0       ??_C@_1BG@CMBHIPBE@?$AAs?$AAr?$AA?9?$AAB?$AAA?$AA?9?$AAC?$AAy?$AAr?$AAl?$AA?$AA@ 000000018002fbc0     libucrt:lcidtoname_downlevel.obj
 0002:00004bd8       ??_C@_1O@HEDBLHNP@?$AAs?$AAm?$AAa?$AA?9?$AAS?$AAE?$AA?$AA@ 000000018002fbd8     libucrt:lcidtoname_downlevel.obj
 0002:00004be8       ??_C@_1M@DAGCADIM@?$AAa?$AAr?$AA?9?$AAO?$AAM?$AA?$AA@ 000000018002fbe8     libucrt:lcidtoname_downlevel.obj
 0002:00004bf8       ??_C@_1M@FODLMICG@?$AAe?$AAn?$AA?9?$AAJ?$AAM?$AA?$AA@ 000000018002fbf8     libucrt:lcidtoname_downlevel.obj
 0002:00004c08       ??_C@_1M@DNMLCIHB@?$AAe?$AAs?$AA?9?$AAV?$AAE?$AA?$AA@ 000000018002fc08     libucrt:lcidtoname_downlevel.obj
 0002:00004c18       ??_C@_1O@EOKHMKJK@?$AAs?$AAm?$AAs?$AA?9?$AAF?$AAI?$AA?$AA@ 000000018002fc18     libucrt:lcidtoname_downlevel.obj
 0002:00004c28       ??_C@_1M@CAFJMKOF@?$AAa?$AAr?$AA?9?$AAY?$AAE?$AA?$AA@ 000000018002fc28     libucrt:lcidtoname_downlevel.obj
 0002:00004c38       ??_C@_1M@CBFHIJLI@?$AAe?$AAn?$AA?9?$AAC?$AAB?$AA?$AA@ 000000018002fc38     libucrt:lcidtoname_downlevel.obj
 0002:00004c48       ??_C@_1M@BGNFLDN@?$AAe?$AAs?$AA?9?$AAC?$AAO?$AA?$AA@ 000000018002fc48     libucrt:lcidtoname_downlevel.obj
 0002:00004c58       ??_C@_1O@JMPHMAMC@?$AAs?$AAm?$AAn?$AA?9?$AAF?$AAI?$AA?$AA@ 000000018002fc58     libucrt:lcidtoname_downlevel.obj
 0002:00004c68       ??_C@_1M@JLANABKE@?$AAa?$AAr?$AA?9?$AAS?$AAY?$AA?$AA@ 000000018002fc68     libucrt:lcidtoname_downlevel.obj
 0002:00004c78       ??_C@_1M@HPKGCFGN@?$AAe?$AAn?$AA?9?$AAB?$AAZ?$AA?$AA@ 000000018002fc78     libucrt:lcidtoname_downlevel.obj
 0002:00004c88       ??_C@_1M@OLJCMLGM@?$AAe?$AAs?$AA?9?$AAP?$AAE?$AA?$AA@ 000000018002fc88     libucrt:lcidtoname_downlevel.obj
 0002:00004c98       ??_C@_1M@MKKGFKLE@?$AAa?$AAr?$AA?9?$AAJ?$AAO?$AA?$AA@ 000000018002fc98     libucrt:lcidtoname_downlevel.obj
 0002:00004ca8       ??_C@_1M@EKPGLDNI@?$AAe?$AAn?$AA?9?$AAT?$AAT?$AA?$AA@ 000000018002fca8     libucrt:lcidtoname_downlevel.obj
 0002:00004cb8       ??_C@_1M@OONGHFHE@?$AAe?$AAs?$AA?9?$AAA?$AAR?$AA?$AA@ 000000018002fcb8     libucrt:lcidtoname_downlevel.obj
 0002:00004cc8       ??_C@_1M@OOJFGBHE@?$AAa?$AAr?$AA?9?$AAL?$AAB?$AA?$AA@ 000000018002fcc8     libucrt:lcidtoname_downlevel.obj
 0002:00004cd8       ??_C@_1M@GCEJHNEG@?$AAe?$AAn?$AA?9?$AAZ?$AAW?$AA?$AA@ 000000018002fcd8     libucrt:lcidtoname_downlevel.obj
 0002:00004ce8       ??_C@_1M@JNOCAHJI@?$AAe?$AAs?$AA?9?$AAE?$AAC?$AA?$AA@ 000000018002fce8     libucrt:lcidtoname_downlevel.obj
 0002:00004cf8       ??_C@_1M@JEFHPGGB@?$AAa?$AAr?$AA?9?$AAK?$AAW?$AA?$AA@ 000000018002fcf8     libucrt:lcidtoname_downlevel.obj
 0002:00004d08       ??_C@_1M@MLKIBJOJ@?$AAe?$AAn?$AA?9?$AAP?$AAH?$AA?$AA@ 000000018002fd08     libucrt:lcidtoname_downlevel.obj
 0002:00004d18       ??_C@_1M@BDNIPEND@?$AAe?$AAs?$AA?9?$AAC?$AAL?$AA?$AA@ 000000018002fd18     libucrt:lcidtoname_downlevel.obj
 0002:00004d28       ??_C@_1M@MPNMEKBD@?$AAa?$AAr?$AA?9?$AAA?$AAE?$AA?$AA@ 000000018002fd28     libucrt:lcidtoname_downlevel.obj
 0002:00004d38       ??_C@_1M@KBJALCPI@?$AAe?$AAs?$AA?9?$AAU?$AAY?$AA?$AA@ 000000018002fd38     libucrt:lcidtoname_downlevel.obj
 0002:00004d48       ??_C@_1M@LLCCOAGA@?$AAa?$AAr?$AA?9?$AAB?$AAH?$AA?$AA@ 000000018002fd48     libucrt:lcidtoname_downlevel.obj
 0002:00004d58       ??_C@_1M@PBFNCDEL@?$AAe?$AAs?$AA?9?$AAP?$AAY?$AA?$AA@ 000000018002fd58     libucrt:lcidtoname_downlevel.obj
 0002:00004d68       ??_C@_1M@EDGINPNP@?$AAa?$AAr?$AA?9?$AAQ?$AAA?$AA?$AA@ 000000018002fd68     libucrt:lcidtoname_downlevel.obj
 0002:00004d78       ??_C@_1M@MKDBIIJI@?$AAe?$AAs?$AA?9?$AAB?$AAO?$AA?$AA@ 000000018002fd78     libucrt:lcidtoname_downlevel.obj
 0002:00004d88       ??_C@_1M@CPKKEBLD@?$AAe?$AAs?$AA?9?$AAS?$AAV?$AA?$AA@ 000000018002fd88     libucrt:lcidtoname_downlevel.obj
 0002:00004d98       ??_C@_1M@NDBGMMJL@?$AAe?$AAs?$AA?9?$AAH?$AAN?$AA?$AA@ 000000018002fd98     libucrt:lcidtoname_downlevel.obj
 0002:00004da8       ??_C@_1M@JIJIBHDP@?$AAe?$AAs?$AA?9?$AAN?$AAI?$AA?$AA@ 000000018002fda8     libucrt:lcidtoname_downlevel.obj
 0002:00004db8       ??_C@_1M@CGFMKEEK@?$AAe?$AAs?$AA?9?$AAP?$AAR?$AA?$AA@ 000000018002fdb8     libucrt:lcidtoname_downlevel.obj
 0002:00004dc8       ??_C@_1O@ICJHKIIK@?$AAz?$AAh?$AA?9?$AAC?$AAH?$AAT?$AA?$AA@ 000000018002fdc8     libucrt:lcidtoname_downlevel.obj
 0002:00004dd8       ??_C@_15CLNEJCE@?$AAs?$AAr?$AA?$AA@ 000000018002fdd8     libucrt:lcidtoname_downlevel.obj
 0002:00005c20       ??_C@_1M@KAHEKEIG@?$AAa?$AAf?$AA?9?$AAz?$AAa?$AA?$AA@ 0000000180030c20     libucrt:lcidtoname_downlevel.obj
 0002:00005c30       ??_C@_1M@GIECOABL@?$AAa?$AAr?$AA?9?$AAa?$AAe?$AA?$AA@ 0000000180030c30     libucrt:lcidtoname_downlevel.obj
 0002:00005c40       ??_C@_1M@BMLMEKGI@?$AAa?$AAr?$AA?9?$AAb?$AAh?$AA?$AA@ 0000000180030c40     libucrt:lcidtoname_downlevel.obj
 0002:00005c50       ??_C@_1M@DAPFDGGB@?$AAa?$AAr?$AA?9?$AAd?$AAz?$AA?$AA@ 0000000180030c50     libucrt:lcidtoname_downlevel.obj
 0002:00005c60       ??_C@_1M@FJNKGKIG@?$AAa?$AAr?$AA?9?$AAe?$AAg?$AA?$AA@ 0000000180030c60     libucrt:lcidtoname_downlevel.obj
 0002:00005c70       ??_C@_1M@FLGKKCLO@?$AAa?$AAr?$AA?9?$AAi?$AAq?$AA?$AA@ 0000000180030c70     libucrt:lcidtoname_downlevel.obj
 0002:00005c80       ??_C@_1M@GNDIPALM@?$AAa?$AAr?$AA?9?$AAj?$AAo?$AA?$AA@ 0000000180030c80     libucrt:lcidtoname_downlevel.obj
 0002:00005c90       ??_C@_1M@DDMJFMGJ@?$AAa?$AAr?$AA?9?$AAk?$AAw?$AA?$AA@ 0000000180030c90     libucrt:lcidtoname_downlevel.obj
 0002:00005ca0       ??_C@_1M@EJALMLHM@?$AAa?$AAr?$AA?9?$AAl?$AAb?$AA?$AA@ 0000000180030ca0     libucrt:lcidtoname_downlevel.obj
 0002:00005cb0       ??_C@_1M@MOBDBLOC@?$AAa?$AAr?$AA?9?$AAl?$AAy?$AA?$AA@ 0000000180030cb0     libucrt:lcidtoname_downlevel.obj
 0002:00005cc0       ??_C@_1M@JAOCLHDH@?$AAa?$AAr?$AA?9?$AAm?$AAa?$AA?$AA@ 0000000180030cc0     libucrt:lcidtoname_downlevel.obj
 0002:00005cd0       ??_C@_1M@JHPMKJIE@?$AAa?$AAr?$AA?9?$AAo?$AAm?$AA?$AA@ 0000000180030cd0     libucrt:lcidtoname_downlevel.obj
 0002:00005ce0       ??_C@_1M@OEPGHFNH@?$AAa?$AAr?$AA?9?$AAq?$AAa?$AA?$AA@ 0000000180030ce0     libucrt:lcidtoname_downlevel.obj
 0002:00005cf0       ??_C@_1M@KJDONENM@?$AAa?$AAr?$AA?9?$AAs?$AAa?$AA?$AA@ 0000000180030cf0     libucrt:lcidtoname_downlevel.obj
 0002:00005d00       ??_C@_1M@DMJDKLKM@?$AAa?$AAr?$AA?9?$AAs?$AAy?$AA?$AA@ 0000000180030d00     libucrt:lcidtoname_downlevel.obj
 0002:00005d10       ??_C@_1M@OMFIPEDC@?$AAa?$AAr?$AA?9?$AAt?$AAn?$AA?$AA@ 0000000180030d10     libucrt:lcidtoname_downlevel.obj
 0002:00005d20       ??_C@_1M@IHMHGAON@?$AAa?$AAr?$AA?9?$AAy?$AAe?$AA?$AA@ 0000000180030d20     libucrt:lcidtoname_downlevel.obj
 0002:00005d30       ??_C@_1BG@KDCPGJGB@?$AAa?$AAz?$AA?9?$AAa?$AAz?$AA?9?$AAc?$AAy?$AAr?$AAl?$AA?$AA@ 0000000180030d30     libucrt:lcidtoname_downlevel.obj
 0002:00005d48       ??_C@_1BG@IBCKDDOE@?$AAa?$AAz?$AA?9?$AAa?$AAz?$AA?9?$AAl?$AAa?$AAt?$AAn?$AA?$AA@ 0000000180030d48     libucrt:lcidtoname_downlevel.obj
 0002:00005d60       ??_C@_1M@EGPFDCPD@?$AAb?$AAe?$AA?9?$AAb?$AAy?$AA?$AA@ 0000000180030d60     libucrt:lcidtoname_downlevel.obj
 0002:00005d70       ??_C@_1M@PCMGMCGC@?$AAb?$AAg?$AA?9?$AAb?$AAg?$AA?$AA@ 0000000180030d70     libucrt:lcidtoname_downlevel.obj
 0002:00005d80       ??_C@_1M@BJBMFGOB@?$AAb?$AAn?$AA?9?$AAi?$AAn?$AA?$AA@ 0000000180030d80     libucrt:lcidtoname_downlevel.obj
 0002:00005d90       ??_C@_1BG@EAKMMACD@?$AAb?$AAs?$AA?9?$AAb?$AAa?$AA?9?$AAl?$AAa?$AAt?$AAn?$AA?$AA@ 0000000180030d90     libucrt:lcidtoname_downlevel.obj
 0002:00005da8       ??_C@_1M@KGADAODK@?$AAc?$AAa?$AA?9?$AAe?$AAs?$AA?$AA@ 0000000180030da8     libucrt:lcidtoname_downlevel.obj
 0002:00005db8       ??_C@_1M@COAJPDHI@?$AAc?$AAs?$AA?9?$AAc?$AAz?$AA?$AA@ 0000000180030db8     libucrt:lcidtoname_downlevel.obj
 0002:00005dc8       ??_C@_1M@DHBHFONH@?$AAc?$AAy?$AA?9?$AAg?$AAb?$AA?$AA@ 0000000180030dc8     libucrt:lcidtoname_downlevel.obj
 0002:00005dd8       ??_C@_1M@IMGKELGA@?$AAd?$AAa?$AA?9?$AAd?$AAk?$AA?$AA@ 0000000180030dd8     libucrt:lcidtoname_downlevel.obj
 0002:00005de8       ??_C@_1M@NNDGDNGA@?$AAd?$AAe?$AA?9?$AAa?$AAt?$AA?$AA@ 0000000180030de8     libucrt:lcidtoname_downlevel.obj
 0002:00005df8       ??_C@_1M@IKDBHEEM@?$AAd?$AAe?$AA?9?$AAc?$AAh?$AA?$AA@ 0000000180030df8     libucrt:lcidtoname_downlevel.obj
 0002:00005e08       ??_C@_1M@GFFOJMCJ@?$AAd?$AAe?$AA?9?$AAd?$AAe?$AA?$AA@ 0000000180030e08     libucrt:lcidtoname_downlevel.obj
 0002:00005e18       ??_C@_1M@MDNLKBPM@?$AAd?$AAe?$AA?9?$AAl?$AAi?$AA?$AA@ 0000000180030e18     libucrt:lcidtoname_downlevel.obj
 0002:00005e28       ??_C@_1M@NJBEEJNL@?$AAd?$AAe?$AA?9?$AAl?$AAu?$AA?$AA@ 0000000180030e28     libucrt:lcidtoname_downlevel.obj
 0002:00005e38       ??_C@_1O@GNNELBAP@?$AAd?$AAi?$AAv?$AA?9?$AAm?$AAv?$AA?$AA@ 0000000180030e38     libucrt:lcidtoname_downlevel.obj
 0002:00005e48       ??_C@_1M@EJLEOGAE@?$AAe?$AAl?$AA?9?$AAg?$AAr?$AA?$AA@ 0000000180030e48     libucrt:lcidtoname_downlevel.obj
 0002:00005e58       ??_C@_1M@GMPONJN@?$AAe?$AAn?$AA?9?$AAa?$AAu?$AA?$AA@ 0000000180030e58     libucrt:lcidtoname_downlevel.obj
 0002:00005e68       ??_C@_1M@NIDIIPGF@?$AAe?$AAn?$AA?9?$AAb?$AAz?$AA?$AA@ 0000000180030e68     libucrt:lcidtoname_downlevel.obj
 0002:00005e78       ??_C@_1M@JEHMIMFO@?$AAe?$AAn?$AA?9?$AAc?$AAa?$AA?$AA@ 0000000180030e78     libucrt:lcidtoname_downlevel.obj
 0002:00005e88       ??_C@_1M@IGMJCDLA@?$AAe?$AAn?$AA?9?$AAc?$AAb?$AA?$AA@ 0000000180030e88     libucrt:lcidtoname_downlevel.obj
 0002:00005e98       ??_C@_1M@BNFIGBKG@?$AAe?$AAn?$AA?9?$AAg?$AAb?$AA?$AA@ 0000000180030e98     libucrt:lcidtoname_downlevel.obj
 0002:00005ea8       ??_C@_1M@LKIFDIGP@?$AAe?$AAn?$AA?9?$AAi?$AAe?$AA?$AA@ 0000000180030ea8     libucrt:lcidtoname_downlevel.obj
 0002:00005eb8       ??_C@_1M@PJKFGCCO@?$AAe?$AAn?$AA?9?$AAj?$AAm?$AA?$AA@ 0000000180030eb8     libucrt:lcidtoname_downlevel.obj
 0002:00005ec8       ??_C@_1M@KPPKEPBO@?$AAe?$AAn?$AA?9?$AAn?$AAz?$AA?$AA@ 0000000180030ec8     libucrt:lcidtoname_downlevel.obj
 0002:00005ed8       ??_C@_1M@GMDGLDOB@?$AAe?$AAn?$AA?9?$AAp?$AAh?$AA?$AA@ 0000000180030ed8     libucrt:lcidtoname_downlevel.obj
 0002:00005ee8       ??_C@_1M@ONGIBJNA@?$AAe?$AAn?$AA?9?$AAt?$AAt?$AA?$AA@ 0000000180030ee8     libucrt:lcidtoname_downlevel.obj
 0002:00005ef8       ??_C@_1M@LLODPCMM@?$AAe?$AAn?$AA?9?$AAu?$AAs?$AA?$AA@ 0000000180030ef8     libucrt:lcidtoname_downlevel.obj
 0002:00005f08       ??_C@_1M@LAKFNPAN@?$AAe?$AAn?$AA?9?$AAz?$AAa?$AA?$AA@ 0000000180030f08     libucrt:lcidtoname_downlevel.obj
 0002:00005f18       ??_C@_1M@MFNHNHEO@?$AAe?$AAn?$AA?9?$AAz?$AAw?$AA?$AA@ 0000000180030f18     libucrt:lcidtoname_downlevel.obj
 0002:00005f28       ??_C@_1M@EJEINPHM@?$AAe?$AAs?$AA?9?$AAa?$AAr?$AA?$AA@ 0000000180030f28     libucrt:lcidtoname_downlevel.obj
 0002:00005f38       ??_C@_1M@GNKPCCJA@?$AAe?$AAs?$AA?9?$AAb?$AAo?$AA?$AA@ 0000000180030f38     libucrt:lcidtoname_downlevel.obj
 0002:00005f48       ??_C@_1M@LEEGFONL@?$AAe?$AAs?$AA?9?$AAc?$AAl?$AA?$AA@ 0000000180030f48     libucrt:lcidtoname_downlevel.obj
 0002:00005f58       ??_C@_1M@KGPDPBDF@?$AAe?$AAs?$AA?9?$AAc?$AAo?$AA?$AA@ 0000000180030f58     libucrt:lcidtoname_downlevel.obj
 0002:00005f68       ??_C@_1M@EIAHOHH@?$AAe?$AAs?$AA?9?$AAc?$AAr?$AA?$AA@ 0000000180030f68     libucrt:lcidtoname_downlevel.obj
 0002:00005f78       ??_C@_1M@LLPGMBIN@?$AAe?$AAs?$AA?9?$AAd?$AAo?$AA?$AA@ 0000000180030f78     libucrt:lcidtoname_downlevel.obj
 0002:00005f88       ??_C@_1M@DKHMKNJA@?$AAe?$AAs?$AA?9?$AAe?$AAc?$AA?$AA@ 0000000180030f88     libucrt:lcidtoname_downlevel.obj
 0002:00005f98       ??_C@_1M@GKGFPKAP@?$AAe?$AAs?$AA?9?$AAe?$AAs?$AA?$AA@ 0000000180030f98     libucrt:lcidtoname_downlevel.obj
 0002:00005fa8       ??_C@_1M@LKHKGDLN@?$AAe?$AAs?$AA?9?$AAg?$AAt?$AA?$AA@ 0000000180030fa8     libucrt:lcidtoname_downlevel.obj
 0002:00005fb8       ??_C@_1M@HEIIGGJD@?$AAe?$AAs?$AA?9?$AAh?$AAn?$AA?$AA@ 0000000180030fb8     libucrt:lcidtoname_downlevel.obj
 0002:00005fc8       ??_C@_1M@FBDHPPGD@?$AAe?$AAs?$AA?9?$AAm?$AAx?$AA?$AA@ 0000000180030fc8     libucrt:lcidtoname_downlevel.obj
 0002:00005fd8       ??_C@_1M@DPAGLNDH@?$AAe?$AAs?$AA?9?$AAn?$AAi?$AA?$AA@ 0000000180030fd8     libucrt:lcidtoname_downlevel.obj
 0002:00005fe8       ??_C@_1M@MDGOPGDD@?$AAe?$AAs?$AA?9?$AAp?$AAa?$AA?$AA@ 0000000180030fe8     libucrt:lcidtoname_downlevel.obj
 0002:00005ff8       ??_C@_1M@EMAMGBGE@?$AAe?$AAs?$AA?9?$AAp?$AAe?$AA?$AA@ 0000000180030ff8     libucrt:lcidtoname_downlevel.obj
 0002:00006008       ??_C@_1M@IBMCAOEC@?$AAe?$AAs?$AA?9?$AAp?$AAr?$AA?$AA@ 0000000180031008     libucrt:lcidtoname_downlevel.obj
 0002:00006018       ??_C@_1M@FGMDIJED@?$AAe?$AAs?$AA?9?$AAp?$AAy?$AA?$AA@ 0000000180031018     libucrt:lcidtoname_downlevel.obj
 0002:00006028       ??_C@_1M@IIDEOLLL@?$AAe?$AAs?$AA?9?$AAs?$AAv?$AA?$AA@ 0000000180031028     libucrt:lcidtoname_downlevel.obj
 0002:00006038       ??_C@_1M@GAOBIPA@?$AAe?$AAs?$AA?9?$AAu?$AAy?$AA?$AA@ 0000000180031038     libucrt:lcidtoname_downlevel.obj
 0002:00006048       ??_C@_1M@JKFFICHJ@?$AAe?$AAs?$AA?9?$AAv?$AAe?$AA?$AA@ 0000000180031048     libucrt:lcidtoname_downlevel.obj
 0002:00006058       ??_C@_1M@PNMLOJDF@?$AAe?$AAt?$AA?9?$AAe?$AAe?$AA?$AA@ 0000000180031058     libucrt:lcidtoname_downlevel.obj
 0002:00006068       ??_C@_1M@GHHLIKEI@?$AAe?$AAu?$AA?9?$AAe?$AAs?$AA?$AA@ 0000000180031068     libucrt:lcidtoname_downlevel.obj
 0002:00006078       ??_C@_1M@PBNONODE@?$AAf?$AAa?$AA?9?$AAi?$AAr?$AA?$AA@ 0000000180031078     libucrt:lcidtoname_downlevel.obj
 0002:00006088       ??_C@_1M@JEEHPMIL@?$AAf?$AAi?$AA?9?$AAf?$AAi?$AA?$AA@ 0000000180031088     libucrt:lcidtoname_downlevel.obj
 0002:00006098       ??_C@_1M@LMDCNDBA@?$AAf?$AAo?$AA?9?$AAf?$AAo?$AA?$AA@ 0000000180031098     libucrt:lcidtoname_downlevel.obj
 0002:000060a8       ??_C@_1M@JKEOHLDK@?$AAf?$AAr?$AA?9?$AAb?$AAe?$AA?$AA@ 00000001800310a8     libucrt:lcidtoname_downlevel.obj
 0002:000060b8       ??_C@_1M@NOHADPMI@?$AAf?$AAr?$AA?9?$AAc?$AAa?$AA?$AA@ 00000001800310b8     libucrt:lcidtoname_downlevel.obj
 0002:000060c8       ??_C@_1M@KDHIHAEC@?$AAf?$AAr?$AA?9?$AAc?$AAh?$AA?$AA@ 00000001800310c8     libucrt:lcidtoname_downlevel.obj
 0002:000060d8       ??_C@_1M@MMBBFGAK@?$AAf?$AAr?$AA?9?$AAf?$AAr?$AA?$AA@ 00000001800310d8     libucrt:lcidtoname_downlevel.obj
 0002:000060e8       ??_C@_1M@PAFNENNF@?$AAf?$AAr?$AA?9?$AAl?$AAu?$AA?$AA@ 00000001800310e8     libucrt:lcidtoname_downlevel.obj
 0002:000060f8       ??_C@_1M@EOHDJGDD@?$AAf?$AAr?$AA?9?$AAm?$AAc?$AA?$AA@ 00000001800310f8     libucrt:lcidtoname_downlevel.obj
 0002:00006108       ??_C@_1M@FAPLLOPF@?$AAg?$AAl?$AA?9?$AAe?$AAs?$AA?$AA@ 0000000180031108     libucrt:lcidtoname_downlevel.obj
 0002:00006118       ??_C@_1M@FOPBFLOO@?$AAg?$AAu?$AA?9?$AAi?$AAn?$AA?$AA@ 0000000180031118     libucrt:lcidtoname_downlevel.obj
 0002:00006128       ??_C@_1M@KBMCINPM@?$AAh?$AAe?$AA?9?$AAi?$AAl?$AA?$AA@ 0000000180031128     libucrt:lcidtoname_downlevel.obj
 0002:00006138       ??_C@_1M@BBPHKFPJ@?$AAh?$AAi?$AA?9?$AAi?$AAn?$AA?$AA@ 0000000180031138     libucrt:lcidtoname_downlevel.obj
 0002:00006148       ??_C@_1M@PMBNDPHD@?$AAh?$AAr?$AA?9?$AAb?$AAa?$AA?$AA@ 0000000180031148     libucrt:lcidtoname_downlevel.obj
 0002:00006158       ??_C@_1M@BPCKOEGE@?$AAh?$AAr?$AA?9?$AAh?$AAr?$AA?$AA@ 0000000180031158     libucrt:lcidtoname_downlevel.obj
 0002:00006168       ??_C@_1M@GACBMHKE@?$AAh?$AAu?$AA?9?$AAh?$AAu?$AA?$AA@ 0000000180031168     libucrt:lcidtoname_downlevel.obj
 0002:00006178       ??_C@_1M@MILPAJJC@?$AAh?$AAy?$AA?9?$AAa?$AAm?$AA?$AA@ 0000000180031178     libucrt:lcidtoname_downlevel.obj
 0002:00006188       ??_C@_1M@BABBICEC@?$AAi?$AAd?$AA?9?$AAi?$AAd?$AA?$AA@ 0000000180031188     libucrt:lcidtoname_downlevel.obj
 0002:00006198       ??_C@_1M@BIKNHHPF@?$AAi?$AAs?$AA?9?$AAi?$AAs?$AA?$AA@ 0000000180031198     libucrt:lcidtoname_downlevel.obj
 0002:000061a8       ??_C@_1M@NMPCJPHE@?$AAi?$AAt?$AA?9?$AAc?$AAh?$AA?$AA@ 00000001800311a8     libucrt:lcidtoname_downlevel.obj
 0002:000061b8       ??_C@_1M@GHKGFEDF@?$AAi?$AAt?$AA?9?$AAi?$AAt?$AA?$AA@ 00000001800311b8     libucrt:lcidtoname_downlevel.obj
 0002:000061c8       ??_C@_1M@NIEJCJJA@?$AAj?$AAa?$AA?9?$AAj?$AAp?$AA?$AA@ 00000001800311c8     libucrt:lcidtoname_downlevel.obj
 0002:000061d8       ??_C@_1M@JILFNBIM@?$AAk?$AAa?$AA?9?$AAg?$AAe?$AA?$AA@ 00000001800311d8     libucrt:lcidtoname_downlevel.obj
 0002:000061e8       ??_C@_1M@PACPMGPH@?$AAk?$AAk?$AA?9?$AAk?$AAz?$AA?$AA@ 00000001800311e8     libucrt:lcidtoname_downlevel.obj
 0002:000061f8       ??_C@_1M@IELFGMHA@?$AAk?$AAn?$AA?9?$AAi?$AAn?$AA?$AA@ 00000001800311f8     libucrt:lcidtoname_downlevel.obj
 0002:00006208       ??_C@_1O@IBBJHCH@?$AAk?$AAo?$AAk?$AA?9?$AAi?$AAn?$AA?$AA@ 0000000180031208     libucrt:lcidtoname_downlevel.obj
 0002:00006218       ??_C@_1M@DMHAEOGC@?$AAk?$AAo?$AA?9?$AAk?$AAr?$AA?$AA@ 0000000180031218     libucrt:lcidtoname_downlevel.obj
 0002:00006228       ??_C@_1M@HBAHBIGA@?$AAk?$AAy?$AA?9?$AAk?$AAg?$AA?$AA@ 0000000180031228     libucrt:lcidtoname_downlevel.obj
 0002:00006238       ??_C@_1M@KPMILCJG@?$AAl?$AAt?$AA?9?$AAl?$AAt?$AA?$AA@ 0000000180031238     libucrt:lcidtoname_downlevel.obj
 0002:00006248       ??_C@_1M@BDEKKCA@?$AAl?$AAv?$AA?9?$AAl?$AAv?$AA?$AA@ 0000000180031248     libucrt:lcidtoname_downlevel.obj
 0002:00006258       ??_C@_1M@ELCKCCJJ@?$AAm?$AAi?$AA?9?$AAn?$AAz?$AA?$AA@ 0000000180031258     libucrt:lcidtoname_downlevel.obj
 0002:00006268       ??_C@_1M@CBOOLAPA@?$AAm?$AAk?$AA?9?$AAm?$AAk?$AA?$AA@ 0000000180031268     libucrt:lcidtoname_downlevel.obj
 0002:00006278       ??_C@_1M@GPHNBJKN@?$AAm?$AAl?$AA?9?$AAi?$AAn?$AA?$AA@ 0000000180031278     libucrt:lcidtoname_downlevel.obj
 0002:00006288       ??_C@_1M@PABJILIG@?$AAm?$AAn?$AA?9?$AAm?$AAn?$AA?$AA@ 0000000180031288     libucrt:lcidtoname_downlevel.obj
 0002:00006298       ??_C@_1M@FGBKKIPG@?$AAm?$AAr?$AA?9?$AAi?$AAn?$AA?$AA@ 0000000180031298     libucrt:lcidtoname_downlevel.obj
 0002:000062a8       ??_C@_1M@NDBPDDAL@?$AAm?$AAs?$AA?9?$AAb?$AAn?$AA?$AA@ 00000001800312a8     libucrt:lcidtoname_downlevel.obj
 0002:000062b8       ??_C@_1M@OPIHOOPI@?$AAm?$AAs?$AA?9?$AAm?$AAy?$AA?$AA@ 00000001800312b8     libucrt:lcidtoname_downlevel.obj
 0002:000062c8       ??_C@_1M@PPDBCNFM@?$AAm?$AAt?$AA?9?$AAm?$AAt?$AA?$AA@ 00000001800312c8     libucrt:lcidtoname_downlevel.obj
 0002:000062d8       ??_C@_1M@KDJDKMDD@?$AAn?$AAb?$AA?9?$AAn?$AAo?$AA?$AA@ 00000001800312d8     libucrt:lcidtoname_downlevel.obj
 0002:000062e8       ??_C@_1M@KFCFLMJP@?$AAn?$AAl?$AA?9?$AAb?$AAe?$AA?$AA@ 00000001800312e8     libucrt:lcidtoname_downlevel.obj
 0002:000062f8       ??_C@_1M@KPOPDDGO@?$AAn?$AAl?$AA?9?$AAn?$AAl?$AA?$AA@ 00000001800312f8     libucrt:lcidtoname_downlevel.obj
 0002:00006308       ??_C@_1M@LJKPEMLN@?$AAn?$AAn?$AA?9?$AAn?$AAo?$AA?$AA@ 0000000180031308     libucrt:lcidtoname_downlevel.obj
 0002:00006318       ??_C@_1M@BDGHHBFL@?$AAn?$AAs?$AA?9?$AAz?$AAa?$AA?$AA@ 0000000180031318     libucrt:lcidtoname_downlevel.obj
 0002:00006328       ??_C@_1M@IDEHOAP@?$AAp?$AAa?$AA?9?$AAi?$AAn?$AA?$AA@ 0000000180031328     libucrt:lcidtoname_downlevel.obj
 0002:00006338       ??_C@_1M@HDBKGOGH@?$AAp?$AAl?$AA?9?$AAp?$AAl?$AA?$AA@ 0000000180031338     libucrt:lcidtoname_downlevel.obj
 0002:00006348       ??_C@_1M@LJLLCMEH@?$AAp?$AAt?$AA?9?$AAb?$AAr?$AA?$AA@ 0000000180031348     libucrt:lcidtoname_downlevel.obj
 0002:00006358       ??_C@_1M@NCMONAAL@?$AAp?$AAt?$AA?9?$AAp?$AAt?$AA?$AA@ 0000000180031358     libucrt:lcidtoname_downlevel.obj
 0002:00006368       ??_C@_1O@EAKMAJDN@?$AAq?$AAu?$AAz?$AA?9?$AAb?$AAo?$AA?$AA@ 0000000180031368     libucrt:lcidtoname_downlevel.obj
 0002:00006378       ??_C@_1O@BHHPIGDN@?$AAq?$AAu?$AAz?$AA?9?$AAe?$AAc?$AA?$AA@ 0000000180031378     libucrt:lcidtoname_downlevel.obj
 0002:00006388       ??_C@_1O@GBAPEKMJ@?$AAq?$AAu?$AAz?$AA?9?$AAp?$AAe?$AA?$AA@ 0000000180031388     libucrt:lcidtoname_downlevel.obj
 0002:00006398       ??_C@_1M@CLGLEFBO@?$AAr?$AAo?$AA?9?$AAr?$AAo?$AA?$AA@ 0000000180031398     libucrt:lcidtoname_downlevel.obj
 0002:000063a8       ??_C@_1M@CEEDODME@?$AAr?$AAu?$AA?9?$AAr?$AAu?$AA?$AA@ 00000001800313a8     libucrt:lcidtoname_downlevel.obj
 0002:000063b8       ??_C@_1M@HPKKKMPP@?$AAs?$AAa?$AA?9?$AAi?$AAn?$AA?$AA@ 00000001800313b8     libucrt:lcidtoname_downlevel.obj
 0002:000063c8       ??_C@_1M@BKMAIGOJ@?$AAs?$AAe?$AA?9?$AAf?$AAi?$AA?$AA@ 00000001800313c8     libucrt:lcidtoname_downlevel.obj
 0002:000063d8       ??_C@_1M@NDPIFLFI@?$AAs?$AAe?$AA?9?$AAn?$AAo?$AA?$AA@ 00000001800313d8     libucrt:lcidtoname_downlevel.obj
 0002:000063e8       ??_C@_1M@DANKKHJ@?$AAs?$AAe?$AA?9?$AAs?$AAe?$AA?$AA@ 00000001800313e8     libucrt:lcidtoname_downlevel.obj
 0002:000063f8       ??_C@_1M@PNBLONPJ@?$AAs?$AAk?$AA?9?$AAs?$AAk?$AA?$AA@ 00000001800313f8     libucrt:lcidtoname_downlevel.obj
 0002:00006408       ??_C@_1M@LFMODOAL@?$AAs?$AAl?$AA?9?$AAs?$AAi?$AA?$AA@ 0000000180031408     libucrt:lcidtoname_downlevel.obj
 0002:00006418       ??_C@_1O@DFKOMPG@?$AAs?$AAm?$AAa?$AA?9?$AAn?$AAo?$AA?$AA@ 0000000180031418     libucrt:lcidtoname_downlevel.obj
 0002:00006428       ??_C@_1O@NDKPBNNH@?$AAs?$AAm?$AAa?$AA?9?$AAs?$AAe?$AA?$AA@ 0000000180031428     libucrt:lcidtoname_downlevel.obj
 0002:00006438       ??_C@_1O@PLLKBHAB@?$AAs?$AAm?$AAj?$AA?9?$AAn?$AAo?$AA?$AA@ 0000000180031438     libucrt:lcidtoname_downlevel.obj
 0002:00006448       ??_C@_1O@CLEPOGCA@?$AAs?$AAm?$AAj?$AA?9?$AAs?$AAe?$AA?$AA@ 0000000180031448     libucrt:lcidtoname_downlevel.obj
 0002:00006458       ??_C@_1O@DLGJGKMK@?$AAs?$AAm?$AAn?$AA?9?$AAf?$AAi?$AA?$AA@ 0000000180031458     libucrt:lcidtoname_downlevel.obj
 0002:00006468       ??_C@_1O@OJDJGAJC@?$AAs?$AAm?$AAs?$AA?9?$AAf?$AAi?$AA?$AA@ 0000000180031468     libucrt:lcidtoname_downlevel.obj
 0002:00006478       ??_C@_1M@BOFOGHPB@?$AAs?$AAq?$AA?9?$AAa?$AAl?$AA?$AA@ 0000000180031478     libucrt:lcidtoname_downlevel.obj
 0002:00006488       ??_C@_1BG@LJBBIPGB@?$AAs?$AAr?$AA?9?$AAb?$AAa?$AA?9?$AAc?$AAy?$AAr?$AAl?$AA?$AA@ 0000000180031488     libucrt:lcidtoname_downlevel.obj
 0002:000064a0       ??_C@_1BG@JLBENFOE@?$AAs?$AAr?$AA?9?$AAb?$AAa?$AA?9?$AAl?$AAa?$AAt?$AAn?$AA?$AA@ 00000001800314a0     libucrt:lcidtoname_downlevel.obj
 0002:000064b8       ??_C@_1BG@KODPNHE@?$AAs?$AAr?$AA?9?$AAs?$AAp?$AA?9?$AAc?$AAy?$AAr?$AAl?$AA?$AA@ 00000001800314b8     libucrt:lcidtoname_downlevel.obj
 0002:000064d0       ??_C@_1BG@CIOGKHPB@?$AAs?$AAr?$AA?9?$AAs?$AAp?$AA?9?$AAl?$AAa?$AAt?$AAn?$AA?$AA@ 00000001800314d0     libucrt:lcidtoname_downlevel.obj
 0002:000064e8       ??_C@_1M@NGFJLMAC@?$AAs?$AAv?$AA?9?$AAf?$AAi?$AA?$AA@ 00000001800314e8     libucrt:lcidtoname_downlevel.obj
 0002:000064f8       ??_C@_1M@MPJEJAJC@?$AAs?$AAv?$AA?9?$AAs?$AAe?$AA?$AA@ 00000001800314f8     libucrt:lcidtoname_downlevel.obj
 0002:00006508       ??_C@_1M@MPNDHLFK@?$AAs?$AAw?$AA?9?$AAk?$AAe?$AA?$AA@ 0000000180031508     libucrt:lcidtoname_downlevel.obj
 0002:00006518       ??_C@_1O@KOHBJJI@?$AAs?$AAy?$AAr?$AA?9?$AAs?$AAy?$AA?$AA@ 0000000180031518     libucrt:lcidtoname_downlevel.obj
 0002:00006528       ??_C@_1M@LDCEFHA@?$AAt?$AAa?$AA?9?$AAi?$AAn?$AA?$AA@ 0000000180031528     libucrt:lcidtoname_downlevel.obj
 0002:00006538       ??_C@_1M@CNJOFAK@?$AAt?$AAe?$AA?9?$AAi?$AAn?$AA?$AA@ 0000000180031538     libucrt:lcidtoname_downlevel.obj
 0002:00006548       ??_C@_1M@GNAECACD@?$AAt?$AAh?$AA?9?$AAt?$AAh?$AA?$AA@ 0000000180031548     libucrt:lcidtoname_downlevel.obj
 0002:00006558       ??_C@_1M@CHBIHOJO@?$AAt?$AAn?$AA?9?$AAz?$AAa?$AA?$AA@ 0000000180031558     libucrt:lcidtoname_downlevel.obj
 0002:00006568       ??_C@_1M@GCCMIGPJ@?$AAt?$AAr?$AA?9?$AAt?$AAr?$AA?$AA@ 0000000180031568     libucrt:lcidtoname_downlevel.obj
 0002:00006578       ??_C@_1M@CELMCNBK@?$AAt?$AAt?$AA?9?$AAr?$AAu?$AA?$AA@ 0000000180031578     libucrt:lcidtoname_downlevel.obj
 0002:00006588       ??_C@_1M@KLMCELGA@?$AAu?$AAk?$AA?9?$AAu?$AAa?$AA?$AA@ 0000000180031588     libucrt:lcidtoname_downlevel.obj
 0002:00006598       ??_C@_1M@EPAJJAJF@?$AAu?$AAr?$AA?9?$AAp?$AAk?$AA?$AA@ 0000000180031598     libucrt:lcidtoname_downlevel.obj
 0002:000065a8       ??_C@_1BG@GEGPMCDJ@?$AAu?$AAz?$AA?9?$AAu?$AAz?$AA?9?$AAc?$AAy?$AAr?$AAl?$AA?$AA@ 00000001800315a8     libucrt:lcidtoname_downlevel.obj
 0002:000065c0       ??_C@_1BG@EGGKJILM@?$AAu?$AAz?$AA?9?$AAu?$AAz?$AA?9?$AAl?$AAa?$AAt?$AAn?$AA?$AA@ 00000001800315c0     libucrt:lcidtoname_downlevel.obj
 0002:000065d8       ??_C@_1M@GFOCLFF@?$AAv?$AAi?$AA?9?$AAv?$AAn?$AA?$AA@ 00000001800315d8     libucrt:lcidtoname_downlevel.obj
 0002:000065e8       ??_C@_1M@CPAMEDFI@?$AAx?$AAh?$AA?9?$AAz?$AAa?$AA?$AA@ 00000001800315e8     libucrt:lcidtoname_downlevel.obj
 0002:000065f8       ??_C@_1O@EBKIFIGN@?$AAz?$AAh?$AA?9?$AAc?$AAh?$AAs?$AA?$AA@ 00000001800315f8     libucrt:lcidtoname_downlevel.obj
 0002:00006608       ??_C@_1O@NMHPGANE@?$AAz?$AAh?$AA?9?$AAc?$AAh?$AAt?$AA?$AA@ 0000000180031608     libucrt:lcidtoname_downlevel.obj
 0002:00006618       ??_C@_1M@LPINJOMC@?$AAz?$AAh?$AA?9?$AAc?$AAn?$AA?$AA@ 0000000180031618     libucrt:lcidtoname_downlevel.obj
 0002:00006628       ??_C@_1M@OCJEJODD@?$AAz?$AAh?$AA?9?$AAh?$AAk?$AA?$AA@ 0000000180031628     libucrt:lcidtoname_downlevel.obj
 0002:00006638       ??_C@_1M@DNDLJINH@?$AAz?$AAh?$AA?9?$AAm?$AAo?$AA?$AA@ 0000000180031638     libucrt:lcidtoname_downlevel.obj
 0002:00006648       ??_C@_1M@MBFDNDND@?$AAz?$AAh?$AA?9?$AAs?$AAg?$AA?$AA@ 0000000180031648     libucrt:lcidtoname_downlevel.obj
 0002:00006658       ??_C@_1M@IMEPLEPE@?$AAz?$AAh?$AA?9?$AAt?$AAw?$AA?$AA@ 0000000180031658     libucrt:lcidtoname_downlevel.obj
 0002:00006668       ??_C@_1M@BBGHNHJP@?$AAz?$AAu?$AA?9?$AAz?$AAa?$AA?$AA@ 0000000180031668     libucrt:lcidtoname_downlevel.obj
 0002:00006678       __real@3ff0000000000000    0000000180031678     libucrt:ceil.obj
 0002:000068d0       __log10_256_lead           00000001800318d0     libucrt:log10_256_lead_tail_table.obj
 0002:000070e0       __log10_256_tail           00000001800320e0     libucrt:log10_256_lead_tail_table.obj
 0002:000078f0       __log_F_inv_qword          00000001800328f0     libucrt:log_f_inv_qword_table.obj
 0002:00008100       ??_C@_05HGHHAHAP@log10?$AA@ 0000000180033100     libucrt:log_special.obj
 0002:00008120       ??_C@_1BA@BALFACEM@?$AAC?$AAO?$AAN?$AAO?$AAU?$AAT?$AA$?$AA?$AA@ 0000000180033120     libucrt:initcon.obj
 0002:00008140       ??_C@_11LOCGONAA@?$AA?$AA@ 0000000180033140     registry_manager.obj
 0002:00008148       ??_C@_1BI@OFGMIEIL@?$AAW?$AAo?$AAw?$AA6?$AA4?$AA3?$AA2?$AAN?$AAo?$AAd?$AAe?$AA?$AA@ 0000000180033148     registry_manager.obj
 0002:00008160       ??_C@_1EG@LKPPLMDE@?$AA?2?$AAR?$AAE?$AAG?$AAI?$AAS?$AAT?$AAR?$AAY?$AA?2?$AAM?$AAA?$AAC?$AAH?$AAI?$AAN?$AAE?$AA?2?$AAS?$AAO?$AAF?$AAT?$AAW?$AAA?$AAR?$AAE?$AA?2?$AAC?$AAl?$AAa?$AAs?$AAs@ 0000000180033160     registry_manager.obj
 0002:000081a8       ??_C@_09FLKFJBLM@ntdll?4dll?$AA@ 00000001800331a8     registry_manager.obj
 0002:000081b8       ??_C@_0O@OMDJGLHA@NtSetValueKey?$AA@ 00000001800331b8     registry_manager.obj
 0002:000081c8       ??_C@_0BB@JDIHMLFD@NtDeleteValueKey?$AA@ 00000001800331c8     registry_manager.obj
 0002:000081e0       ??_C@_0M@DAAEGBND@NtCreateKey?$AA@ 00000001800331e0     registry_manager.obj
 0002:000081f0       ??_C@_09KPFDHBKE@NtOpenKey?$AA@ 00000001800331f0     registry_manager.obj
 0002:00008200       ??_C@_0M@HMNOCLMB@NtOpenKeyEx?$AA@ 0000000180033200     registry_manager.obj
 0002:00008210       ??_C@_0BA@DHHCHOHP@NtQueryValueKey?$AA@ 0000000180033210     registry_manager.obj
 0002:00008220       ??_C@_0M@PBHJGKCK@NtDeleteKey?$AA@ 0000000180033220     registry_manager.obj
 0002:00008230       ??_C@_0L@PJCPMKKH@NtQueryKey?$AA@ 0000000180033230     registry_manager.obj
 0002:00008240       ??_C@_0BE@IFPHOMMO@NtEnumerateValueKey?$AA@ 0000000180033240     registry_manager.obj
 0002:00008258       ??_C@_0P@NOBPPJGE@NtEnumerateKey?$AA@ 0000000180033258     registry_manager.obj
 0002:00008270       ??_C@_1EI@IGIMJNMH@?$AA?2?$AAR?$AAe?$AAg?$AAi?$AAs?$AAt?$AAr?$AAy?$AA?2?$AAM?$AAa?$AAc?$AAh?$AAi?$AAn?$AAe?$AA?2?$AAS?$AAo?$AAf?$AAt?$AAw?$AAa?$AAr?$AAe?$AA?2?$AAC?$AAl?$AAa?$AAs?$AAs@ 0000000180033270     registry_manager.obj
 0002:000082b8       ??_C@_1BO@PBBLJICK@?$AA?2?$AAR?$AAE?$AAG?$AAI?$AAS?$AAT?$AAR?$AAY?$AA?2?$AAU?$AAS?$AAE?$AAR?$AA?$AA@ 00000001800332b8     registry_manager.obj
 0002:000082e0       ??_C@_1BI@MJAKHGIJ@?$AAF?$AAa?$AAt?$AAa?$AAl?$AA?5?$AAE?$AAr?$AAr?$AAo?$AAr?$AA?$AA@ 00000001800332e0     utils.obj
 0002:000082f8       ??_C@_0BB@PJBDBFCM@NtRaiseHardError?$AA@ 00000001800332f8     utils.obj
 0002:00008310       ??_C@_0BF@MJPACJIK@NtQueryVirtualMemory?$AA@ 0000000180033310     core.obj
 0002:00008328       ??_C@_0N@MDJJJHMB@kernel32?4dll?$AA@ 0000000180033328     core.obj
 0002:00008338       ??_C@_0BJ@PMIGFBML@EnumSystemFirmwareTables?$AA@ 0000000180033338     core.obj
 0002:00008358       ??_C@_0BH@CIFPAPFL@GetSystemFirmwareTable?$AA@ 0000000180033358     core.obj
 0002:00008370       ??_C@_0O@LPFPADAK@NtOpenSection?$AA@ 0000000180033370     core.obj
 0002:00008380       ??_C@_0BD@OPIOPJOL@NtMapViewOfSection?$AA@ 0000000180033380     core.obj
 0002:00008398       ??_C@_0BF@HJLDAPGE@NtUnmapViewOfSection?$AA@ 0000000180033398     core.obj
 0002:000083b0       ??_C@_07EGJLEIEB@NtClose?$AA@ 00000001800333b0     core.obj
 0002:000083b8       ??_C@_0M@MBPBAOBD@sbiedll?4dll?$AA@ 00000001800333b8     core.obj
 0002:000083c8       ??_C@_0BB@IFDHMKDA@wine_get_version?$AA@ 00000001800333c8     core.obj
 0002:000083e0       ??_C@_0BK@EGDDIFMK@NtQueryInformationProcess?$AA@ 00000001800333e0     core.obj
 0002:00008400       ??_C@_0BJ@NDLOPGCH@NtQuerySystemInformation?$AA@ 0000000180033400     core.obj
 0002:00008420       ??_C@_1GM@IMLAKDOB@?$AAT?$AAh?$AAi?$AAs?$AA?5?$AAa?$AAp?$AAp?$AAl?$AAi?$AAc?$AAa?$AAt?$AAi?$AAo?$AAn?$AA?5?$AAc?$AAa?$AAn?$AAn?$AAo?$AAt?$AA?5?$AAb?$AAe?$AA?5?$AAe?$AAx?$AAe?$AAc?$AAu@ 0000000180033420     core.obj
 0002:00008490       ??_C@_0BH@EDMKDLIP@NtProtectVirtualMemory?$AA@ 0000000180033490     core.obj
 0002:000084a8       ??_C@_0BD@EDPGJCFM@DbgUiRemoteBreakin?$AA@ 00000001800334a8     core.obj
 0002:000084c0       ??_C@_0O@IFMDHOMC@NtQueryObject?$AA@ 00000001800334c0     core.obj
 0002:000088e0       ??_C@_0BB@GFABHBEI@GetComputerNameW?$AA@ 00000001800338e0     hwid.obj
 0002:000088f8       ??_C@_0N@BBCKHBCL@iphlpapi?4dll?$AA@ 00000001800338f8     hwid.obj
 0002:00008908       ??_C@_0BA@INMFFGLD@GetAdaptersInfo?$AA@ 0000000180033908     hwid.obj
 0002:00008918       ??_C@_0BF@BNEDMIFM@GetWindowsDirectoryW?$AA@ 0000000180033918     hwid.obj
 0002:00008930       ??_C@_0BG@LLCBJFLL@GetVolumeInformationW?$AA@ 0000000180033930     hwid.obj
 0002:00008950       ??_C@_1JG@OEMMGGFK@?$AAT?$AAh?$AAi?$AAs?$AA?5?$AAc?$AAo?$AAd?$AAe?$AA?5?$AAr?$AAe?$AAq?$AAu?$AAi?$AAr?$AAe?$AAs?$AA?5?$AAv?$AAa?$AAl?$AAi?$AAd?$AA?5?$AAs?$AAe?$AAr?$AAi?$AAa?$AAl?$AA?5@ 0000000180033950     licensing_manager.obj
 0002:000089e8       ??_C@_0M@KONLGPGE@winhttp?4dll?$AA@ 00000001800339e8     licensing_manager.obj
 0002:000089f8       ??_C@_0M@HCNFPBAH@WinHttpOpen?$AA@ 00000001800339f8     licensing_manager.obj
 0002:00008a08       ??_C@_0BA@FGGCGJIN@WinHttpReadData?$AA@ 0000000180033a08     licensing_manager.obj
 0002:00008a18       ??_C@_0BD@JHEHAPIO@WinHttpCloseHandle?$AA@ 0000000180033a18     licensing_manager.obj
 0002:00008a30       ??_C@_0BA@LFJOCOJ@WinHttpCrackUrl?$AA@ 0000000180033a30     licensing_manager.obj
 0002:00008a40       ??_C@_0P@FPJFCHEB@WinHttpConnect?$AA@ 0000000180033a40     licensing_manager.obj
 0002:00008a50       ??_C@_0BG@ELILALAM@WinHttpSetCredentials?$AA@ 0000000180033a50     licensing_manager.obj
 0002:00008a68       ??_C@_0BD@LFJHCHOE@WinHttpOpenRequest?$AA@ 0000000180033a68     licensing_manager.obj
 0002:00008a80       ??_C@_0BD@OOKJOHJ@WinHttpSendRequest?$AA@ 0000000180033a80     licensing_manager.obj
 0002:00008a98       ??_C@_0BH@OJNKOBKL@WinHttpReceiveResponse?$AA@ 0000000180033a98     licensing_manager.obj
 0002:00008ab0       ??_C@_0BB@OBAEBNML@WinHttpSetOption?$AA@ 0000000180033ab0     licensing_manager.obj
 0002:00008ac8       ??_C@_0CG@OIOOEFEE@WinHttpGetIEProxyConfigForCurren@ 0000000180033ac8     licensing_manager.obj
 0002:00008af0       ??_C@_0BE@GNIOOJIH@WinHttpQueryHeaders?$AA@ 0000000180033af0     licensing_manager.obj
 0002:00008b10       ??_C@_1GG@NNGMHBMN@?$AAM?$AAo?$AAz?$AAi?$AAl?$AAl?$AAa?$AA?1?$AA4?$AA?4?$AA0?$AA?5?$AA?$CI?$AAc?$AAo?$AAm?$AAp?$AAa?$AAt?$AAi?$AAb?$AAl?$AAe?$AA?$DL?$AA?5?$AAM?$AAS?$AAI?$AAE?$AA?5?$AA6?$AA?4@ 0000000180033b10     licensing_manager.obj
 0002:00008b78       ??_C@_17KCHPOIEI@?$AAG?$AAE?$AAT?$AA?$AA@ 0000000180033b78     licensing_manager.obj
 0002:00008b80       ??_C@_0BB@JCEFLFJE@0123456789abcdef?$AA@ 0000000180033b80     licensing_manager.obj
 0002:00008b98       ??_C@_0CG@PGPPENKP@0123456789abcdefghijklmnopqrstuv@ 0000000180033b98     licensing_manager.obj
 0002:00008bc0       ??_C@_0BA@JFNIOLAK@string?5too?5long?$AA@ 0000000180033bc0     licensing_manager.obj
 0002:00008bd0       ??_7ActivationRequest@@6B@ 0000000180033bd0     licensing_manager.obj
 0002:00008bd8       ??_7BaseRequest@@6B@       0000000180033bd8     licensing_manager.obj
 0002:00008be0       ??_7DeactivationRequest@@6B@ 0000000180033be0     licensing_manager.obj
 0002:00008be8       ??_C@_0BE@PIOLJJJK@GetThreadUILanguage?$AA@ 0000000180033be8     resource_manager.obj
 0002:00008c00       ??_C@_0BC@COHFPOLM@LdrFindResource_U?$AA@ 0000000180033c00     resource_manager.obj
 0002:00008c18       ??_C@_0BC@NOODCPMA@LdrAccessResource?$AA@ 0000000180033c18     resource_manager.obj
 0002:00008c30       ??_C@_0L@GMPLCCII@user32?4dll?$AA@ 0000000180033c30     resource_manager.obj
 0002:00008c40       ??_C@_0M@CDIAIEMD@LoadStringA?$AA@ 0000000180033c40     resource_manager.obj
 0002:00008c50       ??_C@_0M@DPBIDBBE@LoadStringW?$AA@ 0000000180033c50     resource_manager.obj
 0002:00008c60       ??_C@_0P@OEFGOMJK@kernelbase?4dll?$AA@ 0000000180033c60     resource_manager.obj
 0002:00008c70       ??_C@_13JOFGPIOO@?$AA?4?$AA?$AA@ 0000000180033c70     file_manager.obj
 0002:00008c74       ??_C@_15DDHGOCBH@?$AA?4?$AA?4?$AA?$AA@ 0000000180033c74     file_manager.obj
 0002:00008c7c       ??_C@_13FPGAJAPJ@?$AA?2?$AA?$AA@ 0000000180033c7c     file_manager.obj
 0002:00008c80       ??_C@_0BG@OJBPGNEC@NtQueryAttributesFile?$AA@ 0000000180033c80     file_manager.obj
 0002:00008c98       ??_C@_0N@KPMLACHP@NtCreateFile?$AA@ 0000000180033c98     file_manager.obj
 0002:00008ca8       ??_C@_0L@GBDFLBPA@NtOpenFile?$AA@ 0000000180033ca8     file_manager.obj
 0002:00008cb8       ??_C@_0L@FNDFCMOM@NtReadFile?$AA@ 0000000180033cb8     file_manager.obj
 0002:00008cc8       ??_C@_0BH@DLPGICA@NtQueryInformationFile?$AA@ 0000000180033cc8     file_manager.obj
 0002:00008ce0       ??_C@_0BN@GNEAHKFP@NtQueryVolumeInformationFile?$AA@ 0000000180033ce0     file_manager.obj
 0002:00008d00       ??_C@_0BF@HIJKNMCB@NtSetInformationFile?$AA@ 0000000180033d00     file_manager.obj
 0002:00008d18       ??_C@_0BF@CKLGLOIH@NtQueryDirectoryFile?$AA@ 0000000180033d18     file_manager.obj
 0002:00008d30       ??_C@_0BA@MANLHNBJ@NtCreateSection?$AA@ 0000000180033d30     file_manager.obj
 0002:00008d40       ??_C@_0P@GFGDHPCO@NtQuerySection?$AA@ 0000000180033d40     file_manager.obj
 0002:00008d50       ??_C@_0BC@NPBLIDJ@DllRegisterServer?$AA@ 0000000180033d50     file_manager.obj
 0002:00008d68       ??_C@_0L@OEMFODKH@DllInstall?$AA@ 0000000180033d68     file_manager.obj
 0002:00008d78       ??_C@_1BC@OHMALLJH@?$AAr?$AAe?$AAg?$AAi?$AAs?$AAt?$AAe?$AAr?$AA?$AA@ 0000000180033d78     file_manager.obj
 0002:00008d90       ??_C@_1BA@OMJLMAD@?$AAi?$AAn?$AAs?$AAt?$AAa?$AAl?$AAl?$AA?$AA@ 0000000180033d90     file_manager.obj
 0002:00008da0       ??_C@_1EA@OGOPELDK@?$AAC?$AAa?$AAn?$AAn?$AAo?$AAt?$AA?5?$AA?$CF?$AAs?$AA?5?$AAs?$AAe?$AAr?$AAv?$AAe?$AAr?$AA?5?$AA?$CF?$AAs?$AA?6?$AAE?$AAr?$AAr?$AAo?$AAr?$AA?3?$AA?5?$AA0?$AAx?$AA?$CF?$AAX?$AA?$AA@ 0000000180033da0     file_manager.obj
 0002:00008de0       ??_C@_1CE@EFFIEBCP@?$AAD?$AAl?$AAl?$AAR?$AAe?$AAg?$AAi?$AAs?$AAt?$AAe?$AAr?$AAS?$AAe?$AAr?$AAv?$AAe?$AAr?$AA?$AA@ 0000000180033de0     file_manager.obj
 0002:00008e08       ??_C@_1BG@MMILPBKA@?$AAD?$AAl?$AAl?$AAI?$AAn?$AAs?$AAt?$AAa?$AAl?$AAl?$AA?$AA@ 0000000180033e08     file_manager.obj
 0002:00008e20       ??_C@_1IG@EMFDMOLM@?$AAT?$AAh?$AAe?$AA?5?$AAp?$AAr?$AAo?$AAc?$AAe?$AAd?$AAu?$AAr?$AAe?$AA?5?$AAe?$AAn?$AAt?$AAr?$AAy?$AA?5?$AAp?$AAo?$AAi?$AAn?$AAt?$AA?5?$AA?$CF?$AAs?$AA?5?$AAc?$AAo?$AAu@ 0000000180033e20     file_manager.obj
 0002:00008ea8       ??_C@_1DM@NJOCDONO@?$AAC?$AAa?$AAn?$AAn?$AAo?$AAt?$AA?5?$AAl?$AAo?$AAa?$AAd?$AA?5?$AAf?$AAi?$AAl?$AAe?$AA?5?$AA?$CF?$AAs?$AA?6?$AAE?$AAr?$AAr?$AAo?$AAr?$AA?3?$AA?5?$AA?$CF?$AAd?$AA?$AA@ 0000000180033ea8     file_manager.obj
 0002:00009120       __xmm@0000001e0000001f0000001e0000001f 0000000180034120     licensing_manager.obj
 0002:00009130       __xmm@0000001f0000001e0000001f0000001f 0000000180034130     licensing_manager.obj
 0002:00009140       __xmm@266e6f69746176697463613d65707974 0000000180034140     licensing_manager.obj
 0002:00009150       __xmm@2f2b393837363534333231307a797877 0000000180034150     crypto.obj
 0002:00009160       __xmm@504f4e4d4c4b4a494847464544434241 0000000180034160     crypto.obj
 0002:00009170       __xmm@633f7068702e6e6f6974617669746361 0000000180034170     licensing_manager.obj
 0002:00009180       __xmm@6665646362615a595857565554535251 0000000180034180     crypto.obj
 0002:00009190       __xmm@6f697461766974636165643d65707974 0000000180034190     licensing_manager.obj
 0002:000091a0       __xmm@7068702e6e6f69746176697463616564 00000001800341a0     licensing_manager.obj
 0002:000091b0       __xmm@767574737271706f6e6d6c6b6a696867 00000001800341b0     crypto.obj
 0002:000097a0       _load_config_used          00000001800347a0     LIBCMT:loadcfg.obj
 0002:00009838       ??_R4exception@std@@6B@    0000000180034838     libcpmt:xthrow.obj
 0002:00009860       ??_R3exception@std@@8      0000000180034860     libcpmt:xthrow.obj
 0002:00009878       ??_R2exception@std@@8      0000000180034878     libcpmt:xthrow.obj
 0002:00009888       ??_R1A@?0A@EA@exception@std@@8 0000000180034888     libcpmt:xthrow.obj
 0002:000098b0       ??_R4bad_alloc@std@@6B@    00000001800348b0     libcpmt:xthrow.obj
 0002:000098d8       ??_R3bad_alloc@std@@8      00000001800348d8     libcpmt:xthrow.obj
 0002:000098f0       ??_R2bad_alloc@std@@8      00000001800348f0     libcpmt:xthrow.obj
 0002:00009908       ??_R1A@?0A@EA@bad_alloc@std@@8 0000000180034908     libcpmt:xthrow.obj
 0002:00009930       ??_R4logic_error@std@@6B@  0000000180034930     libcpmt:xthrow.obj
 0002:00009958       ??_R3logic_error@std@@8    0000000180034958     libcpmt:xthrow.obj
 0002:00009970       ??_R2logic_error@std@@8    0000000180034970     libcpmt:xthrow.obj
 0002:00009988       ??_R1A@?0A@EA@logic_error@std@@8 0000000180034988     libcpmt:xthrow.obj
 0002:000099b0       ??_R4length_error@std@@6B@ 00000001800349b0     libcpmt:xthrow.obj
 0002:000099d8       ??_R3length_error@std@@8   00000001800349d8     libcpmt:xthrow.obj
 0002:000099f0       ??_R2length_error@std@@8   00000001800349f0     libcpmt:xthrow.obj
 0002:00009a10       ??_R1A@?0A@EA@length_error@std@@8 0000000180034a10     libcpmt:xthrow.obj
 0002:00009a38       ??_R4type_info@@6B@        0000000180034a38     LIBCMT:std_type_info_static.obj
 0002:00009a60       ??_R3type_info@@8          0000000180034a60     LIBCMT:std_type_info_static.obj
 0002:00009a78       ??_R2type_info@@8          0000000180034a78     LIBCMT:std_type_info_static.obj
 0002:00009a88       ??_R1A@?0A@EA@type_info@@8 0000000180034a88     LIBCMT:std_type_info_static.obj
 0002:00009ab0       ??_R4bad_array_new_length@std@@6B@ 0000000180034ab0     LIBCMT:throw_bad_alloc.obj
 0002:00009ad8       ??_R3bad_array_new_length@std@@8 0000000180034ad8     LIBCMT:throw_bad_alloc.obj
 0002:00009af0       ??_R2bad_array_new_length@std@@8 0000000180034af0     LIBCMT:throw_bad_alloc.obj
 0002:00009b10       ??_R1A@?0A@EA@bad_array_new_length@std@@8 0000000180034b10     LIBCMT:throw_bad_alloc.obj
 0002:00009b38       ??_R4bad_exception@std@@6B@ 0000000180034b38     libvcruntime:frame.obj
 0002:00009b60       ??_R3bad_exception@std@@8  0000000180034b60     libvcruntime:frame.obj
 0002:00009b78       ??_R2bad_exception@std@@8  0000000180034b78     libvcruntime:frame.obj
 0002:00009b90       ??_R1A@?0A@EA@bad_exception@std@@8 0000000180034b90     libvcruntime:frame.obj
 0002:00009e68       __rtc_iaa                  0000000180034e68     LIBCMT:_initsect_.obj
 0002:00009e70       __rtc_izz                  0000000180034e70     LIBCMT:_initsect_.obj
 0002:00009e78       __rtc_taa                  0000000180034e78     LIBCMT:_initsect_.obj
 0002:00009e80       __rtc_tzz                  0000000180034e80     LIBCMT:_initsect_.obj
 0002:0000e618       _TI2?AVbad_alloc@std@@     0000000180039618     libcpmt:xthrow.obj
 0002:0000e638       _CTA2?AVbad_alloc@std@@    0000000180039638     libcpmt:xthrow.obj
 0002:0000e650       _CT??_R0?AVbad_alloc@std@@@8??0bad_alloc@std@@QEAA@AEBV01@@Z24 0000000180039650     libcpmt:xthrow.obj
 0002:0000e678       _CT??_R0?AVexception@std@@@8??0exception@std@@QEAA@AEBV01@@Z24 0000000180039678     libcpmt:xthrow.obj
 0002:0000e6a0       _CT??_R0?AVlogic_error@std@@@8??0logic_error@std@@QEAA@AEBV01@@Z24 00000001800396a0     libcpmt:xthrow.obj
 0002:0000e6c8       _TI3?AVlength_error@std@@  00000001800396c8     libcpmt:xthrow.obj
 0002:0000e6e8       _CTA3?AVlength_error@std@@ 00000001800396e8     libcpmt:xthrow.obj
 0002:0000e708       _CT??_R0?AVlength_error@std@@@8??0length_error@std@@QEAA@AEBV01@@Z24 0000000180039708     libcpmt:xthrow.obj
 0002:0000e730       _TI3?AVbad_array_new_length@std@@ 0000000180039730     LIBCMT:throw_bad_alloc.obj
 0002:0000e750       _CTA3?AVbad_array_new_length@std@@ 0000000180039750     LIBCMT:throw_bad_alloc.obj
 0002:0000e770       _CT??_R0?AVbad_array_new_length@std@@@8??0bad_array_new_length@std@@QEAA@AEBV01@@Z24 0000000180039770     LIBCMT:throw_bad_alloc.obj
 0002:0000e798       _TI2?AVbad_exception@std@@ 0000000180039798     libvcruntime:frame.obj
 0002:0000e7b8       _CTA2?AVbad_exception@std@@ 00000001800397b8     libvcruntime:frame.obj
 0002:0000e7d0       _CT??_R0?AVbad_exception@std@@@8??0bad_exception@std@@QEAA@AEBV01@@Z24 00000001800397d0     libvcruntime:frame.obj
 0002:0000ec6c       __IMPORT_DESCRIPTOR_KERNEL32 0000000180039c6c     kernel32:KERNEL32.dll
 0002:0000ec80       __IMPORT_DESCRIPTOR_USER32 0000000180039c80     user32:USER32.dll
 0002:0000ec94       __IMPORT_DESCRIPTOR_VMProtectSDK64 0000000180039c94     VMProtectSDK64:VMProtectSDK64.dll
 0002:0000eca8       __NULL_IMPORT_DESCRIPTOR   0000000180039ca8     kernel32:KERNEL32.dll
 0003:00000000       __scrt_native_dllmain_reason 000000018003b000     LIBCMT:utility.obj
 0003:00000008       __isa_available            000000018003b008     LIBCMT:_cpu_disp_.obj
 0003:0000000c       __isa_enabled              000000018003b00c     LIBCMT:_cpu_disp_.obj
 0003:00000010       __memcpy_nt_iters          000000018003b010     LIBCMT:_cpu_disp_.obj
 0003:00000018       __security_cookie          000000018003b018     LIBCMT:gs_cookie.obj
 0003:00000020       __security_cookie_complement 000000018003b020     LIBCMT:gs_cookie.obj
 0003:00000040       __abort_behavior           000000018003b040     libucrt:abort.obj
 0003:00000050       __acrt_initial_locale_data 000000018003b050     libucrt:nlsdata.obj
 0003:000001a8       __acrt_initial_locale_pointers 000000018003b1a8     libucrt:nlsdata.obj
 0003:000001b8       __acrt_wide_c_locale_string 000000018003b1b8     libucrt:nlsdata.obj
 0003:000001c0       _pwctype                   000000018003b1c0     libucrt:ctype.obj
 0003:000001d0       _iob                       000000018003b1d0     libucrt:_file.obj
 0003:000002e0       __acrt_initial_multibyte_data 000000018003b2e0     libucrt:mbctype.obj
 0003:00000508       __acrt_current_multibyte_data 000000018003b508     libucrt:mbctype.obj
 0003:00000610       _mbctype                   000000018003b610     libucrt:mbctype.obj
 0003:00000720       _mbcasemap                 000000018003b720     libucrt:mbctype.obj
 0003:00000820       __globallocalestatus       000000018003b820     libucrt:glstatus.obj
 0003:00000830       __acrt_lconv_c             000000018003b830     libucrt:localeconv.obj
 0003:000008c8       __acrt_lconv_static_decimal 000000018003b8c8     libucrt:localeconv.obj
 0003:000008cc       __acrt_lconv_static_W_decimal 000000018003b8cc     libucrt:localeconv.obj
 0003:000008e8       __dcrt_lowio_console_output_handle 000000018003b8e8     libucrt:initcon.obj
 0003:000008f0       _fltused                   000000018003b8f0     LIBCMT:fltused.obj
 0003:00000900       ??_R0?AVbad_alloc@std@@@8  000000018003b900     libcpmt:xthrow.obj
 0003:00000928       ??_R0?AVexception@std@@@8  000000018003b928     libcpmt:xthrow.obj
 0003:00000950       ??_R0?AVlogic_error@std@@@8 000000018003b950     libcpmt:xthrow.obj
 0003:00000978       ??_R0?AVlength_error@std@@@8 000000018003b978     libcpmt:xthrow.obj
 0003:000009a0       ??_R0?AVtype_info@@@8      000000018003b9a0     LIBCMT:std_type_info_static.obj
 0003:000009c0       ??_R0?AVbad_array_new_length@std@@@8 000000018003b9c0     LIBCMT:throw_bad_alloc.obj
 0003:000009f0       ??_R0?AVbad_exception@std@@@8 000000018003b9f0     libvcruntime:frame.obj
 0003:00000a28       __scrt_current_native_startup_state 000000018003ba28     LIBCMT:utility.obj
 0003:00000a30       __scrt_native_startup_lock 000000018003ba30     LIBCMT:utility.obj
 0003:00000a70       ?__type_info_root_node@@3U__type_info_node@@A 000000018003ba70     LIBCMT:tncleanup.obj
 0003:00000a80       ?_OptionsStorage@?1??__local_stdio_scanf_options@@9@4_KA 000000018003ba80     LIBCMT:default_local_stdio_options.obj
 0003:00000a88       __scrt_debugger_hook_flag  000000018003ba88     LIBCMT:utility_desktop.obj
 0003:00000a8c       __favor                    000000018003ba8c     LIBCMT:_cpu_disp_.obj
 0003:00000a90       ?g_OutOfMemoryExceptionCallback@@3P6APEAXXZEA 000000018003ba90     libvcruntime:frame.obj
 0003:00000bb8       __pPurecall                000000018003bbb8     libvcruntime:purevirt_data.obj
 0003:00000bc0       ?pArgList@UnDecorator@@0PEAVReplicator@@EA 000000018003bbc0     libvcruntime:undname.obj
 0003:00000bc8       ?pZNameList@UnDecorator@@0PEAVReplicator@@EA 000000018003bbc8     libvcruntime:undname.obj
 0003:00000bd0       ?pTemplateArgList@UnDecorator@@0PEAVReplicator@@EA 000000018003bbd0     libvcruntime:undname.obj
 0003:00000bd8       ?gName@UnDecorator@@0PEBDEB 000000018003bbd8     libvcruntime:undname.obj
 0003:00000be0       ?name@UnDecorator@@0PEBDEB 000000018003bbe0     libvcruntime:undname.obj
 0003:00000be8       ?outputString@UnDecorator@@0PEADEA 000000018003bbe8     libvcruntime:undname.obj
 0003:00000bf0       ?maxStringLength@UnDecorator@@0HA 000000018003bbf0     libvcruntime:undname.obj
 0003:00000bf4       ?disableFlags@UnDecorator@@0KA 000000018003bbf4     libvcruntime:undname.obj
 0003:00000bf8       ?fExplicitTemplateParams@UnDecorator@@0_NA 000000018003bbf8     libvcruntime:undname.obj
 0003:00000bf9       ?fGetTemplateArgumentList@UnDecorator@@0_NA 000000018003bbf9     libvcruntime:undname.obj
 0003:00000c00       ?m_pGetParameter@UnDecorator@@0P6APEADJ@ZEA 000000018003bc00     libvcruntime:undname.obj
 0003:00000d68       _environ_table             000000018003bd68     libucrt:environment_initialization.obj
 0003:00000d70       _wenviron_table            000000018003bd70     libucrt:environment_initialization.obj
 0003:00000d78       __dcrt_initial_wide_environment 000000018003bd78     libucrt:environment_initialization.obj
 0003:00000d80       __dcrt_initial_narrow_environment 000000018003bd80     libucrt:environment_initialization.obj
 0003:00000d88       __acrt_atexit_table        000000018003bd88     libucrt:onexit.obj
 0003:00000da0       __acrt_at_quick_exit_table 000000018003bda0     libucrt:onexit.obj
 0003:00000db8       __acrt_locale_changed_data 000000018003bdb8     libucrt:wsetlocale.obj
 0003:00000dc0       __acrt_current_locale_data 000000018003bdc0     libucrt:nlsdata.obj
 0003:00000dc8       _nstream                   000000018003bdc8     libucrt:_file.obj
 0003:00000dd0       __piob                     000000018003bdd0     libucrt:_file.obj
 0003:00000de0       __acrt_stdout_buffer       000000018003bde0     libucrt:_sftbuf.obj
 0003:00000de8       __acrt_stderr_buffer       000000018003bde8     libucrt:_sftbuf.obj
 0003:00000df0       __pioinfo                  000000018003bdf0     libucrt:ioinit.obj
 0003:000011f0       _nhandle                   000000018003c1f0     libucrt:ioinit.obj
 0003:000015b4       __mbcodepage               000000018003c5b4     libucrt:mbctype.obj
 0003:000015b8       __ismbcodepage             000000018003c5b8     libucrt:mbctype.obj
 0003:000015c0       __mbulinfo                 000000018003c5c0     libucrt:mbctype.obj
 0003:000015d0       __mblocalename             000000018003c5d0     libucrt:mbctype.obj
 0003:000015dc       __argc                     000000018003c5dc     libucrt:argv_data.obj
 0003:000015e0       __argv                     000000018003c5e0     libucrt:argv_data.obj
 0003:000015e8       __wargv                    000000018003c5e8     libucrt:argv_data.obj
 0003:000015f0       _acmdln                    000000018003c5f0     libucrt:argv_data.obj
 0003:000015f8       _wcmdln                    000000018003c5f8     libucrt:argv_data.obj
 0003:00001600       _pgmptr                    000000018003c600     libucrt:argv_data.obj
 0003:00001608       __acrt_heap                000000018003c608     libucrt:heap_handle.obj
 0003:0000163c       __acrt_lconv_static_null   000000018003c63c     libucrt:localeconv.obj
 0003:00001640       __acrt_lconv_static_W_null 000000018003c640     libucrt:localeconv.obj
 0003:00001648       __fma3_is_available        000000018003c648     libucrt:fma3_available.obj
 0003:0000164c       __use_fma3_lib             000000018003c64c     libucrt:fma3_available.obj
 0003:00001bc0       ?self_@Core@@0PEAV1@EA     000000018003cbc0     core.obj
 0003:00001bc8       ?loader_data@@3PEAUGlobalData@@EA 000000018003cbc8     core.obj
 0003:00001bd0       ?page_size_@HookedAPI@@0_KA 000000018003cbd0     hook_manager.obj
 0003:00001bd8       ?_OptionsStorage@?1??__local_stdio_printf_options@@9@4_KA 000000018003cbd8     hook_manager.obj
 0003:00001be0       __@@_PchSym_@00@UfhvihUormfcUwvhpglkUenkilgvxgRDOFOBRnzhgviUgnkUdrmPifmgrnvUGEUivovzhvUkivxlnkrovwOlyq@7B2D037AAFE17169 000000018003cbe0     precompiled.obj
 0003:00001be4       __scrt_ucrt_dll_is_in_use  000000018003cbe4     <common>
 0003:00001be8       __dyn_tls_init_callback    000000018003cbe8     <common>

 entry point at        0001:0001773c

 Static symbols

 0001:000028b4       $LN203                     00000001800038b4     registry_manager.obj
 0001:00008f34       $LN85                      0000000180009f34     hook_manager.obj
 0001:00008fa0       $LN84                      0000000180009fa0     hook_manager.obj
 0001:000090a0       $LN83                      000000018000a0a0     hook_manager.obj
 0001:000090a8       $LN82                      000000018000a0a8     hook_manager.obj
 0001:0000b6dc       $LN195                     000000018000c6dc     licensing_manager.obj
 0001:0000b708       $LN194                     000000018000c708     licensing_manager.obj
 0001:0000e364       $LN88                      000000018000f364     loader.obj
 0001:00015c2c       $LN26                      0000000180016c2c     file_manager.obj
 0001:000173f0       ?dllmain_crt_dispatch@@YAHQEAUHINSTANCE__@@KQEAX@Z 00000001800183f0 f   LIBCMT:dll_dllmain.obj
 0001:00017440       ?dllmain_crt_process_attach@@YAHQEAUHINSTANCE__@@QEAX@Z 0000000180018440 f   LIBCMT:dll_dllmain.obj
 0001:0001756c       ?dllmain_crt_process_detach@@YAH_N@Z 000000018001856c f   LIBCMT:dll_dllmain.obj
 0001:000175f0       ?dllmain_dispatch@@YAHQEAUHINSTANCE__@@KQEAX@Z 00000001800185f0 f   LIBCMT:dll_dllmain.obj
 0001:000176e8       ?dllmain_raw@@YAHQEAUHINSTANCE__@@KQEAX@Z 00000001800186e8 f   LIBCMT:dll_dllmain.obj
 0001:00018280       ?CatchIt@@YAXPEAUEHExceptionRecord@@PEA_KPEAU_CONTEXT@@PEAU_xDISPATCHER_CONTEXT@@PEBU_s_FuncInfo@@PEBU_s_HandlerType@@PEBU_s_CatchableType@@PEBU_s_TryBlockMapEntry@@H1EE@Z 0000000180019280 f   libvcruntime:frame.obj
 0001:00018344       ?ExFilterRethrow@@YAHPEAU_EXCEPTION_POINTERS@@PEAUEHExceptionRecord@@PEAH@Z 0000000180019344 f   libvcruntime:frame.obj
 0001:000183cc       ?FindHandler@@YAXPEAUEHExceptionRecord@@PEA_KPEAU_CONTEXT@@PEAU_xDISPATCHER_CONTEXT@@PEBU_s_FuncInfo@@EH1@Z 00000001800193cc f   libvcruntime:frame.obj
 0001:0001889c       ?FindHandlerForForeignException@@YAXPEAUEHExceptionRecord@@PEA_KPEAU_CONTEXT@@PEAU_xDISPATCHER_CONTEXT@@PEBU_s_FuncInfo@@HH1@Z 000000018001989c f   libvcruntime:frame.obj
 0001:00018b08       ?IsInExceptionSpec@@YAEPEAUEHExceptionRecord@@PEBU_s_ESTypeList@@@Z 0000000180019b08 f   libvcruntime:frame.obj
 0001:00019c70       $$000000                   000000018001ac70     libvcruntime:memset.obj
 0001:00019d5c       MsetTab                    000000018001ad5c     libvcruntime:memset.obj
 0001:00019e20       $$000000                   000000018001ae20     libvcruntime:memcpy.obj
 0001:00019ec7       MoveSmall                  000000018001aec7     libvcruntime:memcpy.obj
 0001:0001a520       $$000000                   000000018001b520     libvcruntime:handlers.obj
 0001:0001ac30       $$000000                   000000018001bc30     libvcruntime:_jmpuwind_.obj
 0001:0001ad24       ?try_get_function@@YAPEAXW4function_id@?A0xb81d63e2@@QEBDQEBW4module_id@2@2@Z 000000018001bd24 f   libvcruntime:winapi_downlevel.obj
 0001:0001c0c0       ??$common_vsprintf@Vformat_validation_base@__crt_stdio_output@@_W@@YAH_KQEA_W0QEB_WQEAU__crt_locale_pointers@@QEAD@Z 000000018001d0c0 f   libucrt:output.obj
 0001:0001db2c       ?internal_isupper_l@@YA_NHQEAU__crt_locale_pointers@@@Z 000000018001eb2c f   libucrt:tolower_toupper.obj
 0001:0001e184       ?atexit_exception_filter@@YAHK@Z 000000018001f184 f   libucrt:exit.obj
 0001:0001e190       ?common_exit@@YAXHW4_crt_exit_cleanup_mode@@W4_crt_exit_return_mode@@@Z 000000018001f190 f   libucrt:exit.obj
 0001:0001e2fc       ?exit_or_terminate_process@@YAXI@Z 000000018001f2fc f   libucrt:exit.obj
 0001:0001e348       ?try_cor_exit_process@@YAXI@Z 000000018001f348 f   libucrt:exit.obj
 0001:0001e3e0       ??$parse_command_line@D@@YAXPEADPEAPEAD0PEA_K2@Z 000000018001f3e0 f   libucrt:argv_parsing.obj
 0001:0001e778       ??$common_initialize_environment_nolock@D@@YAHXZ 000000018001f778 f   libucrt:environment_initialization.obj
 0001:0001e7e4       ??$create_environment@D@@YAQEAPEADQEAD@Z 000000018001f7e4 f   libucrt:environment_initialization.obj
 0001:0001e8e0       ??$free_environment@D@@YAXQEAPEAD@Z 000000018001f8e0 f   libucrt:environment_initialization.obj
 0001:0001e924       ??$free_environment@_W@@YAXQEAPEA_W@Z 000000018001f924 f   libucrt:environment_initialization.obj
 0001:0001e968       ??$uninitialize_environment_internal@D@@YAXAEAPEAPEAD@Z 000000018001f968 f   libucrt:environment_initialization.obj
 0001:0001e984       ??$uninitialize_environment_internal@_W@@YAXAEAPEAPEA_W@Z 000000018001f984 f   libucrt:environment_initialization.obj
 0001:0001ebbc       ??R<lambda_4e60a939b0d047cfe11ddc22648dfba9>@@QEBAHXZ 000000018001fbbc f   libucrt:onexit.obj
 0001:0001ee6c       initialize_global_variables 000000018001fe6c f   libucrt:initialization.obj
 0001:0001ee80       initialize_c               000000018001fe80 f   libucrt:initialization.obj
 0001:0001eea4       uninitialize_c             000000018001fea4 f   libucrt:initialization.obj
 0001:0001eea8       initialize_environment     000000018001fea8 f   libucrt:initialization.obj
 0001:0001eeac       uninitialize_environment   000000018001feac f   libucrt:initialization.obj
 0001:0001eebc       initialize_global_state_isolation 000000018001febc f   libucrt:initialization.obj
 0001:0001eec0       uninitialize_global_state_isolation 000000018001fec0 f   libucrt:initialization.obj
 0001:0001eec4       initialize_pointers        000000018001fec4 f   libucrt:initialization.obj
 0001:0001ef18       uninitialize_vcruntime     000000018001ff18 f   libucrt:initialization.obj
 0001:0001ef20       uninitialize_allocated_memory 000000018001ff20 f   libucrt:initialization.obj
 0001:0001efb0       report_memory_leaks        000000018001ffb0 f   libucrt:initialization.obj
 0001:0001f444       ?construct_ptd_array@@YAXQEAU__acrt_ptd@@@Z 0000000180020444 f   libucrt:per_thread_data.obj
 0001:0001f514       ?destroy_fls@@YAXPEAX@Z    0000000180020514 f   libucrt:per_thread_data.obj
 0001:0001f534       ?destroy_ptd_array@@YAXQEAU__acrt_ptd@@@Z 0000000180020534 f   libucrt:per_thread_data.obj
 0001:0001f62c       ?replace_current_thread_locale_nolock@@YAXQEAU__acrt_ptd@@QEAU__crt_locale_data@@@Z 000000018002062c f   libucrt:per_thread_data.obj
 0001:0001fe80       ?fp_format_a@@YAHQEBNPEAD_KQEAD2H_NIQEAU__crt_locale_pointers@@@Z 0000000180020e80 f   libucrt:cvt.obj
 0001:000201e0       ?fp_format_e@@YAHQEBNQEAD_K12H_NIQEAU__crt_locale_pointers@@@Z 00000001800211e0 f   libucrt:cvt.obj
 0001:000202b0       ?fp_format_e_internal@@YAHQEAD_KH_NIQEAU_strflt@@2QEAU__crt_locale_pointers@@@Z 00000001800212b0 f   libucrt:cvt.obj
 0001:0002048c       ?fp_format_f_internal@@YAHQEAD_KHQEAU_strflt@@_NQEAU__crt_locale_pointers@@@Z 000000018002148c f   libucrt:cvt.obj
 0001:000205d4       ?fp_format_g@@YAHQEBNQEAD_K12H_NIQEAU__crt_locale_pointers@@@Z 00000001800215d4 f   libucrt:cvt.obj
 0001:0002070c       ?fp_format_nan_or_infinity@@YAHW4__acrt_fp_class@@_NPEAD_K1@Z 000000018002170c f   libucrt:cvt.obj
 0001:00020c68       ?initialize_inherited_file_handles_nolock@@YAXXZ 0000000180021c68 f   libucrt:ioinit.obj
 0001:00020d54       ?initialize_stdio_handles_nolock@@YAXXZ 0000000180021d54 f   libucrt:ioinit.obj
 0001:00020f0c       ?__acrt_LCMapStringA_stat@@YAHPEAU__crt_locale_pointers@@PEB_WKPEBDHPEADHHH@Z 0000000180021f0c f   libucrt:lcmapstringa.obj
 0001:000213b8       ?try_get_function@@YAPEAXW4function_id@?A0x63058377@@QEBDQEBW4module_id@2@2@Z 00000001800223b8 f   libucrt:winapi_thunks.obj
 0001:0002199c       ?<helper_func_cdecl>@<lambda_2feae5270eb4d0d5532525f423405775>@@CAHPEBX0@Z 000000018002299c f   libucrt:argv_wildcards.obj
 0001:000219b0       ??$common_expand_argv_wildcards@D@@YAHQEAPEADQEAPEAPEAD@Z 00000001800229b0 f   libucrt:argv_wildcards.obj
 0001:00021bbc       ??$copy_and_add_argument_to_buffer@D@@YAHQEBD0_KAEAV?$argument_list@D@?A0xca0879c4@@@Z 0000000180022bbc f   libucrt:argv_wildcards.obj
 0001:00021ccc       ??$expand_argument_wildcards@D@@YAHQEAD0AEAV?$argument_list@D@?A0xca0879c4@@@Z 0000000180022ccc f   libucrt:argv_wildcards.obj
 0001:00021f80       ??R<lambda_ad1ced32f4ac17aa236e5ef05d6b3b7c>@@QEBAXXZ 0000000180022f80 f   libucrt:mbctype.obj
 0001:00022198       ?getSystemCP@@YAHH@Z       0000000180023198 f   libucrt:mbctype.obj
 0001:00022218       ?setSBCS@@YAXPEAU__crt_multibyte_data@@@Z 0000000180023218 f   libucrt:mbctype.obj
 0001:000222a8       ?setSBUpLow@@YAXPEAU__crt_multibyte_data@@@Z 00000001800232a8 f   libucrt:mbctype.obj
 0001:0002248c       ?setmbcp_internal@@YAHH_N@Z 000000018002348c f   libucrt:mbctype.obj
 0001:000229d4       ?x_ismbbtype_l@@YAHPEAU__crt_locale_pointers@@IHH@Z 00000001800239d4 f   libucrt:ismbbyte.obj
 0001:000236f4       ?free_crt_array_internal@@YAXQEAPEBX_K@Z 00000001800246f4 f   libucrt:inittime.obj
 0001:0002530c       memcpy_s                   000000018002630c f   libucrt:cfout.obj
 0001:00025518       common_flush_all           0000000180026518 f   libucrt:fflush.obj
 0001:000259d0       ?GetTableIndexFromLocaleName@@YAHPEB_W@Z 00000001800269d0 f   libucrt:lcidtoname_downlevel.obj
 0001:00025ad0       ?shortsort@@YAXPEAD0_KP6AHPEBX2@Z@Z 0000000180026ad0 f   libucrt:qsort.obj
 0001:00026014       ?initialize_multibyte@@YAHXZ 0000000180027014 f   libucrt:multibyte_initializer.obj
 0001:00026270       $$000000                   0000000180027270     libucrt:log10.obj
 0001:0002681c       ?write_double_translated_ansi_nolock@@YA?AUwrite_result@?A0x9c548279@@HQEBDI@Z 000000018002781c f   libucrt:write.obj
 0001:00026a24       ?write_text_ansi_nolock@@YA?AUwrite_result@?A0x9c548279@@HQEBDI@Z 0000000180027a24 f   libucrt:write.obj
 0001:00026b2c       ?write_text_utf16le_nolock@@YA?AUwrite_result@?A0x9c548279@@HQEBDI@Z 0000000180027b2c f   libucrt:write.obj
 0001:00026c48       ?write_text_utf8_nolock@@YA?AUwrite_result@?A0x9c548279@@HQEBDI@Z 0000000180027c48 f   libucrt:write.obj
 0001:0002718c       ??$common_lseek_nolock@_J@@YA_JH_JH@Z 000000018002818c f   libucrt:lseek.obj
 0001:00027578       common_control87           0000000180028578 f   libucrt:ieee.obj
 0001:00027810       _call_matherr              0000000180028810 f   libucrt:libm_error.obj
 0001:00027878       _exception_enabled         0000000180028878 f   libucrt:libm_error.obj
 0001:00027b10       _log_special_common        0000000180028b10 f   libucrt:log_special.obj
 0001:00027e20       $$000000                   0000000180028e20     libucrt:fpsr.obj
 0001:00028470       $$000000                   0000000180029470     LIBCMT:_amdsecgs_.obj
 0001:0002865c       capture_current_context    000000018002965c f   LIBCMT:gs_report.obj
 0001:000286cc       capture_previous_context   00000001800296cc f   LIBCMT:gs_report.obj
 0001:00028740       $$000000                   0000000180029740     LIBCMT:_chkstk_.obj
 0001:000287b0       $$000000                   00000001800297b0     libvcruntime:memcmp.obj
 0001:000289d0       $$000000                   00000001800299d0     LIBCMT:_guard_dispatch_.obj
 0001:000289f0       ?dtor$0@?0???0RegistryKey@@QEAA@PEAV0@PEB_W_N@Z@4HA 00000001800299f0 f   registry_manager.obj
 0001:00028a00       ?dtor$1@?0???0RegistryKey@@QEAA@PEAV0@PEB_W_N@Z@4HA 0000000180029a00 f   registry_manager.obj
 0001:00028a10       ?dtor$0@?0??AddValue@RegistryKey@@AEAAPEAVRegistryValue@@PEA_W@Z@4HA 0000000180029a10 f   registry_manager.obj
 0001:00028a30       ?dtor$0@?0??AddChild@RegistryKey@@AEAAPEAV1@PEB_W_NPEA_N@Z@4HA 0000000180029a30 f   registry_manager.obj
 0001:00028a50       ?dtor$0@?0??AddKey@RegistryKey@@QEAAPEAV1@PEB_W_NPEA_N@Z@4HA 0000000180029a50 f   registry_manager.obj
 0001:00028a60       ?dtor$1@?0??full_name@RegistryKey@@QEBA?AVUnicodeString@@XZ@4HA 0000000180029a60 f   registry_manager.obj
 0001:00028a70       ?dtor$0@?0???0RegistryManager@@QEAA@PEBEPEAUHINSTANCE__@@0PEAVVirtualObjectList@@@Z@4HA 0000000180029a70 f   registry_manager.obj
 0001:00028a80       ?dtor$0@?0??NtSetValueKey@RegistryManager@@QEAAJPEAXPEAU_UNICODE_STRING@@KK0K@Z@4HA 0000000180029a80 f   registry_manager.obj
 0001:00028a8c       ?catch$5@?0??NtSetValueKey@RegistryManager@@QEAAJPEAXPEAU_UNICODE_STRING@@KK0K@Z@4HA 0000000180029a8c f   registry_manager.obj
 0001:00028a99       __catch$?NtSetValueKey@RegistryManager@@QEAAJPEAXPEAU_UNICODE_STRING@@KK0K@Z$0 0000000180029a99 f   registry_manager.obj
 0001:00028ab0       ?dtor$0@?0??GetRootKey@RegistryManager@@AEAAPEAVRegistryKey@@PEAXPEAI_N@Z@4HA 0000000180029ab0 f   registry_manager.obj
 0001:00028ac0       ?dtor$0@?0??NtCreateKey@RegistryManager@@QEAAJPEAPEAXKPEAU_OBJECT_ATTRIBUTES@@KPEAU_UNICODE_STRING@@KPEAK@Z@4HA 0000000180029ac0 f   registry_manager.obj
 0001:00028acc       ?dtor$1@?0??NtCreateKey@RegistryManager@@QEAAJPEAPEAXKPEAU_OBJECT_ATTRIBUTES@@KPEAU_UNICODE_STRING@@KPEAK@Z@4HA 0000000180029acc f   registry_manager.obj
 0001:00028ad8       ?catch$7@?0??NtCreateKey@RegistryManager@@QEAAJPEAPEAXKPEAU_OBJECT_ATTRIBUTES@@KPEAU_UNICODE_STRING@@KPEAK@Z@4HA 0000000180029ad8 f   registry_manager.obj
 0001:00028ae5       __catch$?NtCreateKey@RegistryManager@@QEAAJPEAPEAXKPEAU_OBJECT_ATTRIBUTES@@KPEAU_UNICODE_STRING@@KPEAK@Z$0 0000000180029ae5 f   registry_manager.obj
 0001:00028b00       ?dtor$0@?0??NtOpenKey@RegistryManager@@QEAAJPEAPEAXKPEAU_OBJECT_ATTRIBUTES@@@Z@4HA 0000000180029b00 f   registry_manager.obj
 0001:00028b0c       ?dtor$1@?0??NtOpenKey@RegistryManager@@QEAAJPEAPEAXKPEAU_OBJECT_ATTRIBUTES@@@Z@4HA 0000000180029b0c f   registry_manager.obj
 0001:00028b38       ?catch$10@?0??NtOpenKey@RegistryManager@@QEAAJPEAPEAXKPEAU_OBJECT_ATTRIBUTES@@@Z@4HA 0000000180029b38 f   registry_manager.obj
 0001:00028b45       __catch$?NtOpenKey@RegistryManager@@QEAAJPEAPEAXKPEAU_OBJECT_ATTRIBUTES@@@Z$0 0000000180029b45 f   registry_manager.obj
 0001:00028b53       ?dtor$2@?0??NtOpenKey@RegistryManager@@QEAAJPEAPEAXKPEAU_OBJECT_ATTRIBUTES@@@Z@4HA 0000000180029b53 f   registry_manager.obj
 0001:00028b80       ?dtor$0@?0??NtOpenKeyEx@RegistryManager@@QEAAJPEAPEAXKPEAU_OBJECT_ATTRIBUTES@@K@Z@4HA 0000000180029b80 f   registry_manager.obj
 0001:00028b8c       ?dtor$1@?0??NtOpenKeyEx@RegistryManager@@QEAAJPEAPEAXKPEAU_OBJECT_ATTRIBUTES@@K@Z@4HA 0000000180029b8c f   registry_manager.obj
 0001:00028bb8       ?catch$10@?0??NtOpenKeyEx@RegistryManager@@QEAAJPEAPEAXKPEAU_OBJECT_ATTRIBUTES@@K@Z@4HA 0000000180029bb8 f   registry_manager.obj
 0001:00028bc5       __catch$?NtOpenKeyEx@RegistryManager@@QEAAJPEAPEAXKPEAU_OBJECT_ATTRIBUTES@@K@Z$0 0000000180029bc5 f   registry_manager.obj
 0001:00028bd3       ?dtor$2@?0??NtOpenKeyEx@RegistryManager@@QEAAJPEAPEAXKPEAU_OBJECT_ATTRIBUTES@@K@Z@4HA 0000000180029bd3 f   registry_manager.obj
 0001:00028c00       ?dtor$0@?0??NtQueryValueKey@RegistryManager@@QEAAJPEAXPEAU_UNICODE_STRING@@W4_KEY_VALUE_INFORMATION_CLASS@@0KPEAK@Z@4HA 0000000180029c00 f   registry_manager.obj
 0001:00028c0c       ?dtor$1@?0??NtQueryValueKey@RegistryManager@@QEAAJPEAXPEAU_UNICODE_STRING@@W4_KEY_VALUE_INFORMATION_CLASS@@0KPEAK@Z@4HA 0000000180029c0c f   registry_manager.obj
 0001:00028c20       ?dtor$0@?0??NtQueryKey@RegistryManager@@QEAAJPEAXW4_KEY_INFORMATION_CLASS@@0KPEAK@Z@4HA 0000000180029c20 f   registry_manager.obj
 0001:00028c2c       ?catch$5@?0??NtQueryKey@RegistryManager@@QEAAJPEAXW4_KEY_INFORMATION_CLASS@@0KPEAK@Z@4HA 0000000180029c2c f   registry_manager.obj
 0001:00028c39       __catch$?NtQueryKey@RegistryManager@@QEAAJPEAXW4_KEY_INFORMATION_CLASS@@0KPEAK@Z$0 0000000180029c39 f   registry_manager.obj
 0001:00028c50       ?dtor$0@?0??NtEnumerateKey@RegistryManager@@QEAAJPEAXKW4_KEY_INFORMATION_CLASS@@0KPEAK@Z@4HA 0000000180029c50 f   registry_manager.obj
 0001:00028c5c       ?catch$14@?0??NtEnumerateKey@RegistryManager@@QEAAJPEAXKW4_KEY_INFORMATION_CLASS@@0KPEAK@Z@4HA 0000000180029c5c f   registry_manager.obj
 0001:00028c69       __catch$?NtEnumerateKey@RegistryManager@@QEAAJPEAXKW4_KEY_INFORMATION_CLASS@@0KPEAK@Z$0 0000000180029c69 f   registry_manager.obj
 0001:00028c77       ?dtor$1@?0??NtEnumerateKey@RegistryManager@@QEAAJPEAXKW4_KEY_INFORMATION_CLASS@@0KPEAK@Z@4HA 0000000180029c77 f   registry_manager.obj
 0001:00028c83       ?dtor$2@?0??NtEnumerateKey@RegistryManager@@QEAAJPEAXKW4_KEY_INFORMATION_CLASS@@0KPEAK@Z@4HA 0000000180029c83 f   registry_manager.obj
 0001:00028c8f       ?catch$15@?0??NtEnumerateKey@RegistryManager@@QEAAJPEAXKW4_KEY_INFORMATION_CLASS@@0KPEAK@Z@4HA 0000000180029c8f f   registry_manager.obj
 0001:00028c9c       __catch$?NtEnumerateKey@RegistryManager@@QEAAJPEAXKW4_KEY_INFORMATION_CLASS@@0KPEAK@Z$2 0000000180029c9c f   registry_manager.obj
 0001:00028cb0       ?filt$0@?0??ExportedIsVirtualMachinePresent@@YA_NXZ@4HA 0000000180029cb0 f   core.obj
 0001:00028cd7       ?filt$1@?0??ExportedIsVirtualMachinePresent@@YA_NXZ@4HA 0000000180029cd7 f   core.obj
 0001:00028d00       ?filt$0@?0??ExportedIsDebuggerPresent@@YA_N_N@Z@4HA 0000000180029d00 f   core.obj
 0001:00028d60       ?dtor$0@?0??Init@Core@@QEAA_NPEAUHINSTANCE__@@@Z@4HA 0000000180029d60 f   core.obj
 0001:00028d80       ?dtor$1@?0??Init@Core@@QEAA_NPEAUHINSTANCE__@@@Z@4HA 0000000180029d80 f   core.obj
 0001:00028da0       ?dtor$6@?0??Init@Core@@QEAA_NPEAUHINSTANCE__@@@Z@4HA 0000000180029da0 f   core.obj
 0001:00028dc0       ?dtor$3@?0??Init@Core@@QEAA_NPEAUHINSTANCE__@@@Z@4HA 0000000180029dc0 f   core.obj
 0001:00028de0       ?dtor$4@?0??Init@Core@@QEAA_NPEAUHINSTANCE__@@@Z@4HA 0000000180029de0 f   core.obj
 0001:00028e00       ?dtor$5@?0??Init@Core@@QEAA_NPEAUHINSTANCE__@@@Z@4HA 0000000180029e00 f   core.obj
 0001:00028e20       ?dtor$0@?0??hardware_id@Core@@QEAAPEAVHardwareID@@XZ@4HA 0000000180029e20 f   core.obj
 0001:00028e40       ?dtor$0@?0??modpow@BigNumber@@QEBAPEAVCryptoContainer@@AEBV2@_K111@Z@4HA 0000000180029e40 f   crypto.obj
 0001:00028e60       ?dtor$0@?0??ExportedGetCurrentHWID@@YAHPEADH@Z@4HA 0000000180029e60 f   hwid.obj
 0001:00028e80       ?dtor$0@?0???0HardwareID@@QEAA@XZ@4HA 0000000180029e80 f   hwid.obj
 0001:00028ea0       ?dtor$0@?0??ExportedGetSerialNumberState@@YAHXZ@4HA 0000000180029ea0 f   licensing_manager.obj
 0001:00028eb0       ?dtor$0@?0???0LicensingManager@@QEAA@PEAEI0@Z@4HA 0000000180029eb0 f   licensing_manager.obj
 0001:00028ed0       ?dtor$0@?0??SetSerialNumber@LicensingManager@@QEAAHPEBD@Z@4HA 0000000180029ed0 f   licensing_manager.obj
 0001:00028edc       ?dtor$1@?0??SetSerialNumber@LicensingManager@@QEAAHPEBD@Z@4HA 0000000180029edc f   licensing_manager.obj
 0001:00028ef0       ?dtor$0@?0??GetSerialNumberData@LicensingManager@@QEAA_NPEAUVMProtectSerialNumberData@@H@Z@4HA 0000000180029ef0 f   licensing_manager.obj
 0001:00028f00       ?dtor$0@?0??ActivateLicense@LicensingManager@@QEBAHPEBDPEADH@Z@4HA 0000000180029f00 f   licensing_manager.obj
 0001:00028f10       ?dtor$0@?0??DeactivateLicense@LicensingManager@@QEBAHPEBD@Z@4HA 0000000180029f10 f   licensing_manager.obj
 0001:00028f20       ?dtor$0@?0??GetOfflineActivationString@LicensingManager@@QEBAHPEBDPEADH@Z@4HA 0000000180029f20 f   licensing_manager.obj
 0001:00028f30       ?dtor$0@?0??GetOfflineDeactivationString@LicensingManager@@QEBAHPEBDPEADH@Z@4HA 0000000180029f30 f   licensing_manager.obj
 0001:00028f40       ?dtor$0@?0??Send@BaseRequest@@QEAA_NXZ@4HA 0000000180029f40 f   licensing_manager.obj
 0001:00028f50       ?dtor$0@?0??BuildUrl@ActivationRequest@@AEAA_NAEBVCryptoContainer@@PEBD_N@Z@4HA 0000000180029f50 f   licensing_manager.obj
 0001:00028f70       ?catch$64@?0???$_Construct@PEAD@?$basic_string@_WU?$char_traits@_W@std@@V?$allocator@_W@2@@std@@QEAAXPEAD0Uinput_iterator_tag@1@@Z@4HA 0000000180029f70 f   licensing_manager.obj
 0001:00028f7e       __catch$??$_Construct@PEAD@?$basic_string@_WU?$char_traits@_W@std@@V?$allocator@_W@2@@std@@QEAAXPEAD0Uinput_iterator_tag@1@@Z$0 0000000180029f7e f   licensing_manager.obj
 0001:00029020       ?catch$107@?0??_Copy@?$basic_string@_WU?$char_traits@_W@std@@V?$allocator@_W@2@@std@@QEAAX_K0@Z@4HA 000000018002a020 f   licensing_manager.obj
 0001:0002902d       __catch$?_Copy@?$basic_string@_WU?$char_traits@_W@std@@V?$allocator@_W@2@@std@@QEAAX_K0@Z$0 000000018002a02d f   licensing_manager.obj
 0001:00029052       ?catch$106@?0??_Copy@?$basic_string@_WU?$char_traits@_W@std@@V?$allocator@_W@2@@std@@QEAAX_K0@Z@4HA 000000018002a052 f   licensing_manager.obj
 0001:00029060       __catch$?_Copy@?$basic_string@_WU?$char_traits@_W@std@@V?$allocator@_W@2@@std@@QEAAX_K0@Z$1 000000018002a060 f   licensing_manager.obj
 0001:00029100       ?filt$0@?0??SetupImage@@YAIXZ@4HA 000000018002a100 f   loader.obj
 0001:00029178       ?filt$1@?0??SetupImage@@YAIXZ@4HA 000000018002a178 f   loader.obj
 0001:000291a2       ?filt$2@?0??SetupImage@@YAIXZ@4HA 000000018002a1a2 f   loader.obj
 0001:000291d0       ?dtor$0@?0???0ResourceManager@@QEAA@PEBEPEAUHINSTANCE__@@0@Z@4HA 000000018002a1d0 f   resource_manager.obj
 0001:000291e0       ?dtor$0@?0??InternalLoadResource@ResourceManager@@AEAAPEAXPEAUHINSTANCE__@@PEAUHRSRC__@@@Z@4HA 000000018002a1e0 f   resource_manager.obj
 0001:000291f0       ?dtor$0@?0??InternalFindResourceExW@ResourceManager@@AEAAPEAUHRSRC__@@PEAUHINSTANCE__@@PEB_W1G@Z@4HA 000000018002a1f0 f   resource_manager.obj
 0001:00029200       ?dtor$0@?0??DecryptString@StringManager@@QEAAPEBXPEBX@Z@4HA 000000018002a200 f   string_manager.obj
 0001:0002920c       ?dtor$1@?0??DecryptString@StringManager@@QEAAPEBXPEBX@Z@4HA 000000018002a20c f   string_manager.obj
 0001:00029230       ?dtor$0@?0???0Path@@QEAA@PEA_W@Z@4HA 000000018002a230 f   file_manager.obj
 0001:0002923c       ?dtor$1@?0???0Path@@QEAA@PEA_W@Z@4HA 000000018002a23c f   file_manager.obj
 0001:00029248       ?dtor$2@?0???0Path@@QEAA@PEA_W@Z@4HA 000000018002a248 f   file_manager.obj
 0001:00029260       ?dtor$0@?0??Combine@Path@@QEAA?AVUnicodeString@@PEA_W@Z@4HA 000000018002a260 f   file_manager.obj
 0001:0002926c       ?dtor$1@?0??Combine@Path@@QEAA?AVUnicodeString@@PEA_W@Z@4HA 000000018002a26c f   file_manager.obj
 0001:00029278       ?dtor$2@?0??Combine@Path@@QEAA?AVUnicodeString@@PEA_W@Z@4HA 000000018002a278 f   file_manager.obj
 0001:000292b0       ?dtor$0@?0???0FileManager@@QEAA@PEBEPEAUHINSTANCE__@@0PEAVVirtualObjectList@@@Z@4HA 000000018002a2b0 f   file_manager.obj
 0001:000292c3       ?dtor$1@?0???0FileManager@@QEAA@PEBEPEAUHINSTANCE__@@0PEAVVirtualObjectList@@@Z@4HA 000000018002a2c3 f   file_manager.obj
 0001:000292d6       ?dtor$2@?0???0FileManager@@QEAA@PEBEPEAUHINSTANCE__@@0PEAVVirtualObjectList@@@Z@4HA 000000018002a2d6 f   file_manager.obj
 0001:000292e9       ?dtor$3@?0???0FileManager@@QEAA@PEBEPEAUHINSTANCE__@@0PEAVVirtualObjectList@@@Z@4HA 000000018002a2e9 f   file_manager.obj
 0001:000292f5       ?dtor$4@?0???0FileManager@@QEAA@PEBEPEAUHINSTANCE__@@0PEAVVirtualObjectList@@@Z@4HA 000000018002a2f5 f   file_manager.obj
 0001:00029301       ?dtor$5@?0???0FileManager@@QEAA@PEBEPEAUHINSTANCE__@@0PEAVVirtualObjectList@@@Z@4HA 000000018002a301 f   file_manager.obj
 0001:00029310       ?catch$0@?0??OpenFiles@FileManager@@QEAA_NAEAVRegistryManager@@@Z@4HA 000000018002a310 f   file_manager.obj
 0001:0002931d       __catch$?OpenFiles@FileManager@@QEAA_NAEAVRegistryManager@@@Z$0 000000018002a31d f   file_manager.obj
 0001:00029340       ?dtor$0@?0??FindEntry@FileManager@@AEAAPEBUOBJECT_ENTRY@@PEAXPEAU_UNICODE_STRING@@@Z@4HA 000000018002a340 f   file_manager.obj
 0001:0002934c       ?dtor$1@?0??FindEntry@FileManager@@AEAAPEBUOBJECT_ENTRY@@PEAXPEAU_UNICODE_STRING@@@Z@4HA 000000018002a34c f   file_manager.obj
 0001:00029358       ?dtor$2@?0??FindEntry@FileManager@@AEAAPEBUOBJECT_ENTRY@@PEAXPEAU_UNICODE_STRING@@@Z@4HA 000000018002a358 f   file_manager.obj
 0001:00029370       ?dtor$0@?0??NtCreateFile@FileManager@@QEAAJPEAPEAXKPEAU_OBJECT_ATTRIBUTES@@PEAU_IO_STATUS_BLOCK@@PEAT_LARGE_INTEGER@@KKKKPEAXK@Z@4HA 000000018002a370 f   file_manager.obj
 0001:0002937c       ?catch$2@?0??NtCreateFile@FileManager@@QEAAJPEAPEAXKPEAU_OBJECT_ATTRIBUTES@@PEAU_IO_STATUS_BLOCK@@PEAT_LARGE_INTEGER@@KKKKPEAXK@Z@4HA 000000018002a37c f   file_manager.obj
 0001:00029389       __catch$?NtCreateFile@FileManager@@QEAAJPEAPEAXKPEAU_OBJECT_ATTRIBUTES@@PEAU_IO_STATUS_BLOCK@@PEAT_LARGE_INTEGER@@KKKKPEAXK@Z$0 000000018002a389 f   file_manager.obj
 0001:000293a0       ?dtor$0@?0??NtOpenFile@FileManager@@QEAAJPEAPEAXKPEAU_OBJECT_ATTRIBUTES@@PEAU_IO_STATUS_BLOCK@@KK@Z@4HA 000000018002a3a0 f   file_manager.obj
 0001:000293b0       ?catch$0@?0??NtQueryDirectoryFile@FileManager@@QEAAJPEAX0P6AX0PEAU_IO_STATUS_BLOCK@@K@Z010KW4_FILE_INFORMATION_CLASS@@EPEAU_UNICODE_STRING@@E@Z@4HA 000000018002a3b0 f   file_manager.obj
 0001:000293bd       __catch$?NtQueryDirectoryFile@FileManager@@QEAAJPEAX0P6AX0PEAU_IO_STATUS_BLOCK@@K@Z010KW4_FILE_INFORMATION_CLASS@@EPEAU_UNICODE_STRING@@E@Z$0 000000018002a3bd f   file_manager.obj
 0001:000293d0       ?dtor$0@?0??NtCreateSection@FileManager@@QEAAJPEAPEAXKPEAU_OBJECT_ATTRIBUTES@@PEAT_LARGE_INTEGER@@KKPEAX@Z@4HA 000000018002a3d0 f   file_manager.obj
 0001:000293e0       ?dtor$0@?0??NtMapViewOfSection@FileManager@@QEAAJPEAX0PEAPEAX_K2PEAT_LARGE_INTEGER@@PEA_KW4_SECTION_INHERIT@@KK@Z@4HA 000000018002a3e0 f   file_manager.obj
 0001:000293ec       ?catch$5@?0??NtMapViewOfSection@FileManager@@QEAAJPEAX0PEAPEAX_K2PEAT_LARGE_INTEGER@@PEA_KW4_SECTION_INHERIT@@KK@Z@4HA 000000018002a3ec f   file_manager.obj
 0001:000293f9       __catch$?NtMapViewOfSection@FileManager@@QEAAJPEAX0PEAPEAX_K2PEAT_LARGE_INTEGER@@PEA_KW4_SECTION_INHERIT@@KK@Z$0 000000018002a3f9 f   file_manager.obj
 0001:00029410       ?dtor$0@?0??push_back@?$vector@VUnicodeString@@@@QEAAXAEBVUnicodeString@@@Z@4HA 000000018002a410 f   file_manager.obj
 0001:00029454       ?fin$0@?0???_M@YAXPEAX_K1P6AX0@Z@Z@4HA 000000018002a454 f   LIBCMT:ehvecdtr.obj
 0001:00029480       ?filt$0@?0??__ArrayUnwind@@YAXPEAX_K1P6AX0@Z@Z@4HA 000000018002a480 f   LIBCMT:ehvecdtr.obj
 0001:000294c1       ?fin$0@?0???_L@YAXPEAX_K1P6AX0@Z2@Z@4HA 000000018002a4c1 f   LIBCMT:ehvecctr.obj
 0001:000294ed       ?fin$0@?0??dllmain_crt_process_attach@@YAHQEAUHINSTANCE__@@QEAX@Z@4HA 000000018002a4ed f   LIBCMT:dll_dllmain.obj
 0001:00029504       ?fin$0@?0??dllmain_crt_process_detach@@YAH_N@Z@4HA 000000018002a504 f   LIBCMT:dll_dllmain.obj
 0001:00029520       ?filt$0@?0??dllmain_dispatch@@YAHQEAUHINSTANCE__@@KQEAX@Z@4HA 000000018002a520 f   LIBCMT:dll_dllmain.obj
 0001:00029556       __scrt_is_nonwritable_in_current_image$filt$0 000000018002a556 f   LIBCMT:utility.obj
 0001:0002956e       __CxxCallCatchBlock$filt$0 000000018002a56e f   libvcruntime:frame.obj
 0001:00029593       __CxxCallCatchBlock$fin$1  000000018002a593 f   libvcruntime:frame.obj
 0001:0002960b       __DestructExceptionObject$filt$0 000000018002a60b f   libvcruntime:frame.obj
 0001:00029623       __FrameUnwindToState$filt$0 000000018002a623 f   libvcruntime:frame.obj
 0001:00029639       __FrameUnwindToState$fin$1 000000018002a639 f   libvcruntime:frame.obj
 0001:0002965c       _CallSETranslator$filt$0   000000018002a65c f   libvcruntime:trnsctrl.obj
 0001:000296a8       _query_new_handler$fin$0   000000018002a6a8 f   libucrt:new_handler.obj
 0001:000296be       ?filt$0@?0??common_exit@@YAXHW4_crt_exit_cleanup_mode@@W4_crt_exit_return_mode@@@Z@4HA 000000018002a6be f   libucrt:exit.obj
 0001:000296d9       ?fin$1@?0??common_exit@@YAXHW4_crt_exit_cleanup_mode@@W4_crt_exit_return_mode@@@Z@4HA 000000018002a6d9 f   libucrt:exit.obj
 0001:000296f2       ?fin$0@?0???$?RV<lambda_b8c45f8f788dd370798f47cfe8ac3a86>@@AEAV<lambda_4e60a939b0d047cfe11ddc22648dfba9>@@V<lambda_332c3edc96d0294ec56c57d38c1cdfd5>@@@?$__crt_seh_guarded_call@H@@QEAAH$$QEAV<lambda_b8c45f8f788dd370798f47cfe8ac3a86>@@AEAV<lambda_4e60a939b0d047cfe11ddc22648dfba9>@@$$QEAV<lambda_332c3edc96d0294ec56c57d38c1cdfd5>@@@Z@4HA 000000018002a6f2 f   libucrt:onexit.obj
 0001:0002970c       ?fin$0@?0???$?RV<lambda_e24bbb7b643b32fcea6fa61b31d4c984>@@AEAV<lambda_275893d493268fdec8709772e3fcec0e>@@V<lambda_9d71df4d7cf3f480f8d633942495c3b0>@@@?$__crt_seh_guarded_call@H@@QEAAH$$QEAV<lambda_e24bbb7b643b32fcea6fa61b31d4c984>@@AEAV<lambda_275893d493268fdec8709772e3fcec0e>@@$$QEAV<lambda_9d71df4d7cf3f480f8d633942495c3b0>@@@Z@4HA 000000018002a70c f   libucrt:onexit.obj
 0001:00029729       ?fin$0@?0???$?RV<lambda_46352004c1216016012b18bd6f87e700>@@AEAV<lambda_3bd07e1a1191394380780325891bf33f>@@V<lambda_334532d3f185bcaa59b5be82d7d22bff>@@@?$__crt_seh_guarded_call@X@@QEAAX$$QEAV<lambda_46352004c1216016012b18bd6f87e700>@@AEAV<lambda_3bd07e1a1191394380780325891bf33f>@@$$QEAV<lambda_334532d3f185bcaa59b5be82d7d22bff>@@@Z@4HA 000000018002a729 f   libucrt:per_thread_data.obj
 0001:00029743       ?fin$0@?0???$?RV<lambda_5e887d1dcbef67a5eb4283622ba103bf>@@AEAV<lambda_4466841279450cc726390878d4a41900>@@V<lambda_341c25c0346d94847f1f3c463c57e077>@@@?$__crt_seh_guarded_call@X@@QEAAX$$QEAV<lambda_5e887d1dcbef67a5eb4283622ba103bf>@@AEAV<lambda_4466841279450cc726390878d4a41900>@@$$QEAV<lambda_341c25c0346d94847f1f3c463c57e077>@@@Z@4HA 000000018002a743 f   libucrt:per_thread_data.obj
 0001:0002975d       ?fin$0@?0???$?RV<lambda_72d1df2b273a38828b1ce30cbf4cdab5>@@AEAV<lambda_876a65b173b8412d3a47c70a915b0cf4>@@V<lambda_41932305e351933ebe8f8be3ed8bb5dc>@@@?$__crt_seh_guarded_call@X@@QEAAX$$QEAV<lambda_72d1df2b273a38828b1ce30cbf4cdab5>@@AEAV<lambda_876a65b173b8412d3a47c70a915b0cf4>@@$$QEAV<lambda_41932305e351933ebe8f8be3ed8bb5dc>@@@Z@4HA 000000018002a75d f   libucrt:per_thread_data.obj
 0001:00029777       ?fin$0@?0???$?RV<lambda_fb3a7dec4e47f37f22dae91bb15c9095>@@AEAV<lambda_698284760c8add0bfb0756c19673e34b>@@V<lambda_dfb8eca1e75fef3034a8fb18dd509707>@@@?$__crt_seh_guarded_call@X@@QEAAX$$QEAV<lambda_fb3a7dec4e47f37f22dae91bb15c9095>@@AEAV<lambda_698284760c8add0bfb0756c19673e34b>@@$$QEAV<lambda_dfb8eca1e75fef3034a8fb18dd509707>@@@Z@4HA 000000018002a777 f   libucrt:per_thread_data.obj
 0001:00029791       __acrt_uninitialize_locale$fin$0 000000018002a791 f   libucrt:wsetlocale.obj
 0001:000297aa       __acrt_initialize_lowio$fin$0 000000018002a7aa f   libucrt:ioinit.obj
 0001:000297c3       ?fin$0@?0???$?RV<lambda_99476a1ad63dd22509b5d3e65b0ffc95>@@AEAV<lambda_ad1ced32f4ac17aa236e5ef05d6b3b7c>@@V<lambda_f7424dd8d45958661754dc4f2697e9c3>@@@?$__crt_seh_guarded_call@X@@QEAAX$$QEAV<lambda_99476a1ad63dd22509b5d3e65b0ffc95>@@AEAV<lambda_ad1ced32f4ac17aa236e5ef05d6b3b7c>@@$$QEAV<lambda_f7424dd8d45958661754dc4f2697e9c3>@@@Z@4HA 000000018002a7c3 f   libucrt:mbctype.obj
 0001:000297dd       __acrt_update_thread_multibyte_data$fin$0 000000018002a7dd f   libucrt:mbctype.obj
 0001:000297f6       ?fin$0@?0???$?RV<lambda_c36588078e9f5dfd39652860aa6b3aaf>@@AEAV<lambda_ec61778202f4f5fc7e7711acc23c3bca>@@V<lambda_dc9d2797ccde5d239b4a0efae8ebd7db>@@@?$__crt_seh_guarded_call@P6AXH@Z@@QEAAP6AXH@Z$$QEAV<lambda_c36588078e9f5dfd39652860aa6b3aaf>@@AEAV<lambda_ec61778202f4f5fc7e7711acc23c3bca>@@$$QEAV<lambda_dc9d2797ccde5d239b4a0efae8ebd7db>@@@Z@4HA 000000018002a7f6 f   libucrt:signal.obj
 0001:00029810       raise$fin$0                000000018002a810 f   libucrt:signal.obj
 0001:00029834       __acrt_update_thread_locale_data$fin$0 000000018002a834 f   libucrt:locale_refcounting.obj
 0001:0002984d       _fcloseall$fin$0           000000018002a84d f   libucrt:closeall.obj
 0001:00029866       common_flush_all$fin$0     000000018002a866 f   libucrt:fflush.obj
 0001:00029880       common_flush_all$fin$1     000000018002a880 f   libucrt:fflush.obj
 0001:00029899       __acrt_lowio_ensure_fh_exists$fin$0 000000018002a899 f   libucrt:osfinfo.obj
 0001:000298b2       _write$fin$0               000000018002a8b2 f   libucrt:write.obj
 0001:000298c9       fclose$fin$0               000000018002a8c9 f   libucrt:fclose.obj
 0001:000298e1       ?fin$0@?0???$?RV<lambda_b521505b218e5242e90febf6bfebc422>@@AEAV<lambda_6978c1fb23f02e42e1d9e99668cc68aa>@@V<lambda_314360699dd331753a4119843814e9a7>@@@?$__crt_seh_guarded_call@H@@QEAAH$$QEAV<lambda_b521505b218e5242e90febf6bfebc422>@@AEAV<lambda_6978c1fb23f02e42e1d9e99668cc68aa>@@$$QEAV<lambda_314360699dd331753a4119843814e9a7>@@@Z@4HA 000000018002a8e1 f   libucrt:commit.obj
 0001:000298fb       common_control87$filt$0    000000018002a8fb f   libucrt:ieee.obj
 0001:00029927       ?fin$0@?0???$?RV<lambda_bfedae4ebbf01fab1bb6dcc6a9e276e0>@@AEAV<lambda_2fe9b910cf3cbf4a0ab98a02ba45b3ec>@@V<lambda_237c231691f317818eb88cc1d5d642d6>@@@?$__crt_seh_guarded_call@H@@QEAAH$$QEAV<lambda_bfedae4ebbf01fab1bb6dcc6a9e276e0>@@AEAV<lambda_2fe9b910cf3cbf4a0ab98a02ba45b3ec>@@$$QEAV<lambda_237c231691f317818eb88cc1d5d642d6>@@@Z@4HA 000000018002a927 f   libucrt:close.obj
 0001:00029941       _ctrlfp$filt$0             000000018002a941 f   libucrt:fpctrl.obj
 0001:00029970       _IsNonwritableInCurrentImage$filt$0 000000018002a970 f   LIBCMT:pesect.obj
 0002:00000510       ?ExceptionTemplate@?1??_CxxThrowException@@9@4UEHExceptionRecord@@B 000000018002b510     libvcruntime:throw.obj
 0002:00000550       ?ExceptionTemplate@?1??_UnwindNestedFrames@@9@4U_EXCEPTION_RECORD@@B 000000018002b550     libvcruntime:trnsctrl.obj
 0002:000005e8       ?module_names@?A0xb81d63e2@@3QBQEB_WB 000000018002b5e8     libvcruntime:winapi_downlevel.obj
 0002:000006b8       ?candidate_modules@?1??try_get_FlsAlloc@@YAP6AKP6AXPEAX@Z@ZXZ@4QBW4module_id@?A0xb81d63e2@@B 000000018002b6b8     libvcruntime:winapi_downlevel.obj
 0002:000006d0       ?candidate_modules@?1??try_get_FlsFree@@YAP6AHK@ZXZ@4QBW4module_id@?A0xb81d63e2@@B 000000018002b6d0     libvcruntime:winapi_downlevel.obj
 0002:000006e0       ?candidate_modules@?1??try_get_FlsGetValue@@YAP6APEAXK@ZXZ@4QBW4module_id@?A0xb81d63e2@@B 000000018002b6e0     libvcruntime:winapi_downlevel.obj
 0002:000006f8       ?candidate_modules@?1??try_get_FlsSetValue@@YAP6AHKPEAX@ZXZ@4QBW4module_id@?A0xb81d63e2@@B 000000018002b6f8     libvcruntime:winapi_downlevel.obj
 0002:00000710       ?candidate_modules@?1??try_get_InitializeCriticalSectionEx@@YAP6AHPEAU_RTL_CRITICAL_SECTION@@KK@ZXZ@4QBW4module_id@?A0xb81d63e2@@B 000000018002b710     libvcruntime:winapi_downlevel.obj
 0002:00000740       ?tokenTable@@3QBQEBDB      000000018002b740     libvcruntime:undname.obj
 0002:000007b0       ?nameTable@@3QBQEBDB       000000018002b7b0     libvcruntime:undname.obj
 0002:00000a38       ?rttiTable@@3QBQEBDB       000000018002ba38     libvcruntime:undname.obj
 0002:00001240       __acrt_initializers        000000018002c240     libucrt:initialization.obj
 0002:00001330       errtable                   000000018002c330     libucrt:errno.obj
 0002:00002380       module_names               000000018002d380     libucrt:winapi_thunks.obj
 0002:000028b0       ?candidate_modules@?1??try_get_FlsAlloc@@YAP6AKP6AXPEAX@Z@ZXZ@4QBW4module_id@?A0x63058377@@B 000000018002d8b0     libucrt:winapi_thunks.obj
 0002:000028b8       ?candidate_modules@?1??try_get_FlsFree@@YAP6AHK@ZXZ@4QBW4module_id@?A0x63058377@@B 000000018002d8b8     libucrt:winapi_thunks.obj
 0002:000028c0       ?candidate_modules@?1??try_get_FlsGetValue@@YAP6APEAXK@ZXZ@4QBW4module_id@?A0x63058377@@B 000000018002d8c0     libucrt:winapi_thunks.obj
 0002:000028c8       ?candidate_modules@?1??try_get_FlsSetValue@@YAP6AHKPEAX@ZXZ@4QBW4module_id@?A0x63058377@@B 000000018002d8c8     libucrt:winapi_thunks.obj
 0002:000028d0       ?candidate_modules@?1??try_get_GetCurrentPackageId@@YAP6AJPEAIPEAE@ZXZ@4QBW4module_id@?A0x63058377@@B 000000018002d8d0     libucrt:winapi_thunks.obj
 0002:000028f0       ?candidate_modules@?1??try_get_InitializeCriticalSectionEx@@YAP6AHPEAU_RTL_CRITICAL_SECTION@@KK@ZXZ@4QBW4module_id@?A0x63058377@@B 000000018002d8f0     libucrt:winapi_thunks.obj
 0002:000028f8       ?candidate_modules@?1??try_get_LCMapStringEx@@YAP6AHPEB_WK0HPEA_WHPEAU_nlsversioninfo@@PEAX_J@ZXZ@4QBW4module_id@?A0x63058377@@B 000000018002d8f8     libucrt:winapi_thunks.obj
 0002:00002910       ?candidate_modules@?1??try_get_LocaleNameToLCID@@YAP6AKPEB_WK@ZXZ@4QBW4module_id@?A0x63058377@@B 000000018002d910     libucrt:winapi_thunks.obj
 0002:00002930       _mb_locale_names           000000018002d930     libucrt:mbctype.obj
 0002:00003390       LcidToLocaleNameTable      000000018002e390     libucrt:lcidtoname_downlevel.obj
 0002:00004de0       LocaleNameToIndexTable     000000018002fde0     libucrt:lcidtoname_downlevel.obj
 0002:00006680       __real_ninf                0000000180031680     libucrt:log10.obj
 0002:00006690       __real_inf                 0000000180031690     libucrt:log10.obj
 0002:000066a0       __real_neg_qnan            00000001800316a0     libucrt:log10.obj
 0002:000066b0       __real_qnanbit             00000001800316b0     libucrt:log10.obj
 0002:000066c0       __int_1023                 00000001800316c0     libucrt:log10.obj
 0002:000066d0       __mask_001                 00000001800316d0     libucrt:log10.obj
 0002:000066e0       __mask_mant                00000001800316e0     libucrt:log10.obj
 0002:000066f0       __mask_mant_top8           00000001800316f0     libucrt:log10.obj
 0002:00006700       __mask_mant9               0000000180031700     libucrt:log10.obj
 0002:00006710       __real_log10_e             0000000180031710     libucrt:log10.obj
 0002:00006720       __real_log10_e_lead        0000000180031720     libucrt:log10.obj
 0002:00006730       __real_log10_e_tail        0000000180031730     libucrt:log10.obj
 0002:00006740       __real_log10_2_lead        0000000180031740     libucrt:log10.obj
 0002:00006750       __real_log10_2_tail        0000000180031750     libucrt:log10.obj
 0002:00006760       __real_two                 0000000180031760     libucrt:log10.obj
 0002:00006770       __real_one                 0000000180031770     libucrt:log10.obj
 0002:00006780       __real_half                0000000180031780     libucrt:log10.obj
 0002:00006790       __mask_100                 0000000180031790     libucrt:log10.obj
 0002:000067a0       __real_1_over_512          00000001800317a0     libucrt:log10.obj
 0002:000067b0       __real_1_over_2            00000001800317b0     libucrt:log10.obj
 0002:000067c0       __real_1_over_3            00000001800317c0     libucrt:log10.obj
 0002:000067d0       __real_1_over_4            00000001800317d0     libucrt:log10.obj
 0002:000067e0       __real_1_over_5            00000001800317e0     libucrt:log10.obj
 0002:000067f0       __real_1_over_6            00000001800317f0     libucrt:log10.obj
 0002:00006800       __real_neg_1023            0000000180031800     libucrt:log10.obj
 0002:00006810       __mask_2045                0000000180031810     libucrt:log10.obj
 0002:00006820       __real_threshold           0000000180031820     libucrt:log10.obj
 0002:00006830       __real_near_one_lt         0000000180031830     libucrt:log10.obj
 0002:00006840       __real_near_one_gt         0000000180031840     libucrt:log10.obj
 0002:00006850       __real_min_norm            0000000180031850     libucrt:log10.obj
 0002:00006860       __real_notsign             0000000180031860     libucrt:log10.obj
 0002:00006870       __real_ca1                 0000000180031870     libucrt:log10.obj
 0002:00006880       __real_ca2                 0000000180031880     libucrt:log10.obj
 0002:00006890       __real_ca3                 0000000180031890     libucrt:log10.obj
 0002:000068a0       __real_ca4                 00000001800318a0     libucrt:log10.obj
 0002:000068b0       __mask_lower               00000001800318b0     libucrt:log10.obj
 0002:000068c0       __flag_x_zero              00000001800318c0     libucrt:log10.obj
 0002:000068c4       __flag_x_neg               00000001800318c4     libucrt:log10.obj
 0002:000068c8       __flag_x_nan               00000001800318c8     libucrt:log10.obj
 0002:00008110       __real@433fffffffffffff    0000000180033110     libucrt:fpsr.obj
 0002:00008118       __real@c33fffffffffffff    0000000180033118     libucrt:fpsr.obj
 0002:00008130       GS_ExceptionPointers       0000000180033130     LIBCMT:gs_report.obj
 0002:000082d8       ?wow_keys@?1???0RegistryManager@@QEAA@PEBEPEAUHINSTANCE__@@0PEAVVirtualObjectList@@@Z@4PAPEB_WA 00000001800332d8     registry_manager.obj
 0002:000084d0       ?utf8_limits@@3QBEB        00000001800334d0     crypto.obj
 0002:000084e0       ?crc32_table@@3PAIA        00000001800334e0     crypto.obj
 0002:00008ee8       $cppxdata$?NtEnumerateKey@RegistryManager@@QEAAJPEAXKW4_KEY_INFORMATION_CLASS@@0KPEAK@Z 0000000180033ee8     registry_manager.obj
 0002:00008f10       $cppxdata$?NtQueryKey@RegistryManager@@QEAAJPEAXW4_KEY_INFORMATION_CLASS@@0KPEAK@Z 0000000180033f10     registry_manager.obj
 0002:00008f38       $cppxdata$?NtQueryValueKey@RegistryManager@@QEAAJPEAXPEAU_UNICODE_STRING@@W4_KEY_VALUE_INFORMATION_CLASS@@0KPEAK@Z 0000000180033f38     registry_manager.obj
 0002:00008f60       $cppxdata$?NtOpenKeyEx@RegistryManager@@QEAAJPEAPEAXKPEAU_OBJECT_ATTRIBUTES@@K@Z 0000000180033f60     registry_manager.obj
 0002:00008f88       $cppxdata$?NtOpenKey@RegistryManager@@QEAAJPEAPEAXKPEAU_OBJECT_ATTRIBUTES@@@Z 0000000180033f88     registry_manager.obj
 0002:00008fb0       $cppxdata$?NtCreateKey@RegistryManager@@QEAAJPEAPEAXKPEAU_OBJECT_ATTRIBUTES@@KPEAU_UNICODE_STRING@@KPEAK@Z 0000000180033fb0     registry_manager.obj
 0002:00008fd8       $cppxdata$?GetRootKey@RegistryManager@@AEAAPEAVRegistryKey@@PEAXPEAI_N@Z 0000000180033fd8     registry_manager.obj
 0002:00009000       $cppxdata$?NtSetValueKey@RegistryManager@@QEAAJPEAXPEAU_UNICODE_STRING@@KK0K@Z 0000000180034000     registry_manager.obj
 0002:00009028       $cppxdata$??0RegistryManager@@QEAA@PEBEPEAUHINSTANCE__@@0PEAVVirtualObjectList@@@Z 0000000180034028     registry_manager.obj
 0002:00009050       $cppxdata$?full_name@RegistryKey@@QEBA?AVUnicodeString@@XZ 0000000180034050     registry_manager.obj
 0002:00009078       $cppxdata$?AddKey@RegistryKey@@QEAAPEAV1@PEB_W_NPEA_N@Z 0000000180034078     registry_manager.obj
 0002:000090a0       $cppxdata$?AddChild@RegistryKey@@AEAAPEAV1@PEB_W_NPEA_N@Z 00000001800340a0     registry_manager.obj
 0002:000090c8       $cppxdata$?AddValue@RegistryKey@@AEAAPEAVRegistryValue@@PEA_W@Z 00000001800340c8     registry_manager.obj
 0002:000090f0       $cppxdata$??0RegistryKey@@QEAA@PEAV0@PEB_W_N@Z 00000001800340f0     registry_manager.obj
 0002:000091c0       $cppxdata$??1?$vector@VUnicodeString@@@@QEAA@XZ 00000001800341c0     core.obj
 0002:000091e8       $cppxdata$?hardware_id@Core@@QEAAPEAVHardwareID@@XZ 00000001800341e8     core.obj
 0002:00009210       $cppxdata$?Init@Core@@QEAA_NPEAUHINSTANCE__@@@Z 0000000180034210     core.obj
 0002:00009238       $cppxdata$??_GFileManager@@QEAAPEAXI@Z 0000000180034238     core.obj
 0002:00009260       $cppxdata$??1Core@@QEAA@XZ 0000000180034260     core.obj
 0002:00009288       $cppxdata$?modpow@BigNumber@@QEBAPEAVCryptoContainer@@AEBV2@_K111@Z 0000000180034288     crypto.obj
 0002:000092b0       $cppxdata$?ExportedGetCurrentHWID@@YAHPEADH@Z 00000001800342b0     hwid.obj
 0002:000092d8       $cppxdata$??0HardwareID@@QEAA@XZ 00000001800342d8     hwid.obj
 0002:00009300       $cppxdata$?_Copy@?$basic_string@_WU?$char_traits@_W@std@@V?$allocator@_W@2@@std@@QEAAX_K0@Z 0000000180034300     licensing_manager.obj
 0002:00009328       $cppxdata$??$_Construct@PEAD@?$basic_string@_WU?$char_traits@_W@std@@V?$allocator@_W@2@@std@@QEAAXPEAD0Uinput_iterator_tag@1@@Z 0000000180034328     licensing_manager.obj
 0002:00009350       $cppxdata$?BuildUrl@ActivationRequest@@AEAA_NAEBVCryptoContainer@@PEBD_N@Z 0000000180034350     licensing_manager.obj
 0002:00009378       $cppxdata$?Send@BaseRequest@@QEAA_NXZ 0000000180034378     licensing_manager.obj
 0002:000093a0       $cppxdata$?GetOfflineDeactivationString@LicensingManager@@QEBAHPEBDPEADH@Z 00000001800343a0     licensing_manager.obj
 0002:000093c8       $cppxdata$?GetOfflineActivationString@LicensingManager@@QEBAHPEBDPEADH@Z 00000001800343c8     licensing_manager.obj
 0002:000093f0       $cppxdata$?DeactivateLicense@LicensingManager@@QEBAHPEBD@Z 00000001800343f0     licensing_manager.obj
 0002:00009418       $cppxdata$?ActivateLicense@LicensingManager@@QEBAHPEBDPEADH@Z 0000000180034418     licensing_manager.obj
 0002:00009440       $cppxdata$?GetSerialNumberData@LicensingManager@@QEAA_NPEAUVMProtectSerialNumberData@@H@Z 0000000180034440     licensing_manager.obj
 0002:00009468       $cppxdata$?SetSerialNumber@LicensingManager@@QEAAHPEBD@Z 0000000180034468     licensing_manager.obj
 0002:00009490       $cppxdata$?ExportedGetSerialNumberState@@YAHXZ 0000000180034490     licensing_manager.obj
 0002:000094b8       $cppxdata$??0LicensingManager@@QEAA@PEAEI0@Z 00000001800344b8     licensing_manager.obj
 0002:000094e0       $cppxdata$?InternalFindResourceExW@ResourceManager@@AEAAPEAUHRSRC__@@PEAUHINSTANCE__@@PEB_W1G@Z 00000001800344e0     resource_manager.obj
 0002:00009508       $cppxdata$?InternalLoadResource@ResourceManager@@AEAAPEAXPEAUHINSTANCE__@@PEAUHRSRC__@@@Z 0000000180034508     resource_manager.obj
 0002:00009530       $cppxdata$??0ResourceManager@@QEAA@PEBEPEAUHINSTANCE__@@0@Z 0000000180034530     resource_manager.obj
 0002:00009558       $cppxdata$?DecryptString@StringManager@@QEAAPEBXPEBX@Z 0000000180034558     string_manager.obj
 0002:00009580       $cppxdata$?push_back@?$vector@VUnicodeString@@@@QEAAXAEBVUnicodeString@@@Z 0000000180034580     file_manager.obj
 0002:000095a8       $cppxdata$?NtMapViewOfSection@FileManager@@QEAAJPEAX0PEAPEAX_K2PEAT_LARGE_INTEGER@@PEA_KW4_SECTION_INHERIT@@KK@Z 00000001800345a8     file_manager.obj
 0002:000095d0       $cppxdata$?NtCreateSection@FileManager@@QEAAJPEAPEAXKPEAU_OBJECT_ATTRIBUTES@@PEAT_LARGE_INTEGER@@KKPEAX@Z 00000001800345d0     file_manager.obj
 0002:000095f8       $cppxdata$?NtQueryDirectoryFile@FileManager@@QEAAJPEAX0P6AX0PEAU_IO_STATUS_BLOCK@@K@Z010KW4_FILE_INFORMATION_CLASS@@EPEAU_UNICODE_STRING@@E@Z 00000001800345f8     file_manager.obj
 0002:00009620       $cppxdata$?NtOpenFile@FileManager@@QEAAJPEAPEAXKPEAU_OBJECT_ATTRIBUTES@@PEAU_IO_STATUS_BLOCK@@KK@Z 0000000180034620     file_manager.obj
 0002:00009648       $cppxdata$?NtCreateFile@FileManager@@QEAAJPEAPEAXKPEAU_OBJECT_ATTRIBUTES@@PEAU_IO_STATUS_BLOCK@@PEAT_LARGE_INTEGER@@KKKKPEAXK@Z 0000000180034648     file_manager.obj
 0002:00009670       $cppxdata$?FindEntry@FileManager@@AEAAPEBUOBJECT_ENTRY@@PEAXPEAU_UNICODE_STRING@@@Z 0000000180034670     file_manager.obj
 0002:00009698       $cppxdata$??1Path@@QEAA@XZ 0000000180034698     file_manager.obj
 0002:000096c0       $cppxdata$?Combine@Path@@QEAA?AVUnicodeString@@PEA_W@Z 00000001800346c0     file_manager.obj
 0002:000096e8       $cppxdata$??0Path@@QEAA@PEA_W@Z 00000001800346e8     file_manager.obj
 0002:00009710       $cppxdata$??0FileManager@@QEAA@PEBEPEAUHINSTANCE__@@0PEAVVirtualObjectList@@@Z 0000000180034710     file_manager.obj
 0002:00009738       $cppxdata$?OpenFiles@FileManager@@QEAA_NAEAVRegistryManager@@@Z 0000000180034738     file_manager.obj
 0002:00009e90       $unwind$??0UnicodeString@@QEAA@XZ 0000000180034e90     registry_manager.obj
 0002:00009e9c       $unwind$??0UnicodeString@@QEAA@PEB_W_K@Z 0000000180034e9c     registry_manager.obj
 0002:00009eac       $unwind$??0UnicodeString@@QEAA@AEBV0@@Z 0000000180034eac     registry_manager.obj
 0002:00009ebc       $unwind$?append@UnicodeString@@QEAAAEAV1@PEB_W_K@Z 0000000180034ebc     registry_manager.obj
 0002:00009ed4       $unwind$?HookedNtSetValueKey@@YAJPEAXPEAU_UNICODE_STRING@@KK0K@Z 0000000180034ed4     registry_manager.obj
 0002:00009ee8       $unwind$?HookedNtDeleteValueKey@@YAJPEAXPEAU_UNICODE_STRING@@@Z 0000000180034ee8     registry_manager.obj
 0002:00009ef4       $unwind$?HookedNtCreateKey@@YAJPEAPEAXKPEAU_OBJECT_ATTRIBUTES@@KPEAU_UNICODE_STRING@@KPEAK@Z 0000000180034ef4     registry_manager.obj
 0002:00009f08       $unwind$?HookedNtQueryValueKey@@YAJPEAXPEAU_UNICODE_STRING@@W4_KEY_VALUE_INFORMATION_CLASS@@0KPEAK@Z 0000000180034f08     registry_manager.obj
 0002:00009f1c       $unwind$?HookedNtOpenKey@@YAJPEAPEAXKPEAU_OBJECT_ATTRIBUTES@@@Z 0000000180034f1c     registry_manager.obj
 0002:00009f2c       $unwind$?HookedNtOpenKeyEx@@YAJPEAPEAXKPEAU_OBJECT_ATTRIBUTES@@K@Z 0000000180034f2c     registry_manager.obj
 0002:00009f40       $unwind$?HookedNtDeleteKey@@YAJPEAX@Z 0000000180034f40     registry_manager.obj
 0002:00009f48       $unwind$?HookedNtQueryKey@@YAJPEAXW4_KEY_INFORMATION_CLASS@@0KPEAK@Z 0000000180034f48     registry_manager.obj
 0002:00009f5c       $unwind$?HookedNtEnumerateValueKey@@YAJPEAXKW4_KEY_VALUE_INFORMATION_CLASS@@0KPEAK@Z 0000000180034f5c     registry_manager.obj
 0002:00009f70       $unwind$?HookedNtEnumerateKey@@YAJPEAXKW4_KEY_INFORMATION_CLASS@@0KPEAK@Z 0000000180034f70     registry_manager.obj
 0002:00009f84       $unwind$??0RegistryKey@@QEAA@PEAV0@PEB_W_N@Z 0000000180034f84     registry_manager.obj
 0002:00009f9c       $stateUnwindMap$??0RegistryKey@@QEAA@PEAV0@PEB_W_N@Z 0000000180034f9c     registry_manager.obj
 0002:00009fb0       $ip2state$??0RegistryKey@@QEAA@PEAV0@PEB_W_N@Z 0000000180034fb0     registry_manager.obj
 0002:00009fd0       $unwind$??1RegistryKey@@QEAA@XZ 0000000180034fd0     registry_manager.obj
 0002:00009fe4       $unwind$?GetValue@RegistryKey@@QEBAPEAVRegistryValue@@PEB_W@Z 0000000180034fe4     registry_manager.obj
 0002:00009ff8       $unwind$?AddValue@RegistryKey@@AEAAPEAVRegistryValue@@PEA_W@Z 0000000180034ff8     registry_manager.obj
 0002:0000a018       $stateUnwindMap$?AddValue@RegistryKey@@AEAAPEAVRegistryValue@@PEA_W@Z 0000000180035018     registry_manager.obj
 0002:0000a020       $ip2state$?AddValue@RegistryKey@@AEAAPEAVRegistryValue@@PEA_W@Z 0000000180035020     registry_manager.obj
 0002:0000a038       $unwind$?dtor$0@?0??AddValue@RegistryKey@@AEAAPEAVRegistryValue@@PEA_W@Z@4HA 0000000180035038     registry_manager.obj
 0002:0000a040       $unwind$?SetValue@RegistryKey@@QEAAXPEA_WIPEAXI@Z 0000000180035040     registry_manager.obj
 0002:0000a058       $unwind$?DeleteValue@RegistryKey@@QEAA_NPEA_W@Z 0000000180035058     registry_manager.obj
 0002:0000a06c       $unwind$?GetChild@RegistryKey@@AEBAPEAV1@PEB_W@Z 000000018003506c     registry_manager.obj
 0002:0000a078       $chain$1$?GetChild@RegistryKey@@AEBAPEAV1@PEB_W@Z 0000000180035078     registry_manager.obj
 0002:0000a090       $chain$3$?GetChild@RegistryKey@@AEBAPEAV1@PEB_W@Z 0000000180035090     registry_manager.obj
 0002:0000a0a8       $chain$4$?GetChild@RegistryKey@@AEBAPEAV1@PEB_W@Z 00000001800350a8     registry_manager.obj
 0002:0000a0b8       $unwind$?GetKey@RegistryKey@@QEBAPEAV1@PEB_W@Z 00000001800350b8     registry_manager.obj
 0002:0000a0c0       $chain$1$?GetKey@RegistryKey@@QEBAPEAV1@PEB_W@Z 00000001800350c0     registry_manager.obj
 0002:0000a0d8       $chain$3$?GetKey@RegistryKey@@QEBAPEAV1@PEB_W@Z 00000001800350d8     registry_manager.obj
 0002:0000a0f0       $chain$4$?GetKey@RegistryKey@@QEBAPEAV1@PEB_W@Z 00000001800350f0     registry_manager.obj
 0002:0000a104       $chain$5$?GetKey@RegistryKey@@QEBAPEAV1@PEB_W@Z 0000000180035104     registry_manager.obj
 0002:0000a114       $chain$6$?GetKey@RegistryKey@@QEBAPEAV1@PEB_W@Z 0000000180035114     registry_manager.obj
 0002:0000a124       $unwind$?AddChild@RegistryKey@@AEAAPEAV1@PEB_W_NPEA_N@Z 0000000180035124     registry_manager.obj
 0002:0000a140       $stateUnwindMap$?AddChild@RegistryKey@@AEAAPEAV1@PEB_W_NPEA_N@Z 0000000180035140     registry_manager.obj
 0002:0000a148       $ip2state$?AddChild@RegistryKey@@AEAAPEAV1@PEB_W_NPEA_N@Z 0000000180035148     registry_manager.obj
 0002:0000a160       $unwind$?dtor$0@?0??AddChild@RegistryKey@@AEAAPEAV1@PEB_W_NPEA_N@Z@4HA 0000000180035160     registry_manager.obj
 0002:0000a168       $unwind$?AddKey@RegistryKey@@QEAAPEAV1@PEB_W_NPEA_N@Z 0000000180035168     registry_manager.obj
 0002:0000a180       $stateUnwindMap$?AddKey@RegistryKey@@QEAAPEAV1@PEB_W_NPEA_N@Z 0000000180035180     registry_manager.obj
 0002:0000a188       $ip2state$?AddKey@RegistryKey@@QEAAPEAV1@PEB_W_NPEA_N@Z 0000000180035188     registry_manager.obj
 0002:0000a1a0       $unwind$?DeleteKey@RegistryKey@@QEAA_NPEAV1@@Z 00000001800351a0     registry_manager.obj
 0002:0000a1a8       $unwind$?full_name@RegistryKey@@QEBA?AVUnicodeString@@XZ 00000001800351a8     registry_manager.obj
 0002:0000a1c0       $stateUnwindMap$?full_name@RegistryKey@@QEBA?AVUnicodeString@@XZ 00000001800351c0     registry_manager.obj
 0002:0000a1c8       $ip2state$?full_name@RegistryKey@@QEBA?AVUnicodeString@@XZ 00000001800351c8     registry_manager.obj
 0002:0000a1e0       $unwind$??0RegistryManager@@QEAA@PEBEPEAUHINSTANCE__@@0PEAVVirtualObjectList@@@Z 00000001800351e0     registry_manager.obj
 0002:0000a1f0       $stateUnwindMap$??0RegistryManager@@QEAA@PEBEPEAUHINSTANCE__@@0PEAVVirtualObjectList@@@Z 00000001800351f0     registry_manager.obj
 0002:0000a1f8       $ip2state$??0RegistryManager@@QEAA@PEBEPEAUHINSTANCE__@@0PEAVVirtualObjectList@@@Z 00000001800351f8     registry_manager.obj
 0002:0000a210       $unwind$?HookAPIs@RegistryManager@@QEAAXAEAVHookManager@@@Z 0000000180035210     registry_manager.obj
 0002:0000a224       $unwind$?UnhookAPIs@RegistryManager@@QEAAXAEAVHookManager@@@Z 0000000180035224     registry_manager.obj
 0002:0000a230       $chain$0$?UnhookAPIs@RegistryManager@@QEAAXAEAVHookManager@@@Z 0000000180035230     registry_manager.obj
 0002:0000a244       $chain$1$?UnhookAPIs@RegistryManager@@QEAAXAEAVHookManager@@@Z 0000000180035244     registry_manager.obj
 0002:0000a254       $unwind$?NtSetValueKey@RegistryManager@@QEAAJPEAXPEAU_UNICODE_STRING@@KK0K@Z 0000000180035254     registry_manager.obj
 0002:0000a270       $stateUnwindMap$?NtSetValueKey@RegistryManager@@QEAAJPEAXPEAU_UNICODE_STRING@@KK0K@Z 0000000180035270     registry_manager.obj
 0002:0000a288       $tryMap$?NtSetValueKey@RegistryManager@@QEAAJPEAXPEAU_UNICODE_STRING@@KK0K@Z 0000000180035288     registry_manager.obj
 0002:0000a29c       $handlerMap$0$?NtSetValueKey@RegistryManager@@QEAAJPEAXPEAU_UNICODE_STRING@@KK0K@Z 000000018003529c     registry_manager.obj
 0002:0000a2b0       $ip2state$?NtSetValueKey@RegistryManager@@QEAAJPEAXPEAU_UNICODE_STRING@@KK0K@Z 00000001800352b0     registry_manager.obj
 0002:0000a2e0       $unwind$?catch$5@?0??NtSetValueKey@RegistryManager@@QEAAJPEAXPEAU_UNICODE_STRING@@KK0K@Z@4HA 00000001800352e0     registry_manager.obj
 0002:0000a2f0       $unwind$?NtDeleteValueKey@RegistryManager@@QEAAJPEAXPEAU_UNICODE_STRING@@@Z 00000001800352f0     registry_manager.obj
 0002:0000a308       $unwind$?GetRootKey@RegistryManager@@AEAAPEAVRegistryKey@@PEAXPEAI_N@Z 0000000180035308     registry_manager.obj
 0002:0000a32c       $stateUnwindMap$?GetRootKey@RegistryManager@@AEAAPEAVRegistryKey@@PEAXPEAI_N@Z 000000018003532c     registry_manager.obj
 0002:0000a338       $ip2state$?GetRootKey@RegistryManager@@AEAAPEAVRegistryKey@@PEAXPEAI_N@Z 0000000180035338     registry_manager.obj
 0002:0000a350       $unwind$?NtCreateKey@RegistryManager@@QEAAJPEAPEAXKPEAU_OBJECT_ATTRIBUTES@@KPEAU_UNICODE_STRING@@KPEAK@Z 0000000180035350     registry_manager.obj
 0002:0000a36c       $stateUnwindMap$?NtCreateKey@RegistryManager@@QEAAJPEAPEAXKPEAU_OBJECT_ATTRIBUTES@@KPEAU_UNICODE_STRING@@KPEAK@Z 000000018003536c     registry_manager.obj
 0002:0000a38c       $tryMap$?NtCreateKey@RegistryManager@@QEAAJPEAPEAXKPEAU_OBJECT_ATTRIBUTES@@KPEAU_UNICODE_STRING@@KPEAK@Z 000000018003538c     registry_manager.obj
 0002:0000a3a0       $handlerMap$0$?NtCreateKey@RegistryManager@@QEAAJPEAPEAXKPEAU_OBJECT_ATTRIBUTES@@KPEAU_UNICODE_STRING@@KPEAK@Z 00000001800353a0     registry_manager.obj
 0002:0000a3c0       $ip2state$?NtCreateKey@RegistryManager@@QEAAJPEAPEAXKPEAU_OBJECT_ATTRIBUTES@@KPEAU_UNICODE_STRING@@KPEAK@Z 00000001800353c0     registry_manager.obj
 0002:0000a410       $unwind$?catch$7@?0??NtCreateKey@RegistryManager@@QEAAJPEAPEAXKPEAU_OBJECT_ATTRIBUTES@@KPEAU_UNICODE_STRING@@KPEAK@Z@4HA 0000000180035410     registry_manager.obj
 0002:0000a420       $unwind$?NtOpenKey@RegistryManager@@QEAAJPEAPEAXKPEAU_OBJECT_ATTRIBUTES@@@Z 0000000180035420     registry_manager.obj
 0002:0000a43c       $stateUnwindMap$?NtOpenKey@RegistryManager@@QEAAJPEAPEAXKPEAU_OBJECT_ATTRIBUTES@@@Z 000000018003543c     registry_manager.obj
 0002:0000a464       $tryMap$?NtOpenKey@RegistryManager@@QEAAJPEAPEAXKPEAU_OBJECT_ATTRIBUTES@@@Z 0000000180035464     registry_manager.obj
 0002:0000a478       $handlerMap$0$?NtOpenKey@RegistryManager@@QEAAJPEAPEAXKPEAU_OBJECT_ATTRIBUTES@@@Z 0000000180035478     registry_manager.obj
 0002:0000a490       $ip2state$?NtOpenKey@RegistryManager@@QEAAJPEAPEAXKPEAU_OBJECT_ATTRIBUTES@@@Z 0000000180035490     registry_manager.obj
 0002:0000a4f8       $unwind$?dtor$1@?0??NtOpenKey@RegistryManager@@QEAAJPEAPEAXKPEAU_OBJECT_ATTRIBUTES@@@Z@4HA 00000001800354f8     registry_manager.obj
 0002:0000a500       $unwind$?catch$10@?0??NtOpenKey@RegistryManager@@QEAAJPEAPEAXKPEAU_OBJECT_ATTRIBUTES@@@Z@4HA 0000000180035500     registry_manager.obj
 0002:0000a510       $unwind$?dtor$2@?0??NtOpenKey@RegistryManager@@QEAAJPEAPEAXKPEAU_OBJECT_ATTRIBUTES@@@Z@4HA 0000000180035510     registry_manager.obj
 0002:0000a518       $unwind$?NtOpenKeyEx@RegistryManager@@QEAAJPEAPEAXKPEAU_OBJECT_ATTRIBUTES@@K@Z 0000000180035518     registry_manager.obj
 0002:0000a534       $stateUnwindMap$?NtOpenKeyEx@RegistryManager@@QEAAJPEAPEAXKPEAU_OBJECT_ATTRIBUTES@@K@Z 0000000180035534     registry_manager.obj
 0002:0000a55c       $tryMap$?NtOpenKeyEx@RegistryManager@@QEAAJPEAPEAXKPEAU_OBJECT_ATTRIBUTES@@K@Z 000000018003555c     registry_manager.obj
 0002:0000a570       $handlerMap$0$?NtOpenKeyEx@RegistryManager@@QEAAJPEAPEAXKPEAU_OBJECT_ATTRIBUTES@@K@Z 0000000180035570     registry_manager.obj
 0002:0000a590       $ip2state$?NtOpenKeyEx@RegistryManager@@QEAAJPEAPEAXKPEAU_OBJECT_ATTRIBUTES@@K@Z 0000000180035590     registry_manager.obj
 0002:0000a5f8       $unwind$?dtor$1@?0??NtOpenKeyEx@RegistryManager@@QEAAJPEAPEAXKPEAU_OBJECT_ATTRIBUTES@@K@Z@4HA 00000001800355f8     registry_manager.obj
 0002:0000a600       $unwind$?catch$10@?0??NtOpenKeyEx@RegistryManager@@QEAAJPEAPEAXKPEAU_OBJECT_ATTRIBUTES@@K@Z@4HA 0000000180035600     registry_manager.obj
 0002:0000a610       $unwind$?dtor$2@?0??NtOpenKeyEx@RegistryManager@@QEAAJPEAPEAXKPEAU_OBJECT_ATTRIBUTES@@K@Z@4HA 0000000180035610     registry_manager.obj
 0002:0000a618       $unwind$?QueryValueKey@RegistryManager@@AEAAJPEAVRegistryValue@@W4_KEY_VALUE_INFORMATION_CLASS@@PEAXKPEAK@Z 0000000180035618     registry_manager.obj
 0002:0000a624       $chain$0$?QueryValueKey@RegistryManager@@AEAAJPEAVRegistryValue@@W4_KEY_VALUE_INFORMATION_CLASS@@PEAXKPEAK@Z 0000000180035624     registry_manager.obj
 0002:0000a638       $chain$2$?QueryValueKey@RegistryManager@@AEAAJPEAVRegistryValue@@W4_KEY_VALUE_INFORMATION_CLASS@@PEAXKPEAK@Z 0000000180035638     registry_manager.obj
 0002:0000a64c       $chain$4$?QueryValueKey@RegistryManager@@AEAAJPEAVRegistryValue@@W4_KEY_VALUE_INFORMATION_CLASS@@PEAXKPEAK@Z 000000018003564c     registry_manager.obj
 0002:0000a660       $chain$5$?QueryValueKey@RegistryManager@@AEAAJPEAVRegistryValue@@W4_KEY_VALUE_INFORMATION_CLASS@@PEAXKPEAK@Z 0000000180035660     registry_manager.obj
 0002:0000a670       $unwind$?NtQueryValueKey@RegistryManager@@QEAAJPEAXPEAU_UNICODE_STRING@@W4_KEY_VALUE_INFORMATION_CLASS@@0KPEAK@Z 0000000180035670     registry_manager.obj
 0002:0000a694       $stateUnwindMap$?NtQueryValueKey@RegistryManager@@QEAAJPEAXPEAU_UNICODE_STRING@@W4_KEY_VALUE_INFORMATION_CLASS@@0KPEAK@Z 0000000180035694     registry_manager.obj
 0002:0000a6c0       $ip2state$?NtQueryValueKey@RegistryManager@@QEAAJPEAXPEAU_UNICODE_STRING@@W4_KEY_VALUE_INFORMATION_CLASS@@0KPEAK@Z 00000001800356c0     registry_manager.obj
 0002:0000a708       $unwind$?NtDeleteKey@RegistryManager@@QEAAJPEAX@Z 0000000180035708     registry_manager.obj
 0002:0000a71c       $unwind$?QueryKey@RegistryManager@@AEAAJPEAVRegistryKey@@W4_KEY_INFORMATION_CLASS@@PEAXKPEAK@Z 000000018003571c     registry_manager.obj
 0002:0000a728       $unwind$?NtQueryKey@RegistryManager@@QEAAJPEAXW4_KEY_INFORMATION_CLASS@@0KPEAK@Z 0000000180035728     registry_manager.obj
 0002:0000a748       $stateUnwindMap$?NtQueryKey@RegistryManager@@QEAAJPEAXW4_KEY_INFORMATION_CLASS@@0KPEAK@Z 0000000180035748     registry_manager.obj
 0002:0000a760       $tryMap$?NtQueryKey@RegistryManager@@QEAAJPEAXW4_KEY_INFORMATION_CLASS@@0KPEAK@Z 0000000180035760     registry_manager.obj
 0002:0000a774       $handlerMap$0$?NtQueryKey@RegistryManager@@QEAAJPEAXW4_KEY_INFORMATION_CLASS@@0KPEAK@Z 0000000180035774     registry_manager.obj
 0002:0000a788       $ip2state$?NtQueryKey@RegistryManager@@QEAAJPEAXW4_KEY_INFORMATION_CLASS@@0KPEAK@Z 0000000180035788     registry_manager.obj
 0002:0000a7b8       $unwind$?catch$5@?0??NtQueryKey@RegistryManager@@QEAAJPEAXW4_KEY_INFORMATION_CLASS@@0KPEAK@Z@4HA 00000001800357b8     registry_manager.obj
 0002:0000a7c8       $unwind$?NtEnumerateValueKey@RegistryManager@@QEAAJPEAXKW4_KEY_VALUE_INFORMATION_CLASS@@0KPEAK@Z 00000001800357c8     registry_manager.obj
 0002:0000a7e0       $unwind$?NtEnumerateKey@RegistryManager@@QEAAJPEAXKW4_KEY_INFORMATION_CLASS@@0KPEAK@Z 00000001800357e0     registry_manager.obj
 0002:0000a800       $stateUnwindMap$?NtEnumerateKey@RegistryManager@@QEAAJPEAXKW4_KEY_INFORMATION_CLASS@@0KPEAK@Z 0000000180035800     registry_manager.obj
 0002:0000a838       $tryMap$?NtEnumerateKey@RegistryManager@@QEAAJPEAXKW4_KEY_INFORMATION_CLASS@@0KPEAK@Z 0000000180035838     registry_manager.obj
 0002:0000a860       $handlerMap$0$?NtEnumerateKey@RegistryManager@@QEAAJPEAXKW4_KEY_INFORMATION_CLASS@@0KPEAK@Z 0000000180035860     registry_manager.obj
 0002:0000a874       $handlerMap$1$?NtEnumerateKey@RegistryManager@@QEAAJPEAXKW4_KEY_INFORMATION_CLASS@@0KPEAK@Z 0000000180035874     registry_manager.obj
 0002:0000a890       $ip2state$?NtEnumerateKey@RegistryManager@@QEAAJPEAXKW4_KEY_INFORMATION_CLASS@@0KPEAK@Z 0000000180035890     registry_manager.obj
 0002:0000a930       $unwind$?catch$14@?0??NtEnumerateKey@RegistryManager@@QEAAJPEAXKW4_KEY_INFORMATION_CLASS@@0KPEAK@Z@4HA 0000000180035930     registry_manager.obj
 0002:0000a940       $unwind$?catch$15@?0??NtEnumerateKey@RegistryManager@@QEAAJPEAXKW4_KEY_INFORMATION_CLASS@@0KPEAK@Z@4HA 0000000180035940     registry_manager.obj
 0002:0000a950       $unwind$?push_back@?$vector@PEAVRegistryKey@@@@QEAAXAEBQEAVRegistryKey@@@Z 0000000180035950     registry_manager.obj
 0002:0000a95c       $chain$1$?push_back@?$vector@PEAVRegistryKey@@@@QEAAXAEBQEAVRegistryKey@@@Z 000000018003595c     registry_manager.obj
 0002:0000a974       $chain$2$?push_back@?$vector@PEAVRegistryKey@@@@QEAAXAEBQEAVRegistryKey@@@Z 0000000180035974     registry_manager.obj
 0002:0000a984       $unwind$?ShowMessage@@YAXPEB_W@Z 0000000180035984     utils.obj
 0002:0000a994       $chain$0$?ShowMessage@@YAXPEB_W@Z 0000000180035994     utils.obj
 0002:0000a9a8       $chain$1$?ShowMessage@@YAXPEB_W@Z 00000001800359a8     utils.obj
 0002:0000a9b8       $unwind$?InternalGetProcAddress@@YAPEAXPEAUHINSTANCE__@@PEBD@Z 00000001800359b8     utils.obj
 0002:0000a9cc       $chain$2$?InternalGetProcAddress@@YAPEAXPEAUHINSTANCE__@@PEBD@Z 00000001800359cc     utils.obj
 0002:0000a9e0       $chain$3$?InternalGetProcAddress@@YAPEAXPEAUHINSTANCE__@@PEBD@Z 00000001800359e0     utils.obj
 0002:0000a9f0       $unwind$?LzmaDecode@@YAHPEAU_CLzmaDecoderState@@PEBE_KPEA_KPEAE23@Z 00000001800359f0     LzmaDecode.obj
 0002:0000aa08       $unwind$DllMain            0000000180035a08     core.obj
 0002:0000aa10       $unwind$?ExportedIsValidImageCRC@@YA_NXZ 0000000180035a10     core.obj
 0002:0000aa18       $chain$3$?ExportedIsValidImageCRC@@YA_NXZ 0000000180035a18     core.obj
 0002:0000aa38       $chain$6$?ExportedIsValidImageCRC@@YA_NXZ 0000000180035a38     core.obj
 0002:0000aa54       $chain$7$?ExportedIsValidImageCRC@@YA_NXZ 0000000180035a54     core.obj
 0002:0000aa6c       $chain$8$?ExportedIsValidImageCRC@@YA_NXZ 0000000180035a6c     core.obj
 0002:0000aa88       $unwind$?ExportedIsVirtualMachinePresent@@YA_NXZ 0000000180035a88     core.obj
 0002:0000aacc       $unwind$?filt$0@?0??ExportedIsVirtualMachinePresent@@YA_NXZ@4HA 0000000180035acc     core.obj
 0002:0000aad4       $unwind$?filt$1@?0??ExportedIsVirtualMachinePresent@@YA_NXZ@4HA 0000000180035ad4     core.obj
 0002:0000aadc       $unwind$?ExportedIsDebuggerPresent@@YA_N_N@Z 0000000180035adc     core.obj
 0002:0000ab0c       $unwind$?filt$0@?0??ExportedIsDebuggerPresent@@YA_N_N@Z@4HA 0000000180035b0c     core.obj
 0002:0000ab14       $unwind$??1VirtualObjectList@@QEAA@XZ 0000000180035b14     core.obj
 0002:0000ab20       $unwind$?Add@VirtualObjectList@@QEAAPEAVVirtualObject@@W4VirtualObjectType@@PEAX1I@Z 0000000180035b20     core.obj
 0002:0000ab34       $unwind$?DeleteObject@VirtualObjectList@@QEAAXPEAX@Z 0000000180035b34     core.obj
 0002:0000ab44       $chain$0$?DeleteObject@VirtualObjectList@@QEAAXPEAX@Z 0000000180035b44     core.obj
 0002:0000ab58       $chain$1$?DeleteObject@VirtualObjectList@@QEAAXPEAX@Z 0000000180035b58     core.obj
 0002:0000ab68       $unwind$?DeleteRef@VirtualObjectList@@QEAAXPEAX0@Z 0000000180035b68     core.obj
 0002:0000ab7c       $chain$0$?DeleteRef@VirtualObjectList@@QEAAXPEAX0@Z 0000000180035b7c     core.obj
 0002:0000ab90       $chain$1$?DeleteRef@VirtualObjectList@@QEAAXPEAX0@Z 0000000180035b90     core.obj
 0002:0000aba0       $unwind$??1Core@@QEAA@XZ   0000000180035ba0     core.obj
 0002:0000abb8       $ip2state$??1Core@@QEAA@XZ 0000000180035bb8     core.obj
 0002:0000abc0       $unwind$??_GFileManager@@QEAAPEAXI@Z 0000000180035bc0     core.obj
 0002:0000abd4       $stateUnwindMap$??_GFileManager@@QEAAPEAXI@Z 0000000180035bd4     core.obj
 0002:0000abe0       $ip2state$??_GFileManager@@QEAAPEAXI@Z 0000000180035be0     core.obj
 0002:0000abf8       $unwind$?Instance@Core@@SAPEAV1@XZ 0000000180035bf8     core.obj
 0002:0000ac00       $chain$1$?Instance@Core@@SAPEAV1@XZ 0000000180035c00     core.obj
 0002:0000ac18       $chain$2$?Instance@Core@@SAPEAV1@XZ 0000000180035c18     core.obj
 0002:0000ac28       $unwind$?Init@Core@@QEAA_NPEAUHINSTANCE__@@@Z 0000000180035c28     core.obj
 0002:0000ac4c       $stateUnwindMap$?Init@Core@@QEAA_NPEAUHINSTANCE__@@@Z 0000000180035c4c     core.obj
 0002:0000ac80       $ip2state$?Init@Core@@QEAA_NPEAUHINSTANCE__@@@Z 0000000180035c80     core.obj
 0002:0000ace8       $unwind$?dtor$0@?0??Init@Core@@QEAA_NPEAUHINSTANCE__@@@Z@4HA 0000000180035ce8     core.obj
 0002:0000acf0       $unwind$?dtor$1@?0??Init@Core@@QEAA_NPEAUHINSTANCE__@@@Z@4HA 0000000180035cf0     core.obj
 0002:0000acf8       $unwind$?dtor$6@?0??Init@Core@@QEAA_NPEAUHINSTANCE__@@@Z@4HA 0000000180035cf8     core.obj
 0002:0000ad00       $unwind$?dtor$3@?0??Init@Core@@QEAA_NPEAUHINSTANCE__@@@Z@4HA 0000000180035d00     core.obj
 0002:0000ad08       $unwind$?dtor$4@?0??Init@Core@@QEAA_NPEAUHINSTANCE__@@@Z@4HA 0000000180035d08     core.obj
 0002:0000ad10       $unwind$?dtor$5@?0??Init@Core@@QEAA_NPEAUHINSTANCE__@@@Z@4HA 0000000180035d10     core.obj
 0002:0000ad18       $unwind$?hardware_id@Core@@QEAAPEAVHardwareID@@XZ 0000000180035d18     core.obj
 0002:0000ad28       $stateUnwindMap$?hardware_id@Core@@QEAAPEAVHardwareID@@XZ 0000000180035d28     core.obj
 0002:0000ad30       $ip2state$?hardware_id@Core@@QEAAPEAVHardwareID@@XZ 0000000180035d30     core.obj
 0002:0000ad48       $unwind$?dtor$0@?0??hardware_id@Core@@QEAAPEAVHardwareID@@XZ@4HA 0000000180035d48     core.obj
 0002:0000ad50       $unwind$?HookedNtProtectVirtualMemory@@YAJPEAXPEAPEAXPEA_KKPEAK@Z 0000000180035d50     core.obj
 0002:0000ad64       $unwind$?HookedDbgUiRemoteBreakin@@YAXXZ 0000000180035d64     core.obj
 0002:0000ad6c       $unwind$?HookedNtClose@@YAJPEAX@Z 0000000180035d6c     core.obj
 0002:0000ad7c       $unwind$?HookedNtQueryObject@@YAJPEAXW4_OBJECT_INFORMATION_CLASS@@0KPEAK@Z 0000000180035d7c     core.obj
 0002:0000ad90       $unwind$?HookAPIs@Core@@AEAAXAEAVHookManager@@I@Z 0000000180035d90     core.obj
 0002:0000ada0       $chain$1$?HookAPIs@Core@@AEAAXAEAVHookManager@@I@Z 0000000180035da0     core.obj
 0002:0000adb8       $chain$2$?HookAPIs@Core@@AEAAXAEAVHookManager@@I@Z 0000000180035db8     core.obj
 0002:0000adc8       $unwind$?UnhookAPIs@Core@@AEAAXAEAVHookManager@@@Z 0000000180035dc8     core.obj
 0002:0000add4       $chain$0$?UnhookAPIs@Core@@AEAAXAEAVHookManager@@@Z 0000000180035dd4     core.obj
 0002:0000ade8       $chain$1$?UnhookAPIs@Core@@AEAAXAEAVHookManager@@@Z 0000000180035de8     core.obj
 0002:0000adf8       $unwind$?NtProtectVirtualMemory@Core@@QEAAJPEAXPEAPEAXPEA_KKPEAK@Z 0000000180035df8     core.obj
 0002:0000ae14       $unwind$?NtQueryObject@Core@@QEAAJPEAXW4_OBJECT_INFORMATION_CLASS@@0KPEAK@Z 0000000180035e14     core.obj
 0002:0000ae2c       $unwind$??1?$vector@VUnicodeString@@@@QEAA@XZ 0000000180035e2c     core.obj
 0002:0000ae3c       $stateUnwindMap$??1?$vector@VUnicodeString@@@@QEAA@XZ 0000000180035e3c     core.obj
 0002:0000ae48       $ip2state$??1?$vector@VUnicodeString@@@@QEAA@XZ 0000000180035e48     core.obj
 0002:0000ae60       $unwind$??0CipherRC5@@QEAA@AEBURC5Key@@@Z 0000000180035e60     crypto.obj
 0002:0000ae6c       $unwind$??0BigNumber@@QEAA@PEBE_K_N@Z 0000000180035e6c     crypto.obj
 0002:0000ae80       $unwind$?init@BigNumber@@AEAAX_K@Z 0000000180035e80     crypto.obj
 0002:0000ae98       $unwind$?internal_mul@BigNumber@@AEBAXPEAG00H@Z 0000000180035e98     crypto.obj
 0002:0000aea8       $chain$3$?internal_mul@BigNumber@@AEBAXPEAG00H@Z 0000000180035ea8     crypto.obj
 0002:0000aec8       $chain$4$?internal_mul@BigNumber@@AEBAXPEAG00H@Z 0000000180035ec8     crypto.obj
 0002:0000aed8       $unwind$?internal_mod@BigNumber@@AEBAXPEAGH0H0H@Z 0000000180035ed8     crypto.obj
 0002:0000aee8       $chain$2$?internal_mod@BigNumber@@AEBAXPEAGH0H0H@Z 0000000180035ee8     crypto.obj
 0002:0000af04       $chain$3$?internal_mod@BigNumber@@AEBAXPEAGH0H0H@Z 0000000180035f04     crypto.obj
 0002:0000af14       $unwind$?modpow@BigNumber@@QEBAPEAVCryptoContainer@@AEBV2@_K111@Z 0000000180035f14     crypto.obj
 0002:0000af38       $stateUnwindMap$?modpow@BigNumber@@QEBAPEAVCryptoContainer@@AEBV2@_K111@Z 0000000180035f38     crypto.obj
 0002:0000af40       $ip2state$?modpow@BigNumber@@QEBAPEAVCryptoContainer@@AEBV2@_K111@Z 0000000180035f40     crypto.obj
 0002:0000af58       $unwind$?dtor$0@?0??modpow@BigNumber@@QEBAPEAVCryptoContainer@@AEBV2@_K111@Z@4HA 0000000180035f58     crypto.obj
 0002:0000af60       $unwind$?bignum_byte@BigNumber@@AEBAEPEAG_K@Z 0000000180035f60     crypto.obj
 0002:0000af6c       $unwind$?EncryptValue@CryptoContainer@@AEBA_N_KPEAE0@Z 0000000180035f6c     crypto.obj
 0002:0000af84       $chain$4$?EncryptValue@CryptoContainer@@AEBA_N_KPEAE0@Z 0000000180035f84     crypto.obj
 0002:0000af9c       $chain$5$?EncryptValue@CryptoContainer@@AEBA_N_KPEAE0@Z 0000000180035f9c     crypto.obj
 0002:0000afb0       $unwind$?DecryptValue@CryptoContainer@@AEBA_N_KPEAE0@Z 0000000180035fb0     crypto.obj
 0002:0000afbc       $chain$4$?DecryptValue@CryptoContainer@@AEBA_N_KPEAE0@Z 0000000180035fbc     crypto.obj
 0002:0000afe0       $chain$5$?DecryptValue@CryptoContainer@@AEBA_N_KPEAE0@Z 0000000180035fe0     crypto.obj
 0002:0000aff0       $unwind$?UTF8ToUnicode@CryptoContainer@@QEBAX_K0PEA_W0@Z 0000000180035ff0     crypto.obj
 0002:0000affc       $chain$2$?UTF8ToUnicode@CryptoContainer@@QEBAX_K0PEA_W0@Z 0000000180035ffc     crypto.obj
 0002:0000b018       $chain$4$?UTF8ToUnicode@CryptoContainer@@QEBAX_K0PEA_W0@Z 0000000180036018     crypto.obj
 0002:0000b030       $chain$5$?UTF8ToUnicode@CryptoContainer@@QEBAX_K0PEA_W0@Z 0000000180036030     crypto.obj
 0002:0000b040       $chain$6$?UTF8ToUnicode@CryptoContainer@@QEBAX_K0PEA_W0@Z 0000000180036040     crypto.obj
 0002:0000b050       $unwind$?Base64Encode@@YA_NPEBE_KPEADAEA_K@Z 0000000180036050     crypto.obj
 0002:0000b060       $chain$0$?Base64Encode@@YA_NPEBE_KPEADAEA_K@Z 0000000180036060     crypto.obj
 0002:0000b074       $chain$2$?Base64Encode@@YA_NPEBE_KPEADAEA_K@Z 0000000180036074     crypto.obj
 0002:0000b088       $chain$3$?Base64Encode@@YA_NPEBE_KPEADAEA_K@Z 0000000180036088     crypto.obj
 0002:0000b098       $unwind$?Base64Decode@@YA_NPEBD_KPEAEAEA_K@Z 0000000180036098     crypto.obj
 0002:0000b0a4       $chain$0$?Base64Decode@@YA_NPEBD_KPEAEAEA_K@Z 00000001800360a4     crypto.obj
 0002:0000b0b8       $chain$2$?Base64Decode@@YA_NPEBD_KPEAEAEA_K@Z 00000001800360b8     crypto.obj
 0002:0000b0cc       $chain$3$?Base64Decode@@YA_NPEBD_KPEAEAEA_K@Z 00000001800360cc     crypto.obj
 0002:0000b0dc       $unwind$?Input@SHA1@@QEAAXPEBE_K@Z 00000001800360dc     crypto.obj
 0002:0000b0ec       $chain$0$?Input@SHA1@@QEAAXPEBE_K@Z 00000001800360ec     crypto.obj
 0002:0000b100       $chain$1$?Input@SHA1@@QEAAXPEBE_K@Z 0000000180036100     crypto.obj
 0002:0000b110       $unwind$?Input@SHA1@@QEAAXAEBVCryptoContainer@@_K1@Z 0000000180036110     crypto.obj
 0002:0000b120       $chain$0$?Input@SHA1@@QEAAXAEBVCryptoContainer@@_K1@Z 0000000180036120     crypto.obj
 0002:0000b134       $chain$1$?Input@SHA1@@QEAAXAEBVCryptoContainer@@_K1@Z 0000000180036134     crypto.obj
 0002:0000b144       $unwind$?ProcessMessageBlock@SHA1@@AEAAXXZ 0000000180036144     crypto.obj
 0002:0000b164       $unwind$?Result@SHA1@@QEAAPEBEXZ 0000000180036164     crypto.obj
 0002:0000b170       $unwind$?CalcCRC@@YAIPEBX_K@Z 0000000180036170     crypto.obj
 0002:0000b178       $chain$0$?CalcCRC@@YAIPEBX_K@Z 0000000180036178     crypto.obj
 0002:0000b18c       $chain$1$?CalcCRC@@YAIPEBX_K@Z 000000018003618c     crypto.obj
 0002:0000b19c       $unwind$?HookAPI@HookManager@@QEAAPEAXPEAUHINSTANCE__@@PEBDPEAX_NPEAPEAX@Z 000000018003619c     hook_manager.obj
 0002:0000b1bc       $unwind$?UnhookAPI@HookManager@@QEAA_NPEAX@Z 00000001800361bc     hook_manager.obj
 0002:0000b1d0       $unwind$?GetThreads@HookManager@@AEAAXXZ 00000001800361d0     hook_manager.obj
 0002:0000b1dc       $chain$5$?GetThreads@HookManager@@AEAAXXZ 00000001800361dc     hook_manager.obj
 0002:0000b204       $chain$6$?GetThreads@HookManager@@AEAAXXZ 0000000180036204     hook_manager.obj
 0002:0000b214       $unwind$?End@HookManager@@QEAAXXZ 0000000180036214     hook_manager.obj
 0002:0000b21c       $chain$0$?End@HookManager@@QEAAXXZ 000000018003621c     hook_manager.obj
 0002:0000b230       $chain$1$?End@HookManager@@QEAAXXZ 0000000180036230     hook_manager.obj
 0002:0000b240       $unwind$?GetInstructionSize@@YA_NPEBEAEAUsCommandInfo@@@Z 0000000180036240     hook_manager.obj
 0002:0000b254       $chain$1$?GetInstructionSize@@YA_NPEBEAEAUsCommandInfo@@@Z 0000000180036254     hook_manager.obj
 0002:0000b26c       $chain$3$?GetInstructionSize@@YA_NPEBEAEAUsCommandInfo@@@Z 000000018003626c     hook_manager.obj
 0002:0000b284       $unwind$?Hook@HookedAPI@@QEAA_NPEAX0PEAPEAX@Z 0000000180036284     hook_manager.obj
 0002:0000b2a0       $unwind$?Unhook@HookedAPI@@QEAAXXZ 00000001800362a0     hook_manager.obj
 0002:0000b2ac       $chain$2$?Unhook@HookedAPI@@QEAAXXZ 00000001800362ac     hook_manager.obj
 0002:0000b2c8       $chain$3$?Unhook@HookedAPI@@QEAAXXZ 00000001800362c8     hook_manager.obj
 0002:0000b2dc       $chain$4$?Unhook@HookedAPI@@QEAAXXZ 00000001800362dc     hook_manager.obj
 0002:0000b2ec       $chain$5$?Unhook@HookedAPI@@QEAAXXZ 00000001800362ec     hook_manager.obj
 0002:0000b2fc       $unwind$??$swprintf_s@$0CAA@@@YAHAEAY0CAA@_WPEB_WZZ 00000001800362fc     hook_manager.obj
 0002:0000b308       $unwind$??$swprintf_s@$0GE@@@YAHAEAY0GE@_WPEB_WZZ 0000000180036308     hook_manager.obj
 0002:0000b314       $unwind$?ExportedGetCurrentHWID@@YAHPEADH@Z 0000000180036314     hwid.obj
 0002:0000b32c       $stateUnwindMap$?ExportedGetCurrentHWID@@YAHPEADH@Z 000000018003632c     hwid.obj
 0002:0000b338       $ip2state$?ExportedGetCurrentHWID@@YAHPEADH@Z 0000000180036338     hwid.obj
 0002:0000b350       $unwind$?dtor$0@?0??ExportedGetCurrentHWID@@YAHPEADH@Z@4HA 0000000180036350     hwid.obj
 0002:0000b358       $unwind$??0HardwareID@@QEAA@XZ 0000000180036358     hwid.obj
 0002:0000b378       $stateUnwindMap$??0HardwareID@@QEAA@XZ 0000000180036378     hwid.obj
 0002:0000b380       $ip2state$??0HardwareID@@QEAA@XZ 0000000180036380     hwid.obj
 0002:0000b398       $unwind$?dtor$0@?0???0HardwareID@@QEAA@XZ@4HA 0000000180036398     hwid.obj
 0002:0000b3a0       $unwind$?AddBlock@HardwareID@@AEAAXPEBX_KW4BlockType@1@@Z 00000001800363a0     hwid.obj
 0002:0000b3b4       $chain$0$?AddBlock@HardwareID@@AEAAXPEBX_KW4BlockType@1@@Z 00000001800363b4     hwid.obj
 0002:0000b3c8       $chain$1$?AddBlock@HardwareID@@AEAAXPEBX_KW4BlockType@1@@Z 00000001800363c8     hwid.obj
 0002:0000b3d8       $unwind$?GetCPU@HardwareID@@AEAAXE@Z 00000001800363d8     hwid.obj
 0002:0000b3e8       $chain$3$?GetCPU@HardwareID@@AEAAXE@Z 00000001800363e8     hwid.obj
 0002:0000b408       $chain$4$?GetCPU@HardwareID@@AEAAXE@Z 0000000180036408     hwid.obj
 0002:0000b418       $unwind$?GetMachineName@HardwareID@@AEAAXXZ 0000000180036418     hwid.obj
 0002:0000b424       $unwind$?GetMacAddresses@HardwareID@@AEAAXXZ 0000000180036424     hwid.obj
 0002:0000b430       $chain$0$?GetMacAddresses@HardwareID@@AEAAXXZ 0000000180036430     hwid.obj
 0002:0000b444       $chain$1$?GetMacAddresses@HardwareID@@AEAAXXZ 0000000180036444     hwid.obj
 0002:0000b458       $chain$3$?GetMacAddresses@HardwareID@@AEAAXXZ 0000000180036458     hwid.obj
 0002:0000b470       $chain$4$?GetMacAddresses@HardwareID@@AEAAXXZ 0000000180036470     hwid.obj
 0002:0000b484       $chain$5$?GetMacAddresses@HardwareID@@AEAAXXZ 0000000180036484     hwid.obj
 0002:0000b494       $chain$6$?GetMacAddresses@HardwareID@@AEAAXXZ 0000000180036494     hwid.obj
 0002:0000b4a4       $chain$7$?GetMacAddresses@HardwareID@@AEAAXXZ 00000001800364a4     hwid.obj
 0002:0000b4b4       $chain$8$?GetMacAddresses@HardwareID@@AEAAXXZ 00000001800364b4     hwid.obj
 0002:0000b4c4       $unwind$?GetHDD@HardwareID@@AEAAXXZ 00000001800364c4     hwid.obj
 0002:0000b4d4       $chain$1$?GetHDD@HardwareID@@AEAAXXZ 00000001800364d4     hwid.obj
 0002:0000b4ec       $chain$2$?GetHDD@HardwareID@@AEAAXXZ 00000001800364ec     hwid.obj
 0002:0000b4fc       $unwind$?GetCurrent@HardwareID@@QEAAHPEADH@Z 00000001800364fc     hwid.obj
 0002:0000b510       $unwind$?IsCorrect@HardwareID@@QEBA_NPEAE_K@Z 0000000180036510     hwid.obj
 0002:0000b51c       $chain$0$?IsCorrect@HardwareID@@QEBA_NPEAE_K@Z 000000018003651c     hwid.obj
 0002:0000b530       $chain$1$?IsCorrect@HardwareID@@QEBA_NPEAE_K@Z 0000000180036530     hwid.obj
 0002:0000b544       $chain$2$?IsCorrect@HardwareID@@QEBA_NPEAE_K@Z 0000000180036544     hwid.obj
 0002:0000b554       $chain$4$?IsCorrect@HardwareID@@QEBA_NPEAE_K@Z 0000000180036554     hwid.obj
 0002:0000b568       $chain$5$?IsCorrect@HardwareID@@QEBA_NPEAE_K@Z 0000000180036568     hwid.obj
 0002:0000b578       $unwind$?IsCorrect@HardwareID@@QEBA_NAEAVCryptoContainer@@_K1@Z 0000000180036578     hwid.obj
 0002:0000b588       $chain$1$?IsCorrect@HardwareID@@QEBA_NAEAVCryptoContainer@@_K1@Z 0000000180036588     hwid.obj
 0002:0000b5a0       $chain$2$?IsCorrect@HardwareID@@QEBA_NAEAVCryptoContainer@@_K1@Z 00000001800365a0     hwid.obj
 0002:0000b5b0       $unwind$?ExportedSetSerialNumber@@YAHPEBD@Z 00000001800365b0     licensing_manager.obj
 0002:0000b5b8       $unwind$?ExportedGetSerialNumberState@@YAHXZ 00000001800365b8     licensing_manager.obj
 0002:0000b5d0       $stateUnwindMap$?ExportedGetSerialNumberState@@YAHXZ 00000001800365d0     licensing_manager.obj
 0002:0000b5d8       $ip2state$?ExportedGetSerialNumberState@@YAHXZ 00000001800365d8     licensing_manager.obj
 0002:0000b600       $unwind$?ExportedGetSerialNumberData@@YA_NPEAUVMProtectSerialNumberData@@H@Z 0000000180036600     licensing_manager.obj
 0002:0000b60c       $unwind$?ExportedActivateLicense@@YAHPEBDPEADH@Z 000000018003660c     licensing_manager.obj
 0002:0000b61c       $unwind$?ExportedDeactivateLicense@@YAHPEBD@Z 000000018003661c     licensing_manager.obj
 0002:0000b624       $unwind$?ExportedGetOfflineActivationString@@YAHPEBDPEADH@Z 0000000180036624     licensing_manager.obj
 0002:0000b634       $unwind$?ExportedGetOfflineDeactivationString@@YAHPEBDPEADH@Z 0000000180036634     licensing_manager.obj
 0002:0000b644       $unwind$?ExportedDecryptBuffer@@YAXPEAE@Z 0000000180036644     licensing_manager.obj
 0002:0000b64c       $unwind$??0LicensingManager@@QEAA@PEAEI0@Z 000000018003664c     licensing_manager.obj
 0002:0000b668       $stateUnwindMap$??0LicensingManager@@QEAA@PEAEI0@Z 0000000180036668     licensing_manager.obj
 0002:0000b670       $ip2state$??0LicensingManager@@QEAA@PEAEI0@Z 0000000180036670     licensing_manager.obj
 0002:0000b688       $unwind$?dtor$0@?0???0LicensingManager@@QEAA@PEAEI0@Z@4HA 0000000180036688     licensing_manager.obj
 0002:0000b690       $unwind$??1LicensingManager@@QEAA@XZ 0000000180036690     licensing_manager.obj
 0002:0000b69c       $unwind$?save_state@LicensingManager@@AEAAHH@Z 000000018003669c     licensing_manager.obj
 0002:0000b6ac       $unwind$?CheckLicenseDataCRC@LicensingManager@@AEBA_NXZ 00000001800366ac     licensing_manager.obj
 0002:0000b6c0       $chain$0$?CheckLicenseDataCRC@LicensingManager@@AEBA_NXZ 00000001800366c0     licensing_manager.obj
 0002:0000b6d4       $chain$1$?CheckLicenseDataCRC@LicensingManager@@AEBA_NXZ 00000001800366d4     licensing_manager.obj
 0002:0000b6e4       $chain$2$?CheckLicenseDataCRC@LicensingManager@@AEBA_NXZ 00000001800366e4     licensing_manager.obj
 0002:0000b6f8       $unwind$?SetSerialNumber@LicensingManager@@QEAAHPEBD@Z 00000001800366f8     licensing_manager.obj
 0002:0000b718       $stateUnwindMap$?SetSerialNumber@LicensingManager@@QEAAHPEBD@Z 0000000180036718     licensing_manager.obj
 0002:0000b728       $ip2state$?SetSerialNumber@LicensingManager@@QEAAHPEBD@Z 0000000180036728     licensing_manager.obj
 0002:0000b750       $unwind$?GetCurrentDate@LicensingManager@@SAIXZ 0000000180036750     licensing_manager.obj
 0002:0000b758       $unwind$?ParseSerial@LicensingManager@@AEAAHPEAUVMProtectSerialNumberData@@@Z 0000000180036758     licensing_manager.obj
 0002:0000b768       $chain$4$?ParseSerial@LicensingManager@@AEAAHPEAUVMProtectSerialNumberData@@@Z 0000000180036768     licensing_manager.obj
 0002:0000b78c       $chain$5$?ParseSerial@LicensingManager@@AEAAHPEAUVMProtectSerialNumberData@@@Z 000000018003678c     licensing_manager.obj
 0002:0000b79c       $unwind$?GetSerialNumberData@LicensingManager@@QEAA_NPEAUVMProtectSerialNumberData@@H@Z 000000018003679c     licensing_manager.obj
 0002:0000b7b4       $stateUnwindMap$?GetSerialNumberData@LicensingManager@@QEAA_NPEAUVMProtectSerialNumberData@@H@Z 00000001800367b4     licensing_manager.obj
 0002:0000b7c0       $ip2state$?GetSerialNumberData@LicensingManager@@QEAA_NPEAUVMProtectSerialNumberData@@H@Z 00000001800367c0     licensing_manager.obj
 0002:0000b7d8       $unwind$?ActivateLicense@LicensingManager@@QEBAHPEBDPEADH@Z 00000001800367d8     licensing_manager.obj
 0002:0000b7f8       $stateUnwindMap$?ActivateLicense@LicensingManager@@QEBAHPEBDPEADH@Z 00000001800367f8     licensing_manager.obj
 0002:0000b800       $ip2state$?ActivateLicense@LicensingManager@@QEBAHPEBDPEADH@Z 0000000180036800     licensing_manager.obj
 0002:0000b818       $unwind$?DeactivateLicense@LicensingManager@@QEBAHPEBD@Z 0000000180036818     licensing_manager.obj
 0002:0000b830       $stateUnwindMap$?DeactivateLicense@LicensingManager@@QEBAHPEBD@Z 0000000180036830     licensing_manager.obj
 0002:0000b838       $ip2state$?DeactivateLicense@LicensingManager@@QEBAHPEBD@Z 0000000180036838     licensing_manager.obj
 0002:0000b850       $unwind$??_GDeactivationRequest@@UEAAPEAXI@Z 0000000180036850     licensing_manager.obj
 0002:0000b85c       $unwind$?GetOfflineActivationString@LicensingManager@@QEBAHPEBDPEADH@Z 000000018003685c     licensing_manager.obj
 0002:0000b884       $stateUnwindMap$?GetOfflineActivationString@LicensingManager@@QEBAHPEBDPEADH@Z 0000000180036884     licensing_manager.obj
 0002:0000b890       $ip2state$?GetOfflineActivationString@LicensingManager@@QEBAHPEBDPEADH@Z 0000000180036890     licensing_manager.obj
 0002:0000b8a8       $unwind$?GetOfflineDeactivationString@LicensingManager@@QEBAHPEBDPEADH@Z 00000001800368a8     licensing_manager.obj
 0002:0000b8cc       $stateUnwindMap$?GetOfflineDeactivationString@LicensingManager@@QEBAHPEBDPEADH@Z 00000001800368cc     licensing_manager.obj
 0002:0000b8d8       $ip2state$?GetOfflineDeactivationString@LicensingManager@@QEBAHPEBDPEADH@Z 00000001800368d8     licensing_manager.obj
 0002:0000b8f0       $unwind$?DecryptBuffer@LicensingManager@@QEAAXPEAE@Z 00000001800368f0     licensing_manager.obj
 0002:0000b8f8       $unwind$??_GBaseRequest@@UEAAPEAXI@Z 00000001800368f8     licensing_manager.obj
 0002:0000b904       $unwind$?BuildUrl@BaseRequest@@IEAA_NAEBVCryptoContainer@@@Z 0000000180036904     licensing_manager.obj
 0002:0000b914       $chain$1$?BuildUrl@BaseRequest@@IEAA_NAEBVCryptoContainer@@@Z 0000000180036914     licensing_manager.obj
 0002:0000b92c       $chain$2$?BuildUrl@BaseRequest@@IEAA_NAEBVCryptoContainer@@@Z 000000018003692c     licensing_manager.obj
 0002:0000b93c       $unwind$?Send@BaseRequest@@QEAA_NXZ 000000018003693c     licensing_manager.obj
 0002:0000b95c       $stateUnwindMap$?Send@BaseRequest@@QEAA_NXZ 000000018003695c     licensing_manager.obj
 0002:0000b968       $ip2state$?Send@BaseRequest@@QEAA_NXZ 0000000180036968     licensing_manager.obj
 0002:0000b980       $unwind$?AppendUrlParam@BaseRequest@@IEAAXPEBD0@Z 0000000180036980     licensing_manager.obj
 0002:0000b990       $chain$1$?AppendUrlParam@BaseRequest@@IEAAXPEBD0@Z 0000000180036990     licensing_manager.obj
 0002:0000b9a8       $chain$2$?AppendUrlParam@BaseRequest@@IEAAXPEBD0@Z 00000001800369a8     licensing_manager.obj
 0002:0000b9b8       $unwind$??_GActivationRequest@@UEAAPEAXI@Z 00000001800369b8     licensing_manager.obj
 0002:0000b9c4       $unwind$?BuildUrl@ActivationRequest@@AEAA_NAEBVCryptoContainer@@PEBD_N@Z 00000001800369c4     licensing_manager.obj
 0002:0000b9e8       $stateUnwindMap$?BuildUrl@ActivationRequest@@AEAA_NAEBVCryptoContainer@@PEBD_N@Z 00000001800369e8     licensing_manager.obj
 0002:0000b9f0       $ip2state$?BuildUrl@ActivationRequest@@AEAA_NAEBVCryptoContainer@@PEBD_N@Z 00000001800369f0     licensing_manager.obj
 0002:0000ba08       $unwind$?dtor$0@?0??BuildUrl@ActivationRequest@@AEAA_NAEBVCryptoContainer@@PEBD_N@Z@4HA 0000000180036a08     licensing_manager.obj
 0002:0000ba10       $unwind$?Process@ActivationRequest@@QEAAHAEBVCryptoContainer@@PEBD_N@Z 0000000180036a10     licensing_manager.obj
 0002:0000ba28       $unwind$?BuildUrl@DeactivationRequest@@AEAA_NAEBVCryptoContainer@@PEBD_N@Z 0000000180036a28     licensing_manager.obj
 0002:0000ba3c       $chain$2$?BuildUrl@DeactivationRequest@@AEAA_NAEBVCryptoContainer@@PEBD_N@Z 0000000180036a3c     licensing_manager.obj
 0002:0000ba58       $chain$3$?BuildUrl@DeactivationRequest@@AEAA_NAEBVCryptoContainer@@PEBD_N@Z 0000000180036a58     licensing_manager.obj
 0002:0000ba68       $unwind$?Process@DeactivationRequest@@QEAAHAEBVCryptoContainer@@PEBD_N@Z 0000000180036a68     licensing_manager.obj
 0002:0000ba74       $unwind$?reserve@?$basic_string@_WU?$char_traits@_W@std@@V?$allocator@_W@2@@std@@QEAAX_K@Z 0000000180036a74     licensing_manager.obj
 0002:0000ba84       $unwind$??$_Construct@PEAD@?$basic_string@_WU?$char_traits@_W@std@@V?$allocator@_W@2@@std@@QEAAXPEAD0Uinput_iterator_tag@1@@Z 0000000180036a84     licensing_manager.obj
 0002:0000baa4       $stateUnwindMap$??$_Construct@PEAD@?$basic_string@_WU?$char_traits@_W@std@@V?$allocator@_W@2@@std@@QEAAXPEAD0Uinput_iterator_tag@1@@Z 0000000180036aa4     licensing_manager.obj
 0002:0000bab4       $tryMap$??$_Construct@PEAD@?$basic_string@_WU?$char_traits@_W@std@@V?$allocator@_W@2@@std@@QEAAXPEAD0Uinput_iterator_tag@1@@Z 0000000180036ab4     licensing_manager.obj
 0002:0000bac8       $handlerMap$0$??$_Construct@PEAD@?$basic_string@_WU?$char_traits@_W@std@@V?$allocator@_W@2@@std@@QEAAXPEAD0Uinput_iterator_tag@1@@Z 0000000180036ac8     licensing_manager.obj
 0002:0000bae0       $ip2state$??$_Construct@PEAD@?$basic_string@_WU?$char_traits@_W@std@@V?$allocator@_W@2@@std@@QEAAXPEAD0Uinput_iterator_tag@1@@Z 0000000180036ae0     licensing_manager.obj
 0002:0000bb08       $unwind$?catch$64@?0???$_Construct@PEAD@?$basic_string@_WU?$char_traits@_W@std@@V?$allocator@_W@2@@std@@QEAAXPEAD0Uinput_iterator_tag@1@@Z@4HA 0000000180036b08     licensing_manager.obj
 0002:0000bb1c       $unwind$?allocate@?$_Wrap_alloc@V?$allocator@_W@std@@@std@@QEAAPEA_W_K@Z 0000000180036b1c     licensing_manager.obj
 0002:0000bb24       $unwind$?_Copy@?$basic_string@_WU?$char_traits@_W@std@@V?$allocator@_W@2@@std@@QEAAX_K0@Z 0000000180036b24     licensing_manager.obj
 0002:0000bb40       $stateUnwindMap$?_Copy@?$basic_string@_WU?$char_traits@_W@std@@V?$allocator@_W@2@@std@@QEAAX_K0@Z 0000000180036b40     licensing_manager.obj
 0002:0000bb60       $tryMap$?_Copy@?$basic_string@_WU?$char_traits@_W@std@@V?$allocator@_W@2@@std@@QEAAX_K0@Z 0000000180036b60     licensing_manager.obj
 0002:0000bb88       $handlerMap$0$?_Copy@?$basic_string@_WU?$char_traits@_W@std@@V?$allocator@_W@2@@std@@QEAAX_K0@Z 0000000180036b88     licensing_manager.obj
 0002:0000bb9c       $handlerMap$1$?_Copy@?$basic_string@_WU?$char_traits@_W@std@@V?$allocator@_W@2@@std@@QEAAX_K0@Z 0000000180036b9c     licensing_manager.obj
 0002:0000bbb0       $ip2state$?_Copy@?$basic_string@_WU?$char_traits@_W@std@@V?$allocator@_W@2@@std@@QEAAX_K0@Z 0000000180036bb0     licensing_manager.obj
 0002:0000bbf0       $unwind$?catch$107@?0??_Copy@?$basic_string@_WU?$char_traits@_W@std@@V?$allocator@_W@2@@std@@QEAAX_K0@Z@4HA 0000000180036bf0     licensing_manager.obj
 0002:0000bc00       $unwind$?catch$106@?0??_Copy@?$basic_string@_WU?$char_traits@_W@std@@V?$allocator@_W@2@@std@@QEAAX_K0@Z@4HA 0000000180036c00     licensing_manager.obj
 0002:0000bc14       $unwind$?_Tidy@?$basic_string@_WU?$char_traits@_W@std@@V?$allocator@_W@2@@std@@QEAAX_N_K@Z 0000000180036c14     licensing_manager.obj
 0002:0000bc24       $unwind$??1?$basic_string@_WU?$char_traits@_W@std@@V?$allocator@_W@2@@std@@QEAA@XZ 0000000180036c24     licensing_manager.obj
 0002:0000bc2c       $unwind$?LoaderLoadLibraryEnc@@YAPEAUHINSTANCE__@@PEBD@Z 0000000180036c2c     loader.obj
 0002:0000bc34       $unwind$?LoaderGetProcAddress@@YAPEAXPEAUHINSTANCE__@@PEBD_N@Z 0000000180036c34     loader.obj
 0002:0000bc48       $unwind$?LoaderGetModuleHandleEnc@@YAPEAUHINSTANCE__@@PEBD@Z 0000000180036c48     loader.obj
 0002:0000bc50       $unwind$?LoaderMessage@@YAXW4MessageType@@PEBX1@Z 0000000180036c50     loader.obj
 0002:0000bc64       $chain$0$?LoaderMessage@@YAXW4MessageType@@PEBX1@Z 0000000180036c64     loader.obj
 0002:0000bc78       $chain$2$?LoaderMessage@@YAXW4MessageType@@PEBX1@Z 0000000180036c78     loader.obj
 0002:0000bc90       $chain$3$?LoaderMessage@@YAXW4MessageType@@PEBX1@Z 0000000180036c90     loader.obj
 0002:0000bca4       $chain$4$?LoaderMessage@@YAXW4MessageType@@PEBX1@Z 0000000180036ca4     loader.obj
 0002:0000bcb4       $chain$5$?LoaderMessage@@YAXW4MessageType@@PEBX1@Z 0000000180036cb4     loader.obj
 0002:0000bcc4       $unwind$?FreeImage@@YAXXZ  0000000180036cc4     loader.obj
 0002:0000bccc       $chain$0$?FreeImage@@YAXXZ 0000000180036ccc     loader.obj
 0002:0000bce0       $chain$1$?FreeImage@@YAXXZ 0000000180036ce0     loader.obj
 0002:0000bcf0       $unwind$?LoaderProcessFixups@@YAX_JIIPEAE1@Z 0000000180036cf0     loader.obj
 0002:0000bcf8       $chain$1$?LoaderProcessFixups@@YAX_JIIPEAE1@Z 0000000180036cf8     loader.obj
 0002:0000bd10       $chain$2$?LoaderProcessFixups@@YAX_JIIPEAE1@Z 0000000180036d10     loader.obj
 0002:0000bd20       $unwind$?SetupImage@@YAIXZ 0000000180036d20     loader.obj
 0002:0000bd84       $unwind$?filt$0@?0??SetupImage@@YAIXZ@4HA 0000000180036d84     loader.obj
 0002:0000bd8c       $unwind$?filt$1@?0??SetupImage@@YAIXZ@4HA 0000000180036d8c     loader.obj
 0002:0000bd94       $unwind$?filt$2@?0??SetupImage@@YAIXZ@4HA 0000000180036d94     loader.obj
 0002:0000bd9c       $unwind$?ExportedLoadResource@@YAPEAXPEAUHINSTANCE__@@PEAUHRSRC__@@@Z 0000000180036d9c     resource_manager.obj
 0002:0000bda8       $unwind$?ExportedFindResourceA@@YAPEAUHRSRC__@@PEAUHINSTANCE__@@PEBD1@Z 0000000180036da8     resource_manager.obj
 0002:0000bdb8       $unwind$?ExportedFindResourceExA@@YAPEAUHRSRC__@@PEAUHINSTANCE__@@PEBD1G@Z 0000000180036db8     resource_manager.obj
 0002:0000bdcc       $unwind$?ExportedFindResourceW@@YAPEAUHRSRC__@@PEAUHINSTANCE__@@PEB_W1@Z 0000000180036dcc     resource_manager.obj
 0002:0000bddc       $unwind$?ExportedFindResourceExW@@YAPEAUHRSRC__@@PEAUHINSTANCE__@@PEB_W1G@Z 0000000180036ddc     resource_manager.obj
 0002:0000bdf0       $unwind$?ExportedLoadStringA@@YAHPEAUHINSTANCE__@@IPEADH@Z 0000000180036df0     resource_manager.obj
 0002:0000be08       $unwind$?ExportedLoadStringW@@YAHPEAUHINSTANCE__@@IPEA_WH@Z 0000000180036e08     resource_manager.obj
 0002:0000be20       $unwind$?ExportedEnumResourceNamesA@@YAHPEAUHINSTANCE__@@PEBDP6AH01PEAD_J@Z3@Z 0000000180036e20     resource_manager.obj
 0002:0000be34       $unwind$?ExportedEnumResourceNamesW@@YAHPEAUHINSTANCE__@@PEB_WP6AH01PEA_W_J@Z3@Z 0000000180036e34     resource_manager.obj
 0002:0000be48       $unwind$?ExportedEnumResourceLanguagesA@@YAHPEAUHINSTANCE__@@PEBD1P6AH011G_J@Z2@Z 0000000180036e48     resource_manager.obj
 0002:0000be5c       $unwind$?ExportedEnumResourceLanguagesW@@YAHPEAUHINSTANCE__@@PEB_W1P6AH011G_J@Z2@Z 0000000180036e5c     resource_manager.obj
 0002:0000be70       $unwind$?ExportedEnumResourceTypesA@@YAHPEAUHINSTANCE__@@P6AH0PEAD_J@Z2@Z 0000000180036e70     resource_manager.obj
 0002:0000be80       $unwind$?ExportedEnumResourceTypesW@@YAHPEAUHINSTANCE__@@P6AH0PEA_W_J@Z2@Z 0000000180036e80     resource_manager.obj
 0002:0000be90       $unwind$?HookedLoadStringA@@YAHPEAUHINSTANCE__@@IPEADH@Z 0000000180036e90     resource_manager.obj
 0002:0000bea8       $unwind$?HookedLoadStringW@@YAHPEAUHINSTANCE__@@IPEA_WH@Z 0000000180036ea8     resource_manager.obj
 0002:0000bec0       $unwind$?HookedLdrFindResource_U@@YAJPEAUHINSTANCE__@@PEBULDR_RESOURCE_INFO@@KPEAPEBU_IMAGE_RESOURCE_DATA_ENTRY@@@Z 0000000180036ec0     resource_manager.obj
 0002:0000bed8       $unwind$?HookedLdrAccessResource@@YAJPEAUHINSTANCE__@@PEBU_IMAGE_RESOURCE_DATA_ENTRY@@PEAPEAXPEAK@Z 0000000180036ed8     resource_manager.obj
 0002:0000bef0       $unwind$??0ResourceManager@@QEAA@PEBEPEAUHINSTANCE__@@0@Z 0000000180036ef0     resource_manager.obj
 0002:0000bf04       $stateUnwindMap$??0ResourceManager@@QEAA@PEBEPEAUHINSTANCE__@@0@Z 0000000180036f04     resource_manager.obj
 0002:0000bf10       $ip2state$??0ResourceManager@@QEAA@PEBEPEAUHINSTANCE__@@0@Z 0000000180036f10     resource_manager.obj
 0002:0000bf28       $unwind$?HookAPIs@ResourceManager@@QEAAXAEAVHookManager@@@Z 0000000180036f28     resource_manager.obj
 0002:0000bf3c       $unwind$?UnhookAPIs@ResourceManager@@QEAAXAEAVHookManager@@@Z 0000000180036f3c     resource_manager.obj
 0002:0000bf48       $chain$0$?UnhookAPIs@ResourceManager@@QEAAXAEAVHookManager@@@Z 0000000180036f48     resource_manager.obj
 0002:0000bf5c       $chain$1$?UnhookAPIs@ResourceManager@@QEAAXAEAVHookManager@@@Z 0000000180036f5c     resource_manager.obj
 0002:0000bf6c       $unwind$?InternalLoadResource@ResourceManager@@AEAAPEAXPEAUHINSTANCE__@@PEAUHRSRC__@@@Z 0000000180036f6c     resource_manager.obj
 0002:0000bf84       $stateUnwindMap$?InternalLoadResource@ResourceManager@@AEAAPEAXPEAUHINSTANCE__@@PEAUHRSRC__@@@Z 0000000180036f84     resource_manager.obj
 0002:0000bf90       $ip2state$?InternalLoadResource@ResourceManager@@AEAAPEAXPEAUHINSTANCE__@@PEAUHRSRC__@@@Z 0000000180036f90     resource_manager.obj
 0002:0000bfa8       $unwind$?InternalFindResourceExW@ResourceManager@@AEAAPEAUHRSRC__@@PEAUHINSTANCE__@@PEB_W1G@Z 0000000180036fa8     resource_manager.obj
 0002:0000bfc0       $stateUnwindMap$?InternalFindResourceExW@ResourceManager@@AEAAPEAUHRSRC__@@PEAUHINSTANCE__@@PEB_W1G@Z 0000000180036fc0     resource_manager.obj
 0002:0000bfc8       $ip2state$?InternalFindResourceExW@ResourceManager@@AEAAPEAUHRSRC__@@PEAUHINSTANCE__@@PEB_W1G@Z 0000000180036fc8     resource_manager.obj
 0002:0000bfe0       $unwind$?CreateResourceName@@YAHPEB_WAEAPEA_W@Z 0000000180036fe0     resource_manager.obj
 0002:0000bff4       $unwind$?CreateResourceName@@YAHPEBDAEAPEA_W@Z 0000000180036ff4     resource_manager.obj
 0002:0000c008       $unwind$?FindResourceExW@ResourceManager@@QEAAPEAUHRSRC__@@PEAUHINSTANCE__@@PEB_W1G@Z 0000000180037008     resource_manager.obj
 0002:0000c01c       $chain$1$?FindResourceExW@ResourceManager@@QEAAPEAUHRSRC__@@PEAUHINSTANCE__@@PEB_W1G@Z 000000018003701c     resource_manager.obj
 0002:0000c030       $chain$2$?FindResourceExW@ResourceManager@@QEAAPEAUHRSRC__@@PEAUHINSTANCE__@@PEB_W1G@Z 0000000180037030     resource_manager.obj
 0002:0000c040       $unwind$?FindResourceExA@ResourceManager@@QEAAPEAUHRSRC__@@PEAUHINSTANCE__@@PEBD1G@Z 0000000180037040     resource_manager.obj
 0002:0000c054       $chain$1$?FindResourceExA@ResourceManager@@QEAAPEAUHRSRC__@@PEAUHINSTANCE__@@PEBD1G@Z 0000000180037054     resource_manager.obj
 0002:0000c068       $chain$2$?FindResourceExA@ResourceManager@@QEAAPEAUHRSRC__@@PEAUHINSTANCE__@@PEBD1G@Z 0000000180037068     resource_manager.obj
 0002:0000c078       $unwind$?FindEntryById@ResourceManager@@AEAAPEBURESOURCE_DIRECTORY@@PEBU2@GK@Z 0000000180037078     resource_manager.obj
 0002:0000c088       $unwind$?DecryptStringW@ResourceManager@@AEBAPEA_WPEB_W@Z 0000000180037088     resource_manager.obj
 0002:0000c09c       $unwind$?FindEntryByName@ResourceManager@@AEAAPEBURESOURCE_DIRECTORY@@PEBU2@PEB_WK@Z 000000018003709c     resource_manager.obj
 0002:0000c0b4       $unwind$?FindResourceEntry@ResourceManager@@AEAAPEBURESOURCE_DIRECTORY@@PEB_W0G@Z 00000001800370b4     resource_manager.obj
 0002:0000c0cc       $unwind$?InternalFindStringResource@ResourceManager@@AEAAPEA_WPEAUHINSTANCE__@@I@Z 00000001800370cc     resource_manager.obj
 0002:0000c0e4       $unwind$?InternalLoadStringW@ResourceManager@@AEAAHPEB_WPEA_WH@Z 00000001800370e4     resource_manager.obj
 0002:0000c0ec       $chain$1$?InternalLoadStringW@ResourceManager@@AEAAHPEB_WPEA_WH@Z 00000001800370ec     resource_manager.obj
 0002:0000c104       $chain$3$?InternalLoadStringW@ResourceManager@@AEAAHPEB_WPEA_WH@Z 0000000180037104     resource_manager.obj
 0002:0000c118       $chain$4$?InternalLoadStringW@ResourceManager@@AEAAHPEB_WPEA_WH@Z 0000000180037118     resource_manager.obj
 0002:0000c128       $unwind$?InternalLoadStringA@ResourceManager@@AEAAHPEB_WPEADH@Z 0000000180037128     resource_manager.obj
 0002:0000c134       $chain$2$?InternalLoadStringA@ResourceManager@@AEAAHPEB_WPEADH@Z 0000000180037134     resource_manager.obj
 0002:0000c150       $chain$3$?InternalLoadStringA@ResourceManager@@AEAAHPEB_WPEADH@Z 0000000180037150     resource_manager.obj
 0002:0000c164       $chain$4$?InternalLoadStringA@ResourceManager@@AEAAHPEB_WPEADH@Z 0000000180037164     resource_manager.obj
 0002:0000c174       $chain$6$?InternalLoadStringA@ResourceManager@@AEAAHPEB_WPEADH@Z 0000000180037174     resource_manager.obj
 0002:0000c190       $chain$7$?InternalLoadStringA@ResourceManager@@AEAAHPEB_WPEADH@Z 0000000180037190     resource_manager.obj
 0002:0000c1a0       $unwind$?EnumResourceNamesA@ResourceManager@@QEAAHPEAUHINSTANCE__@@PEBDP6AH01PEAD_J@Z3@Z 00000001800371a0     resource_manager.obj
 0002:0000c1b8       $chain$2$?EnumResourceNamesA@ResourceManager@@QEAAHPEAUHINSTANCE__@@PEBDP6AH01PEAD_J@Z3@Z 00000001800371b8     resource_manager.obj
 0002:0000c1cc       $chain$3$?EnumResourceNamesA@ResourceManager@@QEAAHPEAUHINSTANCE__@@PEBDP6AH01PEAD_J@Z3@Z 00000001800371cc     resource_manager.obj
 0002:0000c1e0       $chain$4$?EnumResourceNamesA@ResourceManager@@QEAAHPEAUHINSTANCE__@@PEBDP6AH01PEAD_J@Z3@Z 00000001800371e0     resource_manager.obj
 0002:0000c1f0       $chain$5$?EnumResourceNamesA@ResourceManager@@QEAAHPEAUHINSTANCE__@@PEBDP6AH01PEAD_J@Z3@Z 00000001800371f0     resource_manager.obj
 0002:0000c200       $unwind$?EnumResourceNamesW@ResourceManager@@QEAAHPEAUHINSTANCE__@@PEB_WP6AH01PEA_W_J@Z3@Z 0000000180037200     resource_manager.obj
 0002:0000c21c       $chain$3$?EnumResourceNamesW@ResourceManager@@QEAAHPEAUHINSTANCE__@@PEB_WP6AH01PEA_W_J@Z3@Z 000000018003721c     resource_manager.obj
 0002:0000c230       $chain$4$?EnumResourceNamesW@ResourceManager@@QEAAHPEAUHINSTANCE__@@PEB_WP6AH01PEA_W_J@Z3@Z 0000000180037230     resource_manager.obj
 0002:0000c240       $unwind$?EnumResourceLanguagesA@ResourceManager@@QEAAHPEAUHINSTANCE__@@PEBD1P6AH011G_J@Z2@Z 0000000180037240     resource_manager.obj
 0002:0000c260       $unwind$?EnumResourceLanguagesW@ResourceManager@@QEAAHPEAUHINSTANCE__@@PEB_W1P6AH011G_J@Z2@Z 0000000180037260     resource_manager.obj
 0002:0000c280       $unwind$?EnumResourceTypesA@ResourceManager@@QEAAHPEAUHINSTANCE__@@P6AH0PEAD_J@Z2@Z 0000000180037280     resource_manager.obj
 0002:0000c290       $chain$3$?EnumResourceTypesA@ResourceManager@@QEAAHPEAUHINSTANCE__@@P6AH0PEAD_J@Z2@Z 0000000180037290     resource_manager.obj
 0002:0000c2b0       $chain$4$?EnumResourceTypesA@ResourceManager@@QEAAHPEAUHINSTANCE__@@P6AH0PEAD_J@Z2@Z 00000001800372b0     resource_manager.obj
 0002:0000c2c0       $unwind$?EnumResourceTypesW@ResourceManager@@QEAAHPEAUHINSTANCE__@@P6AH0PEA_W_J@Z2@Z 00000001800372c0     resource_manager.obj
 0002:0000c2d0       $chain$2$?EnumResourceTypesW@ResourceManager@@QEAAHPEAUHINSTANCE__@@P6AH0PEA_W_J@Z2@Z 00000001800372d0     resource_manager.obj
 0002:0000c2ec       $chain$3$?EnumResourceTypesW@ResourceManager@@QEAAHPEAUHINSTANCE__@@P6AH0PEA_W_J@Z2@Z 00000001800372ec     resource_manager.obj
 0002:0000c300       $chain$4$?EnumResourceTypesW@ResourceManager@@QEAAHPEAUHINSTANCE__@@P6AH0PEA_W_J@Z2@Z 0000000180037300     resource_manager.obj
 0002:0000c310       $chain$5$?EnumResourceTypesW@ResourceManager@@QEAAHPEAUHINSTANCE__@@P6AH0PEA_W_J@Z2@Z 0000000180037310     resource_manager.obj
 0002:0000c320       $unwind$?Decrypt@VirtualResource@@QEAAPEAXPEAUHINSTANCE__@@I@Z 0000000180037320     resource_manager.obj
 0002:0000c330       $unwind$??1VirtualResourceList@@QEAA@XZ 0000000180037330     resource_manager.obj
 0002:0000c33c       $chain$0$??1VirtualResourceList@@QEAA@XZ 000000018003733c     resource_manager.obj
 0002:0000c350       $chain$1$??1VirtualResourceList@@QEAA@XZ 0000000180037350     resource_manager.obj
 0002:0000c360       $unwind$?Add@VirtualResourceList@@QEAAPEAVVirtualResource@@PEBURESOURCE_DATA_ENTRY@@I@Z 0000000180037360     resource_manager.obj
 0002:0000c374       $unwind$?ExportedDecryptString@@YAPEBXPEBX@Z 0000000180037374     string_manager.obj
 0002:0000c37c       $unwind$?ExportedFreeString@@YA_NPEBX@Z 000000018003737c     string_manager.obj
 0002:0000c384       $unwind$??1StringManager@@QEAA@XZ 0000000180037384     string_manager.obj
 0002:0000c394       $chain$0$??1StringManager@@QEAA@XZ 0000000180037394     string_manager.obj
 0002:0000c3a8       $chain$1$??1StringManager@@QEAA@XZ 00000001800373a8     string_manager.obj
 0002:0000c3b8       $unwind$??_GVirtualString@@QEAAPEAXI@Z 00000001800373b8     string_manager.obj
 0002:0000c3c0       $unwind$?DecryptString@StringManager@@QEAAPEBXPEBX@Z 00000001800373c0     string_manager.obj
 0002:0000c3d8       $stateUnwindMap$?DecryptString@StringManager@@QEAAPEBXPEBX@Z 00000001800373d8     string_manager.obj
 0002:0000c3e8       $ip2state$?DecryptString@StringManager@@QEAAPEBXPEBX@Z 00000001800373e8     string_manager.obj
 0002:0000c410       $unwind$?dtor$1@?0??DecryptString@StringManager@@QEAAPEBXPEBX@Z@4HA 0000000180037410     string_manager.obj
 0002:0000c418       $unwind$?FreeString@StringManager@@QEAA_NPEBX@Z 0000000180037418     string_manager.obj
 0002:0000c42c       $unwind$??0VirtualString@@QEAA@PEBUSTRING_ENTRY@@PEAUHINSTANCE__@@I@Z 000000018003742c     string_manager.obj
 0002:0000c444       $unwind$??0Path@@QEAA@PEA_W@Z 0000000180037444     file_manager.obj
 0002:0000c464       $stateUnwindMap$??0Path@@QEAA@PEA_W@Z 0000000180037464     file_manager.obj
 0002:0000c480       $ip2state$??0Path@@QEAA@PEA_W@Z 0000000180037480     file_manager.obj
 0002:0000c4b8       $unwind$?Combine@Path@@QEAA?AVUnicodeString@@PEA_W@Z 00000001800374b8     file_manager.obj
 0002:0000c4d8       $stateUnwindMap$?Combine@Path@@QEAA?AVUnicodeString@@PEA_W@Z 00000001800374d8     file_manager.obj
 0002:0000c4f8       $ip2state$?Combine@Path@@QEAA?AVUnicodeString@@PEA_W@Z 00000001800374f8     file_manager.obj
 0002:0000c530       $unwind$?dtor$2@?0??Combine@Path@@QEAA?AVUnicodeString@@PEA_W@Z@4HA 0000000180037530     file_manager.obj
 0002:0000c538       $unwind$??1Path@@QEAA@XZ   0000000180037538     file_manager.obj
 0002:0000c548       $stateUnwindMap$??1Path@@QEAA@XZ 0000000180037548     file_manager.obj
 0002:0000c550       $ip2state$??1Path@@QEAA@XZ 0000000180037550     file_manager.obj
 0002:0000c568       $unwind$?HookedNtQueryAttributesFile@@YAJPEAU_OBJECT_ATTRIBUTES@@PEAU_FILE_BASIC_INFORMATION@@@Z 0000000180037568     file_manager.obj
 0002:0000c574       $unwind$?HookedNtCreateFile@@YAJPEAPEAXKPEAU_OBJECT_ATTRIBUTES@@PEAU_IO_STATUS_BLOCK@@PEAT_LARGE_INTEGER@@KKKKPEAXK@Z 0000000180037574     file_manager.obj
 0002:0000c588       $unwind$?HookedNtOpenFile@@YAJPEAPEAXKPEAU_OBJECT_ATTRIBUTES@@PEAU_IO_STATUS_BLOCK@@KK@Z 0000000180037588     file_manager.obj
 0002:0000c59c       $unwind$?HookedNtQueryInformationFile@@YAJPEAXPEAU_IO_STATUS_BLOCK@@0KW4_FILE_INFORMATION_CLASS@@@Z 000000018003759c     file_manager.obj
 0002:0000c5b0       $unwind$?HookedNtQueryVolumeInformationFile@@YAJPEAXPEAU_IO_STATUS_BLOCK@@0KW4_FSINFOCLASS@@@Z 00000001800375b0     file_manager.obj
 0002:0000c5c4       $unwind$?HookedNtSetInformationFile@@YAJPEAXPEAU_IO_STATUS_BLOCK@@0KW4_FILE_INFORMATION_CLASS@@@Z 00000001800375c4     file_manager.obj
 0002:0000c5d8       $unwind$?HookedNtQueryDirectoryFile@@YAJPEAX0P6AX0PEAU_IO_STATUS_BLOCK@@K@Z010KW4_FILE_INFORMATION_CLASS@@EPEAU_UNICODE_STRING@@E@Z 00000001800375d8     file_manager.obj
 0002:0000c5ec       $unwind$?HookedNtReadFile@@YAJPEAX0P6AX0PEAU_IO_STATUS_BLOCK@@K@Z010KPEAT_LARGE_INTEGER@@PEAK@Z 00000001800375ec     file_manager.obj
 0002:0000c600       $unwind$?HookedNtCreateSection@@YAJPEAPEAXKPEAU_OBJECT_ATTRIBUTES@@PEAT_LARGE_INTEGER@@KKPEAX@Z 0000000180037600     file_manager.obj
 0002:0000c614       $unwind$?HookedNtQuerySection@@YAJPEAXW4_SECTION_INFORMATION_CLASS@@0KPEAK@Z 0000000180037614     file_manager.obj
 0002:0000c628       $unwind$?HookedNtMapViewOfSection@@YAJPEAX0PEAPEAX_K2PEAT_LARGE_INTEGER@@PEA_KW4_SECTION_INHERIT@@KK@Z 0000000180037628     file_manager.obj
 0002:0000c63c       $unwind$?HookedNtUnmapViewOfSection@@YAJPEAX0@Z 000000018003763c     file_manager.obj
 0002:0000c650       $unwind$?HookedNtQueryVirtualMemory@@YAJPEAX0W4_MEMORY_INFORMATION_CLASS@@0KPEAK@Z 0000000180037650     file_manager.obj
 0002:0000c664       $unwind$??0FileManager@@QEAA@PEBEPEAUHINSTANCE__@@0PEAVVirtualObjectList@@@Z 0000000180037664     file_manager.obj
 0002:0000c68c       $stateUnwindMap$??0FileManager@@QEAA@PEBEPEAUHINSTANCE__@@0PEAVVirtualObjectList@@@Z 000000018003768c     file_manager.obj
 0002:0000c6d0       $ip2state$??0FileManager@@QEAA@PEBEPEAUHINSTANCE__@@0PEAVVirtualObjectList@@@Z 00000001800376d0     file_manager.obj
 0002:0000c730       $unwind$?HookAPIs@FileManager@@QEAAXAEAVHookManager@@@Z 0000000180037730     file_manager.obj
 0002:0000c744       $unwind$?UnhookAPIs@FileManager@@QEAAXAEAVHookManager@@@Z 0000000180037744     file_manager.obj
 0002:0000c750       $chain$0$?UnhookAPIs@FileManager@@QEAAXAEAVHookManager@@@Z 0000000180037750     file_manager.obj
 0002:0000c764       $chain$1$?UnhookAPIs@FileManager@@QEAAXAEAVHookManager@@@Z 0000000180037764     file_manager.obj
 0002:0000c774       $unwind$?OpenFiles@FileManager@@QEAA_NAEAVRegistryManager@@@Z 0000000180037774     file_manager.obj
 0002:0000c794       $stateUnwindMap$?OpenFiles@FileManager@@QEAA_NAEAVRegistryManager@@@Z 0000000180037794     file_manager.obj
 0002:0000c7a4       $tryMap$?OpenFiles@FileManager@@QEAA_NAEAVRegistryManager@@@Z 00000001800377a4     file_manager.obj
 0002:0000c7b8       $handlerMap$0$?OpenFiles@FileManager@@QEAA_NAEAVRegistryManager@@@Z 00000001800377b8     file_manager.obj
 0002:0000c7d0       $ip2state$?OpenFiles@FileManager@@QEAA_NAEAVRegistryManager@@@Z 00000001800377d0     file_manager.obj
 0002:0000c800       $unwind$?catch$0@?0??OpenFiles@FileManager@@QEAA_NAEAVRegistryManager@@@Z@4HA 0000000180037800     file_manager.obj
 0002:0000c810       $unwind$?FindEntry@FileManager@@AEAAPEBUOBJECT_ENTRY@@PEAXPEAU_UNICODE_STRING@@@Z 0000000180037810     file_manager.obj
 0002:0000c830       $stateUnwindMap$?FindEntry@FileManager@@AEAAPEBUOBJECT_ENTRY@@PEAXPEAU_UNICODE_STRING@@@Z 0000000180037830     file_manager.obj
 0002:0000c848       $ip2state$?FindEntry@FileManager@@AEAAPEBUOBJECT_ENTRY@@PEAXPEAU_UNICODE_STRING@@@Z 0000000180037848     file_manager.obj
 0002:0000c880       $unwind$?ReadFile@FileManager@@AEBA_NPEBUOBJECT_ENTRY@@_KPEAX1@Z 0000000180037880     file_manager.obj
 0002:0000c888       $unwind$?ReadImageHeader@FileManager@@AEBAJPEBUOBJECT_ENTRY@@PEAU_IMAGE_NT_HEADERS64@@@Z 0000000180037888     file_manager.obj
 0002:0000c89c       $unwind$?ReadImage@FileManager@@AEBAJPEBUOBJECT_ENTRY@@PEAX@Z 000000018003789c     file_manager.obj
 0002:0000c8ac       $chain$4$?ReadImage@FileManager@@AEBAJPEBUOBJECT_ENTRY@@PEAX@Z 00000001800378ac     file_manager.obj
 0002:0000c8d0       $chain$5$?ReadImage@FileManager@@AEBAJPEBUOBJECT_ENTRY@@PEAX@Z 00000001800378d0     file_manager.obj
 0002:0000c8e0       $chain$6$?ReadImage@FileManager@@AEBAJPEBUOBJECT_ENTRY@@PEAX@Z 00000001800378e0     file_manager.obj
 0002:0000c904       $unwind$?NtQueryAttributesFile@FileManager@@QEAAJPEAU_OBJECT_ATTRIBUTES@@PEAU_FILE_BASIC_INFORMATION@@@Z 0000000180037904     file_manager.obj
 0002:0000c914       $unwind$?NtCreateFile@FileManager@@QEAAJPEAPEAXKPEAU_OBJECT_ATTRIBUTES@@PEAU_IO_STATUS_BLOCK@@PEAT_LARGE_INTEGER@@KKKKPEAXK@Z 0000000180037914     file_manager.obj
 0002:0000c930       $stateUnwindMap$?NtCreateFile@FileManager@@QEAAJPEAPEAXKPEAU_OBJECT_ATTRIBUTES@@PEAU_IO_STATUS_BLOCK@@PEAT_LARGE_INTEGER@@KKKKPEAXK@Z 0000000180037930     file_manager.obj
 0002:0000c948       $tryMap$?NtCreateFile@FileManager@@QEAAJPEAPEAXKPEAU_OBJECT_ATTRIBUTES@@PEAU_IO_STATUS_BLOCK@@PEAT_LARGE_INTEGER@@KKKKPEAXK@Z 0000000180037948     file_manager.obj
 0002:0000c95c       $handlerMap$0$?NtCreateFile@FileManager@@QEAAJPEAPEAXKPEAU_OBJECT_ATTRIBUTES@@PEAU_IO_STATUS_BLOCK@@PEAT_LARGE_INTEGER@@KKKKPEAXK@Z 000000018003795c     file_manager.obj
 0002:0000c970       $ip2state$?NtCreateFile@FileManager@@QEAAJPEAPEAXKPEAU_OBJECT_ATTRIBUTES@@PEAU_IO_STATUS_BLOCK@@PEAT_LARGE_INTEGER@@KKKKPEAXK@Z 0000000180037970     file_manager.obj
 0002:0000c9a0       $unwind$?catch$2@?0??NtCreateFile@FileManager@@QEAAJPEAPEAXKPEAU_OBJECT_ATTRIBUTES@@PEAU_IO_STATUS_BLOCK@@PEAT_LARGE_INTEGER@@KKKKPEAXK@Z@4HA 00000001800379a0     file_manager.obj
 0002:0000c9b0       $unwind$?NtOpenFile@FileManager@@QEAAJPEAPEAXKPEAU_OBJECT_ATTRIBUTES@@PEAU_IO_STATUS_BLOCK@@KK@Z 00000001800379b0     file_manager.obj
 0002:0000c9cc       $stateUnwindMap$?NtOpenFile@FileManager@@QEAAJPEAPEAXKPEAU_OBJECT_ATTRIBUTES@@PEAU_IO_STATUS_BLOCK@@KK@Z 00000001800379cc     file_manager.obj
 0002:0000c9e8       $ip2state$?NtOpenFile@FileManager@@QEAAJPEAPEAXKPEAU_OBJECT_ATTRIBUTES@@PEAU_IO_STATUS_BLOCK@@KK@Z 00000001800379e8     file_manager.obj
 0002:0000ca00       $unwind$?NtQueryInformationFile@FileManager@@QEAAJPEAXPEAU_IO_STATUS_BLOCK@@0KW4_FILE_INFORMATION_CLASS@@@Z 0000000180037a00     file_manager.obj
 0002:0000ca18       $unwind$?NtQueryVolumeInformationFile@FileManager@@QEAAJPEAXPEAU_IO_STATUS_BLOCK@@0KW4_FSINFOCLASS@@@Z 0000000180037a18     file_manager.obj
 0002:0000ca30       $unwind$?NtSetInformationFile@FileManager@@QEAAJPEAXPEAU_IO_STATUS_BLOCK@@0KW4_FILE_INFORMATION_CLASS@@@Z 0000000180037a30     file_manager.obj
 0002:0000ca48       $unwind$?NtQueryDirectoryFile@FileManager@@QEAAJPEAX0P6AX0PEAU_IO_STATUS_BLOCK@@K@Z010KW4_FILE_INFORMATION_CLASS@@EPEAU_UNICODE_STRING@@E@Z 0000000180037a48     file_manager.obj
 0002:0000ca68       $stateUnwindMap$?NtQueryDirectoryFile@FileManager@@QEAAJPEAX0P6AX0PEAU_IO_STATUS_BLOCK@@K@Z010KW4_FILE_INFORMATION_CLASS@@EPEAU_UNICODE_STRING@@E@Z 0000000180037a68     file_manager.obj
 0002:0000ca78       $tryMap$?NtQueryDirectoryFile@FileManager@@QEAAJPEAX0P6AX0PEAU_IO_STATUS_BLOCK@@K@Z010KW4_FILE_INFORMATION_CLASS@@EPEAU_UNICODE_STRING@@E@Z 0000000180037a78     file_manager.obj
 0002:0000ca8c       $handlerMap$0$?NtQueryDirectoryFile@FileManager@@QEAAJPEAX0P6AX0PEAU_IO_STATUS_BLOCK@@K@Z010KW4_FILE_INFORMATION_CLASS@@EPEAU_UNICODE_STRING@@E@Z 0000000180037a8c     file_manager.obj
 0002:0000caa0       $ip2state$?NtQueryDirectoryFile@FileManager@@QEAAJPEAX0P6AX0PEAU_IO_STATUS_BLOCK@@K@Z010KW4_FILE_INFORMATION_CLASS@@EPEAU_UNICODE_STRING@@E@Z 0000000180037aa0     file_manager.obj
 0002:0000cac0       $unwind$?catch$0@?0??NtQueryDirectoryFile@FileManager@@QEAAJPEAX0P6AX0PEAU_IO_STATUS_BLOCK@@K@Z010KW4_FILE_INFORMATION_CLASS@@EPEAU_UNICODE_STRING@@E@Z@4HA 0000000180037ac0     file_manager.obj
 0002:0000cad0       $unwind$?NtReadFile@FileManager@@QEAAJPEAX0P6AX0PEAU_IO_STATUS_BLOCK@@K@Z010KPEAT_LARGE_INTEGER@@PEAK@Z 0000000180037ad0     file_manager.obj
 0002:0000caec       $unwind$?NtCreateSection@FileManager@@QEAAJPEAPEAXKPEAU_OBJECT_ATTRIBUTES@@PEAT_LARGE_INTEGER@@KKPEAX@Z 0000000180037aec     file_manager.obj
 0002:0000cb10       $stateUnwindMap$?NtCreateSection@FileManager@@QEAAJPEAPEAXKPEAU_OBJECT_ATTRIBUTES@@PEAT_LARGE_INTEGER@@KKPEAX@Z 0000000180037b10     file_manager.obj
 0002:0000cb18       $ip2state$?NtCreateSection@FileManager@@QEAAJPEAPEAXKPEAU_OBJECT_ATTRIBUTES@@PEAT_LARGE_INTEGER@@KKPEAX@Z 0000000180037b18     file_manager.obj
 0002:0000cb30       $unwind$?NtQuerySection@FileManager@@QEAAJPEAXW4_SECTION_INFORMATION_CLASS@@0KPEAK@Z 0000000180037b30     file_manager.obj
 0002:0000cb4c       $unwind$?NtMapViewOfSection@FileManager@@QEAAJPEAX0PEAPEAX_K2PEAT_LARGE_INTEGER@@PEA_KW4_SECTION_INHERIT@@KK@Z 0000000180037b4c     file_manager.obj
 0002:0000cb68       $stateUnwindMap$?NtMapViewOfSection@FileManager@@QEAAJPEAX0PEAPEAX_K2PEAT_LARGE_INTEGER@@PEA_KW4_SECTION_INHERIT@@KK@Z 0000000180037b68     file_manager.obj
 0002:0000cb80       $tryMap$?NtMapViewOfSection@FileManager@@QEAAJPEAX0PEAPEAX_K2PEAT_LARGE_INTEGER@@PEA_KW4_SECTION_INHERIT@@KK@Z 0000000180037b80     file_manager.obj
 0002:0000cb94       $handlerMap$0$?NtMapViewOfSection@FileManager@@QEAAJPEAX0PEAPEAX_K2PEAT_LARGE_INTEGER@@PEA_KW4_SECTION_INHERIT@@KK@Z 0000000180037b94     file_manager.obj
 0002:0000cba8       $ip2state$?NtMapViewOfSection@FileManager@@QEAAJPEAX0PEAPEAX_K2PEAT_LARGE_INTEGER@@PEA_KW4_SECTION_INHERIT@@KK@Z 0000000180037ba8     file_manager.obj
 0002:0000cbe0       $unwind$?catch$5@?0??NtMapViewOfSection@FileManager@@QEAAJPEAX0PEAPEAX_K2PEAT_LARGE_INTEGER@@PEA_KW4_SECTION_INHERIT@@KK@Z@4HA 0000000180037be0     file_manager.obj
 0002:0000cbf0       $unwind$?NtQueryVirtualMemory@FileManager@@QEAAJPEAX0W4_MEMORY_INFORMATION_CLASS@@0KPEAK@Z 0000000180037bf0     file_manager.obj
 0002:0000cbfc       $chain$1$?NtQueryVirtualMemory@FileManager@@QEAAJPEAX0W4_MEMORY_INFORMATION_CLASS@@0KPEAK@Z 0000000180037bfc     file_manager.obj
 0002:0000cc14       $chain$2$?NtQueryVirtualMemory@FileManager@@QEAAJPEAX0W4_MEMORY_INFORMATION_CLASS@@0KPEAK@Z 0000000180037c14     file_manager.obj
 0002:0000cc28       $chain$3$?NtQueryVirtualMemory@FileManager@@QEAAJPEAX0W4_MEMORY_INFORMATION_CLASS@@0KPEAK@Z 0000000180037c28     file_manager.obj
 0002:0000cc38       $chain$4$?NtQueryVirtualMemory@FileManager@@QEAAJPEAX0W4_MEMORY_INFORMATION_CLASS@@0KPEAK@Z 0000000180037c38     file_manager.obj
 0002:0000cc48       $unwind$?push_back@?$vector@VUnicodeString@@@@QEAAXAEBVUnicodeString@@@Z 0000000180037c48     file_manager.obj
 0002:0000cc68       $stateUnwindMap$?push_back@?$vector@VUnicodeString@@@@QEAAXAEBVUnicodeString@@@Z 0000000180037c68     file_manager.obj
 0002:0000cc78       $ip2state$?push_back@?$vector@VUnicodeString@@@@QEAAXAEBVUnicodeString@@@Z 0000000180037c78     file_manager.obj
 0002:0000cca0       $unwind$?dtor$0@?0??push_back@?$vector@VUnicodeString@@@@QEAAXAEBVUnicodeString@@@Z@4HA 0000000180037ca0     file_manager.obj
 0002:0000cca8       $unwind$??$swprintf_s@$0BGI@@@YAHAEAY0BGI@_WPEB_WZZ 0000000180037ca8     file_manager.obj
 0002:0000ccb4       $unwind$??0exception@std@@QEAA@AEBV01@@Z 0000000180037cb4     libcpmt:xthrow.obj
 0002:0000ccbc       $unwind$??_Gexception@std@@UEAAPEAXI@Z 0000000180037cbc     libcpmt:xthrow.obj
 0002:0000ccc8       $unwind$??0bad_alloc@std@@QEAA@AEBV01@@Z 0000000180037cc8     libcpmt:xthrow.obj
 0002:0000ccd0       $unwind$??_Gbad_alloc@std@@UEAAPEAXI@Z 0000000180037cd0     libcpmt:xthrow.obj
 0002:0000ccdc       $unwind$?_Xbad_alloc@std@@YAXXZ 0000000180037cdc     libcpmt:xthrow.obj
 0002:0000cce4       $unwind$?_Xlength_error@std@@YAXPEBD@Z 0000000180037ce4     libcpmt:xthrow.obj
 0002:0000ccec       $unwind$??0logic_error@std@@QEAA@AEBV01@@Z 0000000180037cec     libcpmt:xthrow.obj
 0002:0000ccf4       $unwind$??_Glogic_error@std@@UEAAPEAXI@Z 0000000180037cf4     libcpmt:xthrow.obj
 0002:0000cd00       $unwind$??0length_error@std@@QEAA@PEBD@Z 0000000180037d00     libcpmt:xthrow.obj
 0002:0000cd08       $unwind$??0length_error@std@@QEAA@AEBV01@@Z 0000000180037d08     libcpmt:xthrow.obj
 0002:0000cd10       $unwind$??_Glength_error@std@@UEAAPEAXI@Z 0000000180037d10     libcpmt:xthrow.obj
 0002:0000cd1c       $unwind$??2@YAPEAX_K@Z     0000000180037d1c     LIBCMT:new_scalar.obj
 0002:0000cd24       $unwind$??_M@YAXPEAX_K1P6AX0@Z@Z 0000000180037d24     LIBCMT:ehvecdtr.obj
 0002:0000cd4c       $unwind$?fin$0@?0???_M@YAXPEAX_K1P6AX0@Z@Z@4HA 0000000180037d4c     LIBCMT:ehvecdtr.obj
 0002:0000cd54       $unwind$?__ArrayUnwind@@YAXPEAX_K1P6AX0@Z@Z 0000000180037d54     LIBCMT:ehvecdtr.obj
 0002:0000cd80       $unwind$?filt$0@?0??__ArrayUnwind@@YAXPEAX_K1P6AX0@Z@Z@4HA 0000000180037d80     LIBCMT:ehvecdtr.obj
 0002:0000cd88       $unwind$??_L@YAXPEAX_K1P6AX0@Z2@Z 0000000180037d88     LIBCMT:ehvecctr.obj
 0002:0000cdb4       $unwind$?fin$0@?0???_L@YAXPEAX_K1P6AX0@Z2@Z@4HA 0000000180037db4     LIBCMT:ehvecctr.obj
 0002:0000cdbc       $unwind$?dllmain_crt_process_attach@@YAHQEAUHINSTANCE__@@QEAX@Z 0000000180037dbc     LIBCMT:dll_dllmain.obj
 0002:0000cde8       $unwind$?fin$0@?0??dllmain_crt_process_attach@@YAHQEAUHINSTANCE__@@QEAX@Z@4HA 0000000180037de8     LIBCMT:dll_dllmain.obj
 0002:0000cdf0       $unwind$?dllmain_crt_process_detach@@YAH_N@Z 0000000180037df0     LIBCMT:dll_dllmain.obj
 0002:0000ce18       $unwind$?fin$0@?0??dllmain_crt_process_detach@@YAH_N@Z@4HA 0000000180037e18     LIBCMT:dll_dllmain.obj
 0002:0000ce20       $unwind$?dllmain_crt_dispatch@@YAHQEAUHINSTANCE__@@KQEAX@Z 0000000180037e20     LIBCMT:dll_dllmain.obj
 0002:0000ce28       $unwind$?dllmain_raw@@YAHQEAUHINSTANCE__@@KQEAX@Z 0000000180037e28     LIBCMT:dll_dllmain.obj
 0002:0000ce3c       $unwind$?dllmain_dispatch@@YAHQEAUHINSTANCE__@@KQEAX@Z 0000000180037e3c     LIBCMT:dll_dllmain.obj
 0002:0000ce64       $unwind$?filt$0@?0??dllmain_dispatch@@YAHQEAUHINSTANCE__@@KQEAX@Z@4HA 0000000180037e64     LIBCMT:dll_dllmain.obj
 0002:0000ce6c       $unwind$_DllMainCRTStartup 0000000180037e6c     LIBCMT:dll_dllmain.obj
 0002:0000ce7c       $unwind$??_Gtype_info@@UEAAPEAXI@Z 0000000180037e7c     LIBCMT:std_type_info_static.obj
 0002:0000ce84       $unwind$??0bad_array_new_length@std@@QEAA@AEBV01@@Z 0000000180037e84     LIBCMT:throw_bad_alloc.obj
 0002:0000ce8c       $unwind$??_Gbad_array_new_length@std@@UEAAPEAXI@Z 0000000180037e8c     LIBCMT:throw_bad_alloc.obj
 0002:0000ce98       $unwind$?__scrt_throw_std_bad_alloc@@YAXXZ 0000000180037e98     LIBCMT:throw_bad_alloc.obj
 0002:0000cea0       $unwind$?__scrt_throw_std_bad_array_new_length@@YAXXZ 0000000180037ea0     LIBCMT:throw_bad_alloc.obj
 0002:0000cea8       $unwind$atexit             0000000180037ea8     LIBCMT:utility.obj
 0002:0000ceb0       $unwind$_onexit            0000000180037eb0     LIBCMT:utility.obj
 0002:0000ceb8       $unwind$__scrt_is_nonwritable_in_current_image 0000000180037eb8     LIBCMT:utility.obj
 0002:0000ced8       $unwind$__scrt_is_nonwritable_in_current_image$filt$0 0000000180037ed8     LIBCMT:utility.obj
 0002:0000cee0       $unwind$__scrt_acquire_startup_lock 0000000180037ee0     LIBCMT:utility.obj
 0002:0000cee8       $unwind$__scrt_release_startup_lock 0000000180037ee8     LIBCMT:utility.obj
 0002:0000cef0       $unwind$__scrt_initialize_crt 0000000180037ef0     LIBCMT:utility.obj
 0002:0000cef8       $unwind$__scrt_uninitialize_crt 0000000180037ef8     LIBCMT:utility.obj
 0002:0000cf00       $unwind$__scrt_initialize_onexit_tables 0000000180037f00     LIBCMT:utility.obj
 0002:0000cf0c       $unwind$__scrt_dllmain_exception_filter 0000000180037f0c     LIBCMT:utility.obj
 0002:0000cf20       $unwind$__scrt_dllmain_before_initialize_c 0000000180037f20     LIBCMT:utility.obj
 0002:0000cf28       $unwind$__scrt_dllmain_after_initialize_c 0000000180037f28     LIBCMT:utility.obj
 0002:0000cf30       $unwind$__scrt_dllmain_uninitialize_c 0000000180037f30     LIBCMT:utility.obj
 0002:0000cf38       $unwind$__scrt_dllmain_uninitialize_critical 0000000180037f38     LIBCMT:utility.obj
 0002:0000cf40       $unwind$__scrt_dllmain_crt_thread_attach 0000000180037f40     LIBCMT:utility.obj
 0002:0000cf48       $unwind$__scrt_dllmain_crt_thread_detach 0000000180037f48     LIBCMT:utility.obj
 0002:0000cf50       $unwind$__security_init_cookie 0000000180037f50     LIBCMT:gs_support.obj
 0002:0000cf5c       $unwind$__scrt_initialize_default_local_stdio_options 0000000180037f5c     LIBCMT:default_local_stdio_options.obj
 0002:0000cf64       $unwind$__scrt_fastfail    0000000180037f64     LIBCMT:utility_desktop.obj
 0002:0000cf74       $unwind$_RTC_Initialize    0000000180037f74     LIBCMT:_initsect_.obj
 0002:0000cf84       $unwind$_RTC_Terminate     0000000180037f84     LIBCMT:_initsect_.obj
 0002:0000cf94       $unwind$__isa_available_init 0000000180037f94     LIBCMT:_cpu_disp_.obj
 0002:0000cfa8       $xdatasym                  0000000180037fa8     LIBCMT:_guard_dispatch_.obj
 0002:0000cfac       $unwind$__std_terminate    0000000180037fac     libvcruntime:frame.obj
 0002:0000cfb4       $unwind$__CxxCallCatchBlock 0000000180037fb4     libvcruntime:frame.obj
 0002:0000cff0       $unwind$__CxxCallCatchBlock$filt$0 0000000180037ff0     libvcruntime:frame.obj
 0002:0000cff8       $unwind$__CxxCallCatchBlock$fin$1 0000000180037ff8     libvcruntime:frame.obj
 0002:0000d004       $unwind$??0bad_exception@std@@QEAA@AEBV01@@Z 0000000180038004     libvcruntime:frame.obj
 0002:0000d00c       $unwind$??_Gbad_exception@std@@UEAAPEAXI@Z 000000018003800c     libvcruntime:frame.obj
 0002:0000d018       $unwind$__FrameUnwindToState 0000000180038018     libvcruntime:frame.obj
 0002:0000d054       $unwind$__FrameUnwindToState$filt$0 0000000180038054     libvcruntime:frame.obj
 0002:0000d05c       $unwind$__FrameUnwindToState$fin$1 000000018003805c     libvcruntime:frame.obj
 0002:0000d064       $unwind$?FindHandler@@YAXPEAUEHExceptionRecord@@PEA_KPEAU_CONTEXT@@PEAU_xDISPATCHER_CONTEXT@@PEBU_s_FuncInfo@@EH1@Z 0000000180038064     libvcruntime:frame.obj
 0002:0000d084       $unwind$?CatchIt@@YAXPEAUEHExceptionRecord@@PEA_KPEAU_CONTEXT@@PEAU_xDISPATCHER_CONTEXT@@PEBU_s_FuncInfo@@PEBU_s_HandlerType@@PEBU_s_CatchableType@@PEBU_s_TryBlockMapEntry@@H1EE@Z 0000000180038084     libvcruntime:frame.obj
 0002:0000d09c       $unwind$__BuildCatchObject 000000018003809c     libvcruntime:frame.obj
 0002:0000d0c8       $unwind$__TypeMatch        00000001800380c8     libvcruntime:frame.obj
 0002:0000d0e0       $unwind$?FindHandlerForForeignException@@YAXPEAUEHExceptionRecord@@PEA_KPEAU_CONTEXT@@PEAU_xDISPATCHER_CONTEXT@@PEBU_s_FuncInfo@@HH1@Z 00000001800380e0     libvcruntime:frame.obj
 0002:0000d0f8       $unwind$__FrameUnwindFilter 00000001800380f8     libvcruntime:frame.obj
 0002:0000d100       $unwind$?ExFilterRethrow@@YAHPEAU_EXCEPTION_POINTERS@@PEAUEHExceptionRecord@@PEAH@Z 0000000180038100     libvcruntime:frame.obj
 0002:0000d10c       $unwind$__DestructExceptionObject 000000018003810c     libvcruntime:frame.obj
 0002:0000d130       $unwind$__DestructExceptionObject$filt$0 0000000180038130     libvcruntime:frame.obj
 0002:0000d138       $unwind$?IsInExceptionSpec@@YAEPEAUEHExceptionRecord@@PEBU_s_ESTypeList@@@Z 0000000180038138     libvcruntime:frame.obj
 0002:0000d154       $unwind$__InternalCxxFrameHandler 0000000180038154     libvcruntime:frame.obj
 0002:0000d170       $unwind$__BuildCatchObjectHelper 0000000180038170     libvcruntime:frame.obj
 0002:0000d1b0       $unwind$wcschr             00000001800381b0     libvcruntime:wcschr.obj
 0002:0000d1b8       $unwind$strchr             00000001800381b8     libvcruntime:strchr.obj
 0002:0000d1c0       $unwind$__std_exception_copy 00000001800381c0     libvcruntime:std_exception.obj
 0002:0000d1d4       $unwind$__std_exception_destroy 00000001800381d4     libvcruntime:std_exception.obj
 0002:0000d1dc       $unwind$_CxxThrowException 00000001800381dc     libvcruntime:throw.obj
 0002:0000d1f0       $unwind$__C_specific_handler 00000001800381f0     libvcruntime:_chandler_.obj
 0002:0000d20c       $unwind$__vcrt_initialize  000000018003820c     libvcruntime:initialization.obj
 0002:0000d214       $unwind$__vcrt_uninitialize 0000000180038214     libvcruntime:initialization.obj
 0002:0000d21c       $unwind$__vcrt_uninitialize_critical 000000018003821c     libvcruntime:initialization.obj
 0002:0000d224       $unwind$__vcrt_thread_attach 0000000180038224     libvcruntime:initialization.obj
 0002:0000d22c       $unwind$__vcrt_thread_detach 000000018003822c     libvcruntime:initialization.obj
 0002:0000d234       $unwind$__std_type_info_destroy_list 0000000180038234     libvcruntime:std_type_info.obj
 0002:0000d240       $xdatasym                  0000000180038240     libvcruntime:memset.obj
 0002:0000d248       $xdatasym                  0000000180038248     libvcruntime:memcpy.obj
 0002:0000d24c       $unwind$__vcrt_initialize_ptd 000000018003824c     libvcruntime:per_thread_data.obj
 0002:0000d254       $unwind$__vcrt_uninitialize_ptd 0000000180038254     libvcruntime:per_thread_data.obj
 0002:0000d25c       $unwind$__vcrt_getptd      000000018003825c     libvcruntime:per_thread_data.obj
 0002:0000d264       $unwind$__vcrt_getptd_noexit 0000000180038264     libvcruntime:per_thread_data.obj
 0002:0000d274       $unwind$__vcrt_freeptd     0000000180038274     libvcruntime:per_thread_data.obj
 0002:0000d27c       $unwind$__vcrt_freefls     000000018003827c     libvcruntime:per_thread_data.obj
 0002:0000d284       $unwind$?__GetCurrentState@@YAHPEA_KPEAU_xDISPATCHER_CONTEXT@@PEBU_s_FuncInfo@@@Z 0000000180038284     libvcruntime:ehstate.obj
 0002:0000d28c       $unwind$?__SetUnwindTryBlock@@YAXPEA_KPEAU_xDISPATCHER_CONTEXT@@PEBU_s_FuncInfo@@H@Z 000000018003828c     libvcruntime:ehstate.obj
 0002:0000d298       $unwind$?__GetUnwindTryBlock@@YAHPEA_KPEAU_xDISPATCHER_CONTEXT@@PEBU_s_FuncInfo@@@Z 0000000180038298     libvcruntime:ehstate.obj
 0002:0000d2a0       $unwind$?__StateFromIp@@YAHPEBU_s_FuncInfo@@PEAU_xDISPATCHER_CONTEXT@@_J@Z 00000001800382a0     libvcruntime:ehstate.obj
 0002:0000d2a8       $xdatasym                  00000001800382a8     libvcruntime:handlers.obj
 0002:0000d2b0       $unwind$?_GetEstablisherFrame@@YAPEA_KPEA_KPEAU_xDISPATCHER_CONTEXT@@PEBU_s_FuncInfo@@0@Z 00000001800382b0     libvcruntime:trnsctrl.obj
 0002:0000d2c8       $unwind$_GetImageBase      00000001800382c8     libvcruntime:trnsctrl.obj
 0002:0000d2d0       $unwind$_GetThrowImageBase 00000001800382d0     libvcruntime:trnsctrl.obj
 0002:0000d2d8       $unwind$_SetImageBase      00000001800382d8     libvcruntime:trnsctrl.obj
 0002:0000d2e0       $unwind$_SetThrowImageBase 00000001800382e0     libvcruntime:trnsctrl.obj
 0002:0000d2e8       $unwind$?_ExecutionInCatch@@YAHPEAU_xDISPATCHER_CONTEXT@@PEBU_s_FuncInfo@@@Z 00000001800382e8     libvcruntime:trnsctrl.obj
 0002:0000d2fc       $unwind$?__FrameUnwindToEmptyState@@YAXPEA_KPEAU_xDISPATCHER_CONTEXT@@PEBU_s_FuncInfo@@@Z 00000001800382fc     libvcruntime:trnsctrl.obj
 0002:0000d310       $unwind$_CallSETranslator  0000000180038310     libvcruntime:trnsctrl.obj
 0002:0000d334       $unwind$_CallSETranslator$filt$0 0000000180038334     libvcruntime:trnsctrl.obj
 0002:0000d33c       $unwind$?_GetRangeOfTrysToCheck@@YAPEBU_s_TryBlockMapEntry@@PEA_KPEBU_s_FuncInfo@@HHPEAI2PEAU_xDISPATCHER_CONTEXT@@@Z 000000018003833c     libvcruntime:trnsctrl.obj
 0002:0000d358       $unwind$_UnwindNestedFrames 0000000180038358     libvcruntime:trnsctrl.obj
 0002:0000d36c       $unwind$_CreateFrameInfo   000000018003836c     libvcruntime:trnsctrl.obj
 0002:0000d374       $unwind$_IsExceptionObjectToBeDestroyed 0000000180038374     libvcruntime:trnsctrl.obj
 0002:0000d37c       $unwind$_FindAndUnlinkFrame 000000018003837c     libvcruntime:trnsctrl.obj
 0002:0000d388       $unwind$__CxxFrameHandler3 0000000180038388     libvcruntime:trnsctrl.obj
 0002:0000d398       $unwind$?__SehTransFilter@@YAHPEAU_EXCEPTION_POINTERS@@PEAUEHExceptionRecord@@PEA_KPEAU_CONTEXT@@PEAU_xDISPATCHER_CONTEXT@@PEBU_s_FuncInfo@@PEAH@Z 0000000180038398     libvcruntime:trnsctrl.obj
 0002:0000d3b0       $xdatasym                  00000001800383b0     libvcruntime:_jmpuwind_.obj
 0002:0000d3c4       $unwind$__vcrt_initialize_locks 00000001800383c4     libvcruntime:locks.obj
 0002:0000d3cc       $unwind$__vcrt_uninitialize_locks 00000001800383cc     libvcruntime:locks.obj
 0002:0000d3d4       $unwind$__vcrt_FlsAlloc    00000001800383d4     libvcruntime:winapi_downlevel.obj
 0002:0000d3e0       $unwind$__vcrt_FlsFree     00000001800383e0     libvcruntime:winapi_downlevel.obj
 0002:0000d3ec       $unwind$__vcrt_FlsGetValue 00000001800383ec     libvcruntime:winapi_downlevel.obj
 0002:0000d3f8       $unwind$__vcrt_FlsSetValue 00000001800383f8     libvcruntime:winapi_downlevel.obj
 0002:0000d408       $unwind$__vcrt_InitializeCriticalSectionEx 0000000180038408     libvcruntime:winapi_downlevel.obj
 0002:0000d41c       $unwind$__vcrt_uninitialize_winapi_thunks 000000018003841c     libvcruntime:winapi_downlevel.obj
 0002:0000d424       $unwind$?try_get_function@@YAPEAXW4function_id@?A0xb81d63e2@@QEBDQEBW4module_id@2@2@Z 0000000180038424     libvcruntime:winapi_downlevel.obj
 0002:0000d440       $unwind$_wcsicmp           0000000180038440     libucrt:wcsicmp.obj
 0002:0000d448       $unwind$_wcsicmp_l         0000000180038448     libucrt:wcsicmp.obj
 0002:0000d45c       $unwind$??0_LocaleUpdate@@QEAA@QEAU__crt_locale_pointers@@@Z 000000018003845c     libucrt:wcsicmp.obj
 0002:0000d468       $unwind$_wcsnicmp          0000000180038468     libucrt:wcsnicmp.obj
 0002:0000d470       $unwind$_wcsnicmp_l        0000000180038470     libucrt:wcsnicmp.obj
 0002:0000d488       $unwind$atoi               0000000180038488     libucrt:atox.obj
 0002:0000d490       $unwind$??$parse_integer@KV?$c_string_character_source@D@__crt_strtox@@@__crt_strtox@@YAKQEAU__crt_locale_pointers@@V?$c_string_character_source@D@0@H_N@Z 0000000180038490     libucrt:atox.obj
 0002:0000d4ac       $unwind$??$parse_integer@KV?$c_string_character_source@_W@__crt_strtox@@@__crt_strtox@@YAKQEAU__crt_locale_pointers@@V?$c_string_character_source@_W@0@H_N@Z 00000001800384ac     libucrt:atox.obj
 0002:0000d4c8       $unwind$_stricmp           00000001800384c8     libucrt:stricmp.obj
 0002:0000d4d0       $unwind$_stricmp_l         00000001800384d0     libucrt:stricmp.obj
 0002:0000d4e0       $unwind$__stdio_common_vswprintf_s 00000001800384e0     libucrt:output.obj
 0002:0000d4ec       $unwind$?force_decimal_point@__crt_stdio_output@@YAXPEADQEAU__crt_locale_pointers@@@Z 00000001800384ec     libucrt:output.obj
 0002:0000d4f8       $unwind$?write_string@?$string_output_adapter@_W@__crt_stdio_output@@QEBAXQEB_WHQEAH1@Z 00000001800384f8     libucrt:output.obj
 0002:0000d514       $unwind$??$common_vsprintf@Vformat_validation_base@__crt_stdio_output@@_W@@YAH_KQEA_W0QEB_WQEAU__crt_locale_pointers@@QEAD@Z 0000000180038514     libucrt:output.obj
 0002:0000d538       $unwind$??$write_multiple_characters@V?$string_output_adapter@_W@__crt_stdio_output@@D@__crt_stdio_output@@YAXAEBV?$string_output_adapter@_W@0@DHQEAH@Z 0000000180038538     libucrt:output.obj
 0002:0000d544       $unwind$??$ensure_buffer_is_big_enough@D@formatting_buffer@__crt_stdio_output@@QEAA_N_K@Z 0000000180038544     libucrt:output.obj
 0002:0000d558       $unwind$??0?$output_processor@_WV?$string_output_adapter@_W@__crt_stdio_output@@V?$format_validation_base@_WV?$string_output_adapter@_W@__crt_stdio_output@@@2@@__crt_stdio_output@@QEAA@AEBV?$string_output_adapter@_W@1@_KQEB_WQEAU__crt_locale_pointers@@QEAD@Z 0000000180038558     libucrt:output.obj
 0002:0000d560       $unwind$?process@?$output_processor@_WV?$string_output_adapter@_W@__crt_stdio_output@@V?$format_validation_base@_WV?$string_output_adapter@_W@__crt_stdio_output@@@2@@__crt_stdio_output@@QEAAHXZ 0000000180038560     libucrt:output.obj
 0002:0000d578       $unwind$?parse_int_from_format_string@?$output_processor@_WV?$string_output_adapter@_W@__crt_stdio_output@@V?$format_validation_base@_WV?$string_output_adapter@_W@__crt_stdio_output@@@2@@__crt_stdio_output@@AEAA_NQEAH@Z 0000000180038578     libucrt:output.obj
 0002:0000d58c       $unwind$?state_case_size@?$output_processor@_WV?$string_output_adapter@_W@__crt_stdio_output@@V?$format_validation_base@_WV?$string_output_adapter@_W@__crt_stdio_output@@@2@@__crt_stdio_output@@AEAA_NXZ 000000018003858c     libucrt:output.obj
 0002:0000d594       $unwind$?state_case_type@?$output_processor@_WV?$string_output_adapter@_W@__crt_stdio_output@@V?$format_validation_base@_WV?$string_output_adapter@_W@__crt_stdio_output@@@2@@__crt_stdio_output@@AEAA_NXZ 0000000180038594     libucrt:output.obj
 0002:0000d5b8       $unwind$?type_case_c_tchar@?$output_processor@_WV?$string_output_adapter@_W@__crt_stdio_output@@V?$format_validation_base@_WV?$string_output_adapter@_W@__crt_stdio_output@@@2@@__crt_stdio_output@@AEAA_N_W@Z 00000001800385b8     libucrt:output.obj
 0002:0000d5c8       $unwind$?type_case_Z@?$output_processor@_WV?$string_output_adapter@_W@__crt_stdio_output@@V?$format_validation_base@_WV?$string_output_adapter@_W@__crt_stdio_output@@@2@@__crt_stdio_output@@AEAA_NXZ 00000001800385c8     libucrt:output.obj
 0002:0000d5d8       $unwind$?type_case_s@?$output_processor@_WV?$string_output_adapter@_W@__crt_stdio_output@@V?$format_validation_base@_WV?$string_output_adapter@_W@__crt_stdio_output@@@2@@__crt_stdio_output@@AEAA_NXZ 00000001800385d8     libucrt:output.obj
 0002:0000d5e8       $unwind$?type_case_a@?$output_processor@_WV?$string_output_adapter@_W@__crt_stdio_output@@V?$format_validation_base@_WV?$string_output_adapter@_W@__crt_stdio_output@@@2@@__crt_stdio_output@@AEAA_NXZ 00000001800385e8     libucrt:output.obj
 0002:0000d5f8       $unwind$?type_case_integer@?$output_processor@_WV?$string_output_adapter@_W@__crt_stdio_output@@V?$format_validation_base@_WV?$string_output_adapter@_W@__crt_stdio_output@@@2@@__crt_stdio_output@@AEAA_NI_N@Z 00000001800385f8     libucrt:output.obj
 0002:0000d600       $unwind$?type_case_n@?$output_processor@_WV?$string_output_adapter@_W@__crt_stdio_output@@V?$format_validation_base@_WV?$string_output_adapter@_W@__crt_stdio_output@@@2@@__crt_stdio_output@@AEAA_NXZ 0000000180038600     libucrt:output.obj
 0002:0000d610       $unwind$?write_stored_string_tchar@?$output_processor@_WV?$string_output_adapter@_W@__crt_stdio_output@@V?$format_validation_base@_WV?$string_output_adapter@_W@__crt_stdio_output@@@2@@__crt_stdio_output@@AEAA_N_W@Z 0000000180038610     libucrt:output.obj
 0002:0000d624       $unwind$??$type_case_integer_parse_into_buffer@_K@?$output_processor@_WV?$string_output_adapter@_W@__crt_stdio_output@@V?$format_validation_base@_WV?$string_output_adapter@_W@__crt_stdio_output@@@2@@__crt_stdio_output@@AEAAX_KI_N@Z 0000000180038624     libucrt:output.obj
 0002:0000d62c       $unwind$??$type_case_integer_parse_into_buffer@I@?$output_processor@_WV?$string_output_adapter@_W@__crt_stdio_output@@V?$format_validation_base@_WV?$string_output_adapter@_W@__crt_stdio_output@@@2@@__crt_stdio_output@@AEAAXII_N@Z 000000018003862c     libucrt:output.obj
 0002:0000d634       $unwind$wcscat_s           0000000180038634     libucrt:wcscat_s.obj
 0002:0000d63c       $unwind$strncpy_s          000000018003863c     libucrt:strncpy_s.obj
 0002:0000d648       $unwind$_invalid_parameter_noinfo 0000000180038648     libucrt:invalid_parameter.obj
 0002:0000d650       $unwind$_invalid_parameter_noinfo_noreturn 0000000180038650     libucrt:invalid_parameter.obj
 0002:0000d658       $unwind$_invoke_watson     0000000180038658     libucrt:invalid_parameter.obj
 0002:0000d660       $unwind$__acrt_call_reportfault 0000000180038660     libucrt:invalid_parameter.obj
 0002:0000d680       $unwind$_invalid_parameter 0000000180038680     libucrt:invalid_parameter.obj
 0002:0000d698       $unwind$isdigit            0000000180038698     libucrt:_ctype.obj
 0002:0000d6a0       $unwind$isalnum            00000001800386a0     libucrt:_ctype.obj
 0002:0000d6a8       $unwind$tolower            00000001800386a8     libucrt:tolower_toupper.obj
 0002:0000d6b0       $unwind$_tolower_l         00000001800386b0     libucrt:tolower_toupper.obj
 0002:0000d6c0       $unwind$?internal_isupper_l@@YA_NHQEAU__crt_locale_pointers@@@Z 00000001800386c0     libucrt:tolower_toupper.obj
 0002:0000d6cc       $unwind$strcpy_s           00000001800386cc     libucrt:strcpy_s.obj
 0002:0000d6d4       $unwind$wcstol             00000001800386d4     libucrt:strtox.obj
 0002:0000d6dc       $unwind$wcstoul            00000001800386dc     libucrt:strtox.obj
 0002:0000d6e4       $unwind$strtoul            00000001800386e4     libucrt:strtox.obj
 0002:0000d6ec       $unwind$wcscpy_s           00000001800386ec     libucrt:wcscpy_s.obj
 0002:0000d6f4       $unwind$_callnewh          00000001800386f4     libucrt:new_handler.obj
 0002:0000d700       $unwind$_query_new_handler 0000000180038700     libucrt:new_handler.obj
 0002:0000d720       $unwind$_query_new_handler$fin$0 0000000180038720     libucrt:new_handler.obj
 0002:0000d728       $unwind$terminate          0000000180038728     libucrt:terminate.obj
 0002:0000d748       $unwind$_initterm          0000000180038748     libucrt:initterm.obj
 0002:0000d760       $unwind$_initterm_e        0000000180038760     libucrt:initterm.obj
 0002:0000d770       $unwind$_seh_filter_exe    0000000180038770     libucrt:exception_filter.obj
 0002:0000d784       $unwind$?try_cor_exit_process@@YAXI@Z 0000000180038784     libucrt:exit.obj
 0002:0000d790       $unwind$?exit_or_terminate_process@@YAXI@Z 0000000180038790     libucrt:exit.obj
 0002:0000d798       $unwind$?common_exit@@YAXHW4_crt_exit_cleanup_mode@@W4_crt_exit_return_mode@@@Z 0000000180038798     libucrt:exit.obj
 0002:0000d7d8       $unwind$?filt$0@?0??common_exit@@YAXHW4_crt_exit_cleanup_mode@@W4_crt_exit_return_mode@@@Z@4HA 00000001800387d8     libucrt:exit.obj
 0002:0000d7e0       $unwind$?fin$1@?0??common_exit@@YAXHW4_crt_exit_cleanup_mode@@W4_crt_exit_return_mode@@@Z@4HA 00000001800387e0     libucrt:exit.obj
 0002:0000d7e8       $unwind$_configure_narrow_argv 00000001800387e8     libucrt:argv_parsing.obj
 0002:0000d7fc       $unwind$__acrt_allocate_buffer_for_argv 00000001800387fc     libucrt:argv_parsing.obj
 0002:0000d804       $unwind$??$parse_command_line@D@@YAXPEADPEAPEAD0PEA_K2@Z 0000000180038804     libucrt:argv_parsing.obj
 0002:0000d820       $unwind$__dcrt_uninitialize_environments_nolock 0000000180038820     libucrt:environment_initialization.obj
 0002:0000d828       $unwind$??$common_initialize_environment_nolock@D@@YAHXZ 0000000180038828     libucrt:environment_initialization.obj
 0002:0000d834       $unwind$??$uninitialize_environment_internal@D@@YAXAEAPEAPEAD@Z 0000000180038834     libucrt:environment_initialization.obj
 0002:0000d83c       $unwind$??$uninitialize_environment_internal@_W@@YAXAEAPEAPEA_W@Z 000000018003883c     libucrt:environment_initialization.obj
 0002:0000d844       $unwind$??$free_environment@D@@YAXQEAPEAD@Z 0000000180038844     libucrt:environment_initialization.obj
 0002:0000d850       $unwind$??$free_environment@_W@@YAXQEAPEA_W@Z 0000000180038850     libucrt:environment_initialization.obj
 0002:0000d85c       $unwind$??$create_environment@D@@YAQEAPEADQEAD@Z 000000018003885c     libucrt:environment_initialization.obj
 0002:0000d874       $unwind$_register_onexit_function 0000000180038874     libucrt:onexit.obj
 0002:0000d87c       $unwind$_execute_onexit_table 000000018003887c     libucrt:onexit.obj
 0002:0000d884       $unwind$??R<lambda_4e60a939b0d047cfe11ddc22648dfba9>@@QEBAHXZ 0000000180038884     libucrt:onexit.obj
 0002:0000d8a0       $unwind$??$?RV<lambda_b8c45f8f788dd370798f47cfe8ac3a86>@@AEAV<lambda_4e60a939b0d047cfe11ddc22648dfba9>@@V<lambda_332c3edc96d0294ec56c57d38c1cdfd5>@@@?$__crt_seh_guarded_call@H@@QEAAH$$QEAV<lambda_b8c45f8f788dd370798f47cfe8ac3a86>@@AEAV<lambda_4e60a939b0d047cfe11ddc22648dfba9>@@$$QEAV<lambda_332c3edc96d0294ec56c57d38c1cdfd5>@@@Z 00000001800388a0     libucrt:onexit.obj
 0002:0000d8c4       $unwind$?fin$0@?0???$?RV<lambda_b8c45f8f788dd370798f47cfe8ac3a86>@@AEAV<lambda_4e60a939b0d047cfe11ddc22648dfba9>@@V<lambda_332c3edc96d0294ec56c57d38c1cdfd5>@@@?$__crt_seh_guarded_call@H@@QEAAH$$QEAV<lambda_b8c45f8f788dd370798f47cfe8ac3a86>@@AEAV<lambda_4e60a939b0d047cfe11ddc22648dfba9>@@$$QEAV<lambda_332c3edc96d0294ec56c57d38c1cdfd5>@@@Z@4HA 00000001800388c4     libucrt:onexit.obj
 0002:0000d8cc       $unwind$??$?RV<lambda_e24bbb7b643b32fcea6fa61b31d4c984>@@AEAV<lambda_275893d493268fdec8709772e3fcec0e>@@V<lambda_9d71df4d7cf3f480f8d633942495c3b0>@@@?$__crt_seh_guarded_call@H@@QEAAH$$QEAV<lambda_e24bbb7b643b32fcea6fa61b31d4c984>@@AEAV<lambda_275893d493268fdec8709772e3fcec0e>@@$$QEAV<lambda_9d71df4d7cf3f480f8d633942495c3b0>@@@Z 00000001800388cc     libucrt:onexit.obj
 0002:0000d8fc       $unwind$?fin$0@?0???$?RV<lambda_e24bbb7b643b32fcea6fa61b31d4c984>@@AEAV<lambda_275893d493268fdec8709772e3fcec0e>@@V<lambda_9d71df4d7cf3f480f8d633942495c3b0>@@@?$__crt_seh_guarded_call@H@@QEAAH$$QEAV<lambda_e24bbb7b643b32fcea6fa61b31d4c984>@@AEAV<lambda_275893d493268fdec8709772e3fcec0e>@@$$QEAV<lambda_9d71df4d7cf3f480f8d633942495c3b0>@@@Z@4HA 00000001800388fc     libucrt:onexit.obj
 0002:0000d904       $unwind$__acrt_uninitialize_critical 0000000180038904     libucrt:initialization.obj
 0002:0000d90c       $unwind$__acrt_thread_attach 000000018003890c     libucrt:initialization.obj
 0002:0000d914       $unwind$__acrt_thread_detach 0000000180038914     libucrt:initialization.obj
 0002:0000d91c       $unwind$initialize_c       000000018003891c     libucrt:initialization.obj
 0002:0000d924       $unwind$uninitialize_environment 0000000180038924     libucrt:initialization.obj
 0002:0000d92c       $unwind$initialize_pointers 000000018003892c     libucrt:initialization.obj
 0002:0000d934       $unwind$uninitialize_allocated_memory 0000000180038934     libucrt:initialization.obj
 0002:0000d93c       $unwind$_free_base         000000018003893c     libucrt:free_base.obj
 0002:0000d944       $unwind$_malloc_base       0000000180038944     libucrt:malloc_base.obj
 0002:0000d94c       $unwind$abort              000000018003894c     libucrt:abort.obj
 0002:0000d954       $unwind$_calloc_base       0000000180038954     libucrt:calloc_base.obj
 0002:0000d95c       $unwind$_errno             000000018003895c     libucrt:errno.obj
 0002:0000d964       $unwind$__doserrno         0000000180038964     libucrt:errno.obj
 0002:0000d96c       $unwind$__acrt_errno_map_os_error 000000018003896c     libucrt:errno.obj
 0002:0000d978       $unwind$_towlower_l        0000000180038978     libucrt:towlower.obj
 0002:0000d980       $unwind$__acrt_initialize_ptd 0000000180038980     libucrt:per_thread_data.obj
 0002:0000d988       $unwind$__acrt_uninitialize_ptd 0000000180038988     libucrt:per_thread_data.obj
 0002:0000d990       $unwind$__acrt_getptd      0000000180038990     libucrt:per_thread_data.obj
 0002:0000d99c       $unwind$__acrt_getptd_noexit 000000018003899c     libucrt:per_thread_data.obj
 0002:0000d9ac       $unwind$__acrt_freeptd     00000001800389ac     libucrt:per_thread_data.obj
 0002:0000d9b4       $unwind$?destroy_fls@@YAXPEAX@Z 00000001800389b4     libucrt:per_thread_data.obj
 0002:0000d9bc       $unwind$?replace_current_thread_locale_nolock@@YAXQEAU__acrt_ptd@@QEAU__crt_locale_data@@@Z 00000001800389bc     libucrt:per_thread_data.obj
 0002:0000d9c8       $unwind$?construct_ptd_array@@YAXQEAU__acrt_ptd@@@Z 00000001800389c8     libucrt:per_thread_data.obj
 0002:0000d9d0       $unwind$?destroy_ptd_array@@YAXQEAU__acrt_ptd@@@Z 00000001800389d0     libucrt:per_thread_data.obj
 0002:0000d9d8       $unwind$??$?RV<lambda_72d1df2b273a38828b1ce30cbf4cdab5>@@AEAV<lambda_876a65b173b8412d3a47c70a915b0cf4>@@V<lambda_41932305e351933ebe8f8be3ed8bb5dc>@@@?$__crt_seh_guarded_call@X@@QEAAX$$QEAV<lambda_72d1df2b273a38828b1ce30cbf4cdab5>@@AEAV<lambda_876a65b173b8412d3a47c70a915b0cf4>@@$$QEAV<lambda_41932305e351933ebe8f8be3ed8bb5dc>@@@Z 00000001800389d8     libucrt:per_thread_data.obj
 0002:0000d9fc       $unwind$?fin$0@?0???$?RV<lambda_72d1df2b273a38828b1ce30cbf4cdab5>@@AEAV<lambda_876a65b173b8412d3a47c70a915b0cf4>@@V<lambda_41932305e351933ebe8f8be3ed8bb5dc>@@@?$__crt_seh_guarded_call@X@@QEAAX$$QEAV<lambda_72d1df2b273a38828b1ce30cbf4cdab5>@@AEAV<lambda_876a65b173b8412d3a47c70a915b0cf4>@@$$QEAV<lambda_41932305e351933ebe8f8be3ed8bb5dc>@@@Z@4HA 00000001800389fc     libucrt:per_thread_data.obj
 0002:0000da04       $unwind$??$?RV<lambda_5e887d1dcbef67a5eb4283622ba103bf>@@AEAV<lambda_4466841279450cc726390878d4a41900>@@V<lambda_341c25c0346d94847f1f3c463c57e077>@@@?$__crt_seh_guarded_call@X@@QEAAX$$QEAV<lambda_5e887d1dcbef67a5eb4283622ba103bf>@@AEAV<lambda_4466841279450cc726390878d4a41900>@@$$QEAV<lambda_341c25c0346d94847f1f3c463c57e077>@@@Z 0000000180038a04     libucrt:per_thread_data.obj
 0002:0000da28       $unwind$?fin$0@?0???$?RV<lambda_5e887d1dcbef67a5eb4283622ba103bf>@@AEAV<lambda_4466841279450cc726390878d4a41900>@@V<lambda_341c25c0346d94847f1f3c463c57e077>@@@?$__crt_seh_guarded_call@X@@QEAAX$$QEAV<lambda_5e887d1dcbef67a5eb4283622ba103bf>@@AEAV<lambda_4466841279450cc726390878d4a41900>@@$$QEAV<lambda_341c25c0346d94847f1f3c463c57e077>@@@Z@4HA 0000000180038a28     libucrt:per_thread_data.obj
 0002:0000da30       $unwind$??$?RV<lambda_46352004c1216016012b18bd6f87e700>@@AEAV<lambda_3bd07e1a1191394380780325891bf33f>@@V<lambda_334532d3f185bcaa59b5be82d7d22bff>@@@?$__crt_seh_guarded_call@X@@QEAAX$$QEAV<lambda_46352004c1216016012b18bd6f87e700>@@AEAV<lambda_3bd07e1a1191394380780325891bf33f>@@$$QEAV<lambda_334532d3f185bcaa59b5be82d7d22bff>@@@Z 0000000180038a30     libucrt:per_thread_data.obj
 0002:0000da54       $unwind$?fin$0@?0???$?RV<lambda_46352004c1216016012b18bd6f87e700>@@AEAV<lambda_3bd07e1a1191394380780325891bf33f>@@V<lambda_334532d3f185bcaa59b5be82d7d22bff>@@@?$__crt_seh_guarded_call@X@@QEAAX$$QEAV<lambda_46352004c1216016012b18bd6f87e700>@@AEAV<lambda_3bd07e1a1191394380780325891bf33f>@@$$QEAV<lambda_334532d3f185bcaa59b5be82d7d22bff>@@@Z@4HA 0000000180038a54     libucrt:per_thread_data.obj
 0002:0000da5c       $unwind$??$?RV<lambda_fb3a7dec4e47f37f22dae91bb15c9095>@@AEAV<lambda_698284760c8add0bfb0756c19673e34b>@@V<lambda_dfb8eca1e75fef3034a8fb18dd509707>@@@?$__crt_seh_guarded_call@X@@QEAAX$$QEAV<lambda_fb3a7dec4e47f37f22dae91bb15c9095>@@AEAV<lambda_698284760c8add0bfb0756c19673e34b>@@$$QEAV<lambda_dfb8eca1e75fef3034a8fb18dd509707>@@@Z 0000000180038a5c     libucrt:per_thread_data.obj
 0002:0000da80       $unwind$?fin$0@?0???$?RV<lambda_fb3a7dec4e47f37f22dae91bb15c9095>@@AEAV<lambda_698284760c8add0bfb0756c19673e34b>@@V<lambda_dfb8eca1e75fef3034a8fb18dd509707>@@@?$__crt_seh_guarded_call@X@@QEAAX$$QEAV<lambda_fb3a7dec4e47f37f22dae91bb15c9095>@@AEAV<lambda_698284760c8add0bfb0756c19673e34b>@@$$QEAV<lambda_dfb8eca1e75fef3034a8fb18dd509707>@@@Z@4HA 0000000180038a80     libucrt:per_thread_data.obj
 0002:0000da88       $unwind$__acrt_update_locale_info 0000000180038a88     libucrt:locale_update.obj
 0002:0000da90       $unwind$__acrt_update_multibyte_info 0000000180038a90     libucrt:locale_update.obj
 0002:0000da98       $unwind$__acrt_uninitialize_locale 0000000180038a98     libucrt:wsetlocale.obj
 0002:0000dab8       $unwind$__acrt_uninitialize_locale$fin$0 0000000180038ab8     libucrt:wsetlocale.obj
 0002:0000dac0       $unwind$__pctype_func      0000000180038ac0     libucrt:ctype.obj
 0002:0000dac8       $unwind$iswctype           0000000180038ac8     libucrt:iswctype.obj
 0002:0000dad4       $unwind$_isctype_l         0000000180038ad4     libucrt:isctype.obj
 0002:0000daf0       $unwind$_mbtowc_l          0000000180038af0     libucrt:mbtowc.obj
 0002:0000db08       $unwind$wcsnlen            0000000180038b08     libucrt:strnlen.obj
 0002:0000db10       $unwind$__acrt_fp_format   0000000180038b10     libucrt:cvt.obj
 0002:0000db2c       $unwind$?fp_format_nan_or_infinity@@YAHW4__acrt_fp_class@@_NPEAD_K1@Z 0000000180038b2c     libucrt:cvt.obj
 0002:0000db40       $unwind$?fp_format_e_internal@@YAHQEAD_KH_NIQEAU_strflt@@2QEAU__crt_locale_pointers@@@Z 0000000180038b40     libucrt:cvt.obj
 0002:0000db58       $unwind$?fp_format_e@@YAHQEBNQEAD_K12H_NIQEAU__crt_locale_pointers@@@Z 0000000180038b58     libucrt:cvt.obj
 0002:0000db6c       $unwind$?fp_format_a@@YAHQEBNPEAD_KQEAD2H_NIQEAU__crt_locale_pointers@@@Z 0000000180038b6c     libucrt:cvt.obj
 0002:0000db88       $unwind$?fp_format_f_internal@@YAHQEAD_KHQEAU_strflt@@_NQEAU__crt_locale_pointers@@@Z 0000000180038b88     libucrt:cvt.obj
 0002:0000dba0       $unwind$?fp_format_g@@YAHQEBNQEAD_K12H_NIQEAU__crt_locale_pointers@@@Z 0000000180038ba0     libucrt:cvt.obj
 0002:0000dbb4       $unwind$_fileno            0000000180038bb4     libucrt:fileno.obj
 0002:0000dbbc       $unwind$__acrt_initialize_stdio 0000000180038bbc     libucrt:_file.obj
 0002:0000dbd4       $unwind$__acrt_uninitialize_stdio 0000000180038bd4     libucrt:_file.obj
 0002:0000dbdc       $unwind$__acrt_initialize_lowio 0000000180038bdc     libucrt:ioinit.obj
 0002:0000dbfc       $unwind$__acrt_initialize_lowio$fin$0 0000000180038bfc     libucrt:ioinit.obj
 0002:0000dc04       $unwind$__acrt_uninitialize_lowio 0000000180038c04     libucrt:ioinit.obj
 0002:0000dc10       $unwind$?initialize_inherited_file_handles_nolock@@YAXXZ 0000000180038c10     libucrt:ioinit.obj
 0002:0000dc2c       $unwind$?initialize_stdio_handles_nolock@@YAXXZ 0000000180038c2c     libucrt:ioinit.obj
 0002:0000dc40       $unwind$_isleadbyte_l      0000000180038c40     libucrt:_wctype.obj
 0002:0000dc48       $unwind$__acrt_LCMapStringA 0000000180038c48     libucrt:lcmapstringa.obj
 0002:0000dc58       $unwind$?__acrt_LCMapStringA_stat@@YAHPEAU__crt_locale_pointers@@PEB_WKPEBDHPEADHHH@Z 0000000180038c58     libucrt:lcmapstringa.obj
 0002:0000dc80       $unwind$__acrt_initialize_locks 0000000180038c80     libucrt:locks.obj
 0002:0000dc88       $unwind$__acrt_uninitialize_locks 0000000180038c88     libucrt:locks.obj
 0002:0000dc90       $unwind$__acrt_FlsAlloc    0000000180038c90     libucrt:winapi_thunks.obj
 0002:0000dc9c       $unwind$__acrt_FlsFree     0000000180038c9c     libucrt:winapi_thunks.obj
 0002:0000dca8       $unwind$__acrt_FlsGetValue 0000000180038ca8     libucrt:winapi_thunks.obj
 0002:0000dcb4       $unwind$__acrt_FlsSetValue 0000000180038cb4     libucrt:winapi_thunks.obj
 0002:0000dcc4       $unwind$__acrt_initialize_winapi_thunks 0000000180038cc4     libucrt:winapi_thunks.obj
 0002:0000dccc       $unwind$__acrt_uninitialize_winapi_thunks 0000000180038ccc     libucrt:winapi_thunks.obj
 0002:0000dcd4       $unwind$__acrt_InitializeCriticalSectionEx 0000000180038cd4     libucrt:winapi_thunks.obj
 0002:0000dce8       $unwind$__acrt_LCMapStringEx 0000000180038ce8     libucrt:winapi_thunks.obj
 0002:0000dd00       $unwind$__acrt_LocaleNameToLCID 0000000180038d00     libucrt:winapi_thunks.obj
 0002:0000dd10       $unwind$__acrt_is_packaged_app 0000000180038d10     libucrt:winapi_thunks.obj
 0002:0000dd1c       $unwind$?try_get_function@@YAPEAXW4function_id@?A0x63058377@@QEBDQEBW4module_id@2@2@Z 0000000180038d1c     libucrt:winapi_thunks.obj
 0002:0000dd38       $unwind$??$common_expand_argv_wildcards@D@@YAHQEAPEADQEAPEAPEAD@Z 0000000180038d38     libucrt:argv_wildcards.obj
 0002:0000dd50       $unwind$?expand_if_necessary@?$argument_list@D@?A0xca0879c4@@AEAAHXZ 0000000180038d50     libucrt:argv_wildcards.obj
 0002:0000dd64       $unwind$??$copy_and_add_argument_to_buffer@D@@YAHQEBD0_KAEAV?$argument_list@D@?A0xca0879c4@@@Z 0000000180038d64     libucrt:argv_wildcards.obj
 0002:0000dd80       $unwind$??$expand_argument_wildcards@D@@YAHQEAD0AEAV?$argument_list@D@?A0xca0879c4@@@Z 0000000180038d80     libucrt:argv_wildcards.obj
 0002:0000dda0       $unwind$__acrt_update_thread_multibyte_data 0000000180038da0     libucrt:mbctype.obj
 0002:0000ddc4       $unwind$__acrt_update_thread_multibyte_data$fin$0 0000000180038dc4     libucrt:mbctype.obj
 0002:0000ddcc       $unwind$__acrt_initialize_multibyte 0000000180038dcc     libucrt:mbctype.obj
 0002:0000ddd4       $unwind$_setmbcp_nolock    0000000180038dd4     libucrt:mbctype.obj
 0002:0000ddf4       $unwind$?getSystemCP@@YAHH@Z 0000000180038df4     libucrt:mbctype.obj
 0002:0000ddfc       $unwind$?setSBCS@@YAXPEAU__crt_multibyte_data@@@Z 0000000180038dfc     libucrt:mbctype.obj
 0002:0000de10       $unwind$?setSBUpLow@@YAXPEAU__crt_multibyte_data@@@Z 0000000180038e10     libucrt:mbctype.obj
 0002:0000de2c       $unwind$?setmbcp_internal@@YAHH_N@Z 0000000180038e2c     libucrt:mbctype.obj
 0002:0000de3c       $unwind$??R<lambda_ad1ced32f4ac17aa236e5ef05d6b3b7c>@@QEBAXXZ 0000000180038e3c     libucrt:mbctype.obj
 0002:0000de4c       $unwind$??$?RV<lambda_99476a1ad63dd22509b5d3e65b0ffc95>@@AEAV<lambda_ad1ced32f4ac17aa236e5ef05d6b3b7c>@@V<lambda_f7424dd8d45958661754dc4f2697e9c3>@@@?$__crt_seh_guarded_call@X@@QEAAX$$QEAV<lambda_99476a1ad63dd22509b5d3e65b0ffc95>@@AEAV<lambda_ad1ced32f4ac17aa236e5ef05d6b3b7c>@@$$QEAV<lambda_f7424dd8d45958661754dc4f2697e9c3>@@@Z 0000000180038e4c     libucrt:mbctype.obj
 0002:0000de70       $unwind$?fin$0@?0???$?RV<lambda_99476a1ad63dd22509b5d3e65b0ffc95>@@AEAV<lambda_ad1ced32f4ac17aa236e5ef05d6b3b7c>@@V<lambda_f7424dd8d45958661754dc4f2697e9c3>@@@?$__crt_seh_guarded_call@X@@QEAAX$$QEAV<lambda_99476a1ad63dd22509b5d3e65b0ffc95>@@AEAV<lambda_ad1ced32f4ac17aa236e5ef05d6b3b7c>@@$$QEAV<lambda_f7424dd8d45958661754dc4f2697e9c3>@@@Z@4HA 0000000180038e70     libucrt:mbctype.obj
 0002:0000de78       $unwind$?x_ismbbtype_l@@YAHPEAU__crt_locale_pointers@@IHH@Z 0000000180038e78     libucrt:ismbbyte.obj
 0002:0000de88       $unwind$__acrt_initialize_command_line 0000000180038e88     libucrt:argv_data.obj
 0002:0000de90       $unwind$__dcrt_get_narrow_environment_from_os 0000000180038e90     libucrt:get_environment_from_os.obj
 0002:0000dea8       $unwind$_recalloc_base     0000000180038ea8     libucrt:recalloc.obj
 0002:0000debc       $unwind$__acrt_initialize_heap 0000000180038ebc     libucrt:heap_handle.obj
 0002:0000dec4       $unwind$__acrt_execute_initializers 0000000180038ec4     libucrt:shared_initialization.obj
 0002:0000ded8       $unwind$__acrt_execute_uninitializers 0000000180038ed8     libucrt:shared_initialization.obj
 0002:0000dee8       $unwind$__acrt_get_sigabrt_handler 0000000180038ee8     libucrt:signal.obj
 0002:0000def0       $unwind$raise              0000000180038ef0     libucrt:signal.obj
 0002:0000df1c       $unwind$raise$fin$0        0000000180038f1c     libucrt:signal.obj
 0002:0000df24       $unwind$??$?RV<lambda_c36588078e9f5dfd39652860aa6b3aaf>@@AEAV<lambda_ec61778202f4f5fc7e7711acc23c3bca>@@V<lambda_dc9d2797ccde5d239b4a0efae8ebd7db>@@@?$__crt_seh_guarded_call@P6AXH@Z@@QEAAP6AXH@Z$$QEAV<lambda_c36588078e9f5dfd39652860aa6b3aaf>@@AEAV<lambda_ec61778202f4f5fc7e7711acc23c3bca>@@$$QEAV<lambda_dc9d2797ccde5d239b4a0efae8ebd7db>@@@Z 0000000180038f24     libucrt:signal.obj
 0002:0000df48       $unwind$?fin$0@?0???$?RV<lambda_c36588078e9f5dfd39652860aa6b3aaf>@@AEAV<lambda_ec61778202f4f5fc7e7711acc23c3bca>@@V<lambda_dc9d2797ccde5d239b4a0efae8ebd7db>@@@?$__crt_seh_guarded_call@P6AXH@Z@@QEAAP6AXH@Z$$QEAV<lambda_c36588078e9f5dfd39652860aa6b3aaf>@@AEAV<lambda_ec61778202f4f5fc7e7711acc23c3bca>@@$$QEAV<lambda_dc9d2797ccde5d239b4a0efae8ebd7db>@@@Z@4HA 0000000180038f48     libucrt:signal.obj
 0002:0000df50       $unwind$__acrt_invoke_user_matherr 0000000180038f50     libucrt:matherr.obj
 0002:0000df5c       $unwind$__acrt_LCMapStringW 0000000180038f5c     libucrt:lcmapstringw.obj
 0002:0000df70       $unwind$__acrt_release_locale_ref 0000000180038f70     libucrt:locale_refcounting.obj
 0002:0000df78       $unwind$__acrt_free_locale 0000000180038f78     libucrt:locale_refcounting.obj
 0002:0000df8c       $unwind$__acrt_locale_free_lc_time_if_unreferenced 0000000180038f8c     libucrt:locale_refcounting.obj
 0002:0000df94       $unwind$__acrt_update_thread_locale_data 0000000180038f94     libucrt:locale_refcounting.obj
 0002:0000dfb8       $unwind$__acrt_update_thread_locale_data$fin$0 0000000180038fb8     libucrt:locale_refcounting.obj
 0002:0000dfc0       $unwind$_updatetlocinfoEx_nolock 0000000180038fc0     libucrt:locale_refcounting.obj
 0002:0000dfcc       $unwind$__acrt_locale_free_monetary 0000000180038fcc     libucrt:initmon.obj
 0002:0000dfd4       $unwind$__acrt_locale_free_numeric 0000000180038fd4     libucrt:initnum.obj
 0002:0000dfdc       $unwind$__acrt_locale_free_time 0000000180038fdc     libucrt:inittime.obj
 0002:0000dfec       $unwind$?free_crt_array_internal@@YAXQEAPEBX_K@Z 0000000180038fec     libucrt:inittime.obj
 0002:0000dffc       $unwind$__acrt_GetStringTypeA 0000000180038ffc     libucrt:getstringtypea.obj
 0002:0000e024       $unwind$__acrt_fp_strflt_to_string 0000000180039024     libucrt:_fptostr.obj
 0002:0000e02c       $unwind$memcpy_s           000000018003902c     libucrt:cfout.obj
 0002:0000e03c       $unwind$__acrt_fltout      000000018003903c     libucrt:cfout.obj
 0002:0000e05c       $unwind$?divide@__crt_strtox@@YA_KAEAUbig_integer@1@AEBU21@@Z 000000018003905c     libucrt:cfout.obj
 0002:0000e07c       $chain$5$?divide@__crt_strtox@@YA_KAEAUbig_integer@1@AEBU21@@Z 000000018003907c     libucrt:cfout.obj
 0002:0000e090       $chain$6$?divide@__crt_strtox@@YA_KAEAUbig_integer@1@AEBU21@@Z 0000000180039090     libucrt:cfout.obj
 0002:0000e0a0       $unwind$_fcloseall         00000001800390a0     libucrt:closeall.obj
 0002:0000e0c4       $unwind$_fcloseall$fin$0   00000001800390c4     libucrt:closeall.obj
 0002:0000e0cc       $unwind$_fflush_nolock     00000001800390cc     libucrt:fflush.obj
 0002:0000e0d4       $unwind$__acrt_stdio_flush_nolock 00000001800390d4     libucrt:fflush.obj
 0002:0000e0e4       $unwind$common_flush_all   00000001800390e4     libucrt:fflush.obj
 0002:0000e120       $unwind$common_flush_all$fin$0 0000000180039120     libucrt:fflush.obj
 0002:0000e128       $unwind$common_flush_all$fin$1 0000000180039128     libucrt:fflush.obj
 0002:0000e130       $unwind$__acrt_stdio_free_buffer_nolock 0000000180039130     libucrt:_freebuf.obj
 0002:0000e138       $unwind$_isatty            0000000180039138     libucrt:isatty.obj
 0002:0000e140       $unwind$_get_osfhandle     0000000180039140     libucrt:osfinfo.obj
 0002:0000e148       $unwind$_free_osfhnd       0000000180039148     libucrt:osfinfo.obj
 0002:0000e15c       $unwind$__acrt_lowio_create_handle_array 000000018003915c     libucrt:osfinfo.obj
 0002:0000e170       $unwind$__acrt_lowio_destroy_handle_array 0000000180039170     libucrt:osfinfo.obj
 0002:0000e180       $unwind$__acrt_lowio_ensure_fh_exists 0000000180039180     libucrt:osfinfo.obj
 0002:0000e1ac       $unwind$__acrt_lowio_ensure_fh_exists$fin$0 00000001800391ac     libucrt:osfinfo.obj
 0002:0000e1b4       $unwind$__acrt_DownlevelLocaleNameToLCID 00000001800391b4     libucrt:lcidtoname_downlevel.obj
 0002:0000e1bc       $unwind$?GetTableIndexFromLocaleName@@YAHPEB_W@Z 00000001800391bc     libucrt:lcidtoname_downlevel.obj
 0002:0000e1d4       $unwind$qsort              00000001800391d4     libucrt:qsort.obj
 0002:0000e1ec       $chain$4$qsort             00000001800391ec     libucrt:qsort.obj
 0002:0000e210       $chain$5$qsort             0000000180039210     libucrt:qsort.obj
 0002:0000e220       $unwind$?shortsort@@YAXPEAD0_KP6AHPEBX2@Z@Z 0000000180039220     libucrt:qsort.obj
 0002:0000e230       $chain$2$?shortsort@@YAXPEAD0_KP6AHPEBX2@Z@Z 0000000180039230     libucrt:qsort.obj
 0002:0000e24c       $chain$3$?shortsort@@YAXPEAD0_KP6AHPEBX2@Z@Z 000000018003924c     libucrt:qsort.obj
 0002:0000e25c       $unwind$strpbrk            000000018003925c     libucrt:strpbrk.obj
 0002:0000e26c       $unwind$_mbsdec_l          000000018003926c     libucrt:mbsdec.obj
 0002:0000e278       $unwind$?initialize_multibyte@@YAHXZ 0000000180039278     libucrt:multibyte_initializer.obj
 0002:0000e280       $unwind$_msize             0000000180039280     libucrt:msize.obj
 0002:0000e288       $unwind$_realloc_base      0000000180039288     libucrt:realloc_base.obj
 0002:0000e294       $unwind$fegetenv           0000000180039294     libucrt:fegetenv.obj
 0002:0000e29c       $unwind$fesetenv           000000018003929c     libucrt:fesetenv.obj
 0002:0000e2a4       $unwind$feholdexcept       00000001800392a4     libucrt:feholdexcept.obj
 0002:0000e2b0       $xdatasym                  00000001800392b0     libucrt:log10.obj
 0002:0000e2bc       $unwind$_write             00000001800392bc     libucrt:write.obj
 0002:0000e2ec       $unwind$_write$fin$0       00000001800392ec     libucrt:write.obj
 0002:0000e2f4       $unwind$_write_nolock      00000001800392f4     libucrt:write.obj
 0002:0000e30c       $unwind$?write_double_translated_ansi_nolock@@YA?AUwrite_result@?A0x9c548279@@HQEBDI@Z 000000018003930c     libucrt:write.obj
 0002:0000e32c       $unwind$?write_text_ansi_nolock@@YA?AUwrite_result@?A0x9c548279@@HQEBDI@Z 000000018003932c     libucrt:write.obj
 0002:0000e34c       $unwind$?write_text_utf16le_nolock@@YA?AUwrite_result@?A0x9c548279@@HQEBDI@Z 000000018003934c     libucrt:write.obj
 0002:0000e36c       $unwind$?write_text_utf8_nolock@@YA?AUwrite_result@?A0x9c548279@@HQEBDI@Z 000000018003936c     libucrt:write.obj
 0002:0000e390       $unwind$??$common_lseek_nolock@_J@@YA_JH_JH@Z 0000000180039390     libucrt:lseek.obj
 0002:0000e3a0       $unwind$fclose             00000001800393a0     libucrt:fclose.obj
 0002:0000e3c4       $unwind$fclose$fin$0       00000001800393c4     libucrt:fclose.obj
 0002:0000e3cc       $unwind$_fclose_nolock     00000001800393cc     libucrt:fclose.obj
 0002:0000e3d8       $unwind$_commit            00000001800393d8     libucrt:commit.obj
 0002:0000e3e0       $unwind$??$?RV<lambda_b521505b218e5242e90febf6bfebc422>@@AEAV<lambda_6978c1fb23f02e42e1d9e99668cc68aa>@@V<lambda_314360699dd331753a4119843814e9a7>@@@?$__crt_seh_guarded_call@H@@QEAAH$$QEAV<lambda_b521505b218e5242e90febf6bfebc422>@@AEAV<lambda_6978c1fb23f02e42e1d9e99668cc68aa>@@$$QEAV<lambda_314360699dd331753a4119843814e9a7>@@@Z 00000001800393e0     libucrt:commit.obj
 0002:0000e404       $unwind$?fin$0@?0???$?RV<lambda_b521505b218e5242e90febf6bfebc422>@@AEAV<lambda_6978c1fb23f02e42e1d9e99668cc68aa>@@V<lambda_314360699dd331753a4119843814e9a7>@@@?$__crt_seh_guarded_call@H@@QEAAH$$QEAV<lambda_b521505b218e5242e90febf6bfebc422>@@AEAV<lambda_6978c1fb23f02e42e1d9e99668cc68aa>@@$$QEAV<lambda_314360699dd331753a4119843814e9a7>@@@Z@4HA 0000000180039404     libucrt:commit.obj
 0002:0000e40c       $unwind$_setfpstatusword   000000018003940c     libucrt:_fenvutils.obj
 0002:0000e414       $unwind$_getfpcontrolword  0000000180039414     libucrt:_fenvutils.obj
 0002:0000e41c       $unwind$_getfpstatusword   000000018003941c     libucrt:_fenvutils.obj
 0002:0000e424       $unwind$_clearfp           0000000180039424     libucrt:ieee.obj
 0002:0000e42c       $unwind$common_control87   000000018003942c     libucrt:ieee.obj
 0002:0000e45c       $unwind$common_control87$filt$0 000000018003945c     libucrt:ieee.obj
 0002:0000e464       $unwind$_call_matherr      0000000180039464     libucrt:libm_error.obj
 0002:0000e46c       $unwind$_exception_enabled 000000018003946c     libucrt:libm_error.obj
 0002:0000e47c       $unwind$_handle_error      000000018003947c     libucrt:libm_error.obj
 0002:0000e49c       $unwind$__acrt_initialize_fma3 000000018003949c     libucrt:fma3_available.obj
 0002:0000e4a4       $unwind$_log_special_common 00000001800394a4     libucrt:log_special.obj
 0002:0000e4b0       $unwind$_log10_special     00000001800394b0     libucrt:log_special.obj
 0002:0000e4b8       $unwind$_putwch_nolock     00000001800394b8     libucrt:putwch.obj
 0002:0000e4c0       $unwind$_close             00000001800394c0     libucrt:close.obj
 0002:0000e4c8       $unwind$_close_nolock      00000001800394c8     libucrt:close.obj
 0002:0000e4d4       $unwind$??$?RV<lambda_bfedae4ebbf01fab1bb6dcc6a9e276e0>@@AEAV<lambda_2fe9b910cf3cbf4a0ab98a02ba45b3ec>@@V<lambda_237c231691f317818eb88cc1d5d642d6>@@@?$__crt_seh_guarded_call@H@@QEAAH$$QEAV<lambda_bfedae4ebbf01fab1bb6dcc6a9e276e0>@@AEAV<lambda_2fe9b910cf3cbf4a0ab98a02ba45b3ec>@@$$QEAV<lambda_237c231691f317818eb88cc1d5d642d6>@@@Z 00000001800394d4     libucrt:close.obj
 0002:0000e4f8       $unwind$?fin$0@?0???$?RV<lambda_bfedae4ebbf01fab1bb6dcc6a9e276e0>@@AEAV<lambda_2fe9b910cf3cbf4a0ab98a02ba45b3ec>@@V<lambda_237c231691f317818eb88cc1d5d642d6>@@@?$__crt_seh_guarded_call@H@@QEAAH$$QEAV<lambda_bfedae4ebbf01fab1bb6dcc6a9e276e0>@@AEAV<lambda_2fe9b910cf3cbf4a0ab98a02ba45b3ec>@@$$QEAV<lambda_237c231691f317818eb88cc1d5d642d6>@@@Z@4HA 00000001800394f8     libucrt:close.obj
 0002:0000e500       $xdatasym                  0000000180039500     libucrt:fpsr.obj
 0002:0000e508       $unwind$_set_errno_from_matherr 0000000180039508     libucrt:fpexcept.obj
 0002:0000e510       $unwind$_raise_exc         0000000180039510     libucrt:fpexcept.obj
 0002:0000e518       $unwind$_raise_exc_ex      0000000180039518     libucrt:fpexcept.obj
 0002:0000e52c       $unwind$_clrfp             000000018003952c     libucrt:fpctrl.obj
 0002:0000e534       $unwind$_ctrlfp            0000000180039534     libucrt:fpctrl.obj
 0002:0000e55c       $unwind$_ctrlfp$filt$0     000000018003955c     libucrt:fpctrl.obj
 0002:0000e564       $unwind$_statfp            0000000180039564     libucrt:fpctrl.obj
 0002:0000e56c       $unwind$_set_statfp        000000018003956c     libucrt:fpctrl.obj
 0002:0000e574       $unwind$__dcrt_lowio_initialize_console_output 0000000180039574     libucrt:initcon.obj
 0002:0000e57c       $unwind$__dcrt_terminate_console_output 000000018003957c     libucrt:initcon.obj
 0002:0000e584       $unwind$_IsNonwritableInCurrentImage 0000000180039584     LIBCMT:pesect.obj
 0002:0000e5a8       $unwind$_IsNonwritableInCurrentImage$filt$0 00000001800395a8     LIBCMT:pesect.obj
 0002:0000e5b0       $unwind$__GSHandlerCheckCommon 00000001800395b0     LIBCMT:_gshandler_.obj
 0002:0000e5b8       $unwind$__GSHandlerCheck   00000001800395b8     LIBCMT:_gshandler_.obj
 0002:0000e5c0       $xdatasym                  00000001800395c0     LIBCMT:_amdsecgs_.obj
 0002:0000e5c4       $unwind$__report_securityfailure 00000001800395c4     LIBCMT:gs_report.obj
 0002:0000e5cc       $unwind$__report_rangecheckfailure 00000001800395cc     LIBCMT:gs_report.obj
 0002:0000e5d4       $unwind$__report_gsfailure 00000001800395d4     LIBCMT:gs_report.obj
 0002:0000e5dc       $unwind$capture_current_context 00000001800395dc     LIBCMT:gs_report.obj
 0002:0000e5e8       $unwind$capture_previous_context 00000001800395e8     LIBCMT:gs_report.obj
 0002:0000e5f4       $unwind$__raise_securityfailure 00000001800395f4     LIBCMT:gs_report.obj
 0002:0000e600       $xdatasym                  0000000180039600     LIBCMT:_chkstk_.obj
 0002:0000e608       $xdatasym                  0000000180039608     libvcruntime:memcmp.obj
 0002:0000e60c       $unwind$strrchr            000000018003960c     libvcruntime:strrchr.obj
 0002:0000e800       .edata                     0000000180039800     win_runtime.exp
 0002:0000e828       rgpv                       0000000180039828     win_runtime.exp
 0002:0000e8a8       rgszName                   00000001800398a8     win_runtime.exp
 0002:0000e928       rgwOrd                     0000000180039928     win_runtime.exp
 0002:0000e968       szName                     0000000180039968     win_runtime.exp
 0002:0000e978       $N00001                    0000000180039978     win_runtime.exp
 0002:0000e980       $N00002                    0000000180039980     win_runtime.exp
 0002:0000e998       $N00003                    0000000180039998     win_runtime.exp
 0002:0000e9b2       $N00004                    00000001800399b2     win_runtime.exp
 0002:0000e9c8       $N00005                    00000001800399c8     win_runtime.exp
 0002:0000e9de       $N00006                    00000001800399de     win_runtime.exp
 0002:0000e9fd       $N00007                    00000001800399fd     win_runtime.exp
 0002:0000ea1c       $N00008                    0000000180039a1c     win_runtime.exp
 0002:0000ea37       $N00009                    0000000180039a37     win_runtime.exp
 0002:0000ea52       $N00010                    0000000180039a52     win_runtime.exp
 0002:0000ea6d       $N00011                    0000000180039a6d     win_runtime.exp
 0002:0000ea88       $N00012                    0000000180039a88     win_runtime.exp
 0002:0000ea9e       $N00013                    0000000180039a9e     win_runtime.exp
 0002:0000eab6       $N00014                    0000000180039ab6     win_runtime.exp
 0002:0000eace       $N00015                    0000000180039ace     win_runtime.exp
 0002:0000eae4       $N00016                    0000000180039ae4     win_runtime.exp
 0002:0000eaf7       $N00017                    0000000180039af7     win_runtime.exp
 0002:0000eb0e       $N00018                    0000000180039b0e     win_runtime.exp
 0002:0000eb31       $N00019                    0000000180039b31     win_runtime.exp
 0002:0000eb56       $N00020                    0000000180039b56     win_runtime.exp
 0002:0000eb72       $N00021                    0000000180039b72     win_runtime.exp
 0002:0000eb8f       $N00022                    0000000180039b8f     win_runtime.exp
 0002:0000eba9       $N00023                    0000000180039ba9     win_runtime.exp
 0002:0000ebbd       $N00024                    0000000180039bbd     win_runtime.exp
 0002:0000ebd5       $N00025                    0000000180039bd5     win_runtime.exp
 0002:0000ebf5       $N00026                    0000000180039bf5     win_runtime.exp
 0002:0000ec0a       $N00027                    0000000180039c0a     win_runtime.exp
 0002:0000ec1e       $N00028                    0000000180039c1e     win_runtime.exp
 0002:0000ec32       $N00029                    0000000180039c32     win_runtime.exp
 0002:0000ec4a       $N00030                    0000000180039c4a     win_runtime.exp
 0002:0000ec54       $N00031                    0000000180039c54     win_runtime.exp
 0002:0000ec5f       $N00032                    0000000180039c5f     win_runtime.exp
 0002:0000f4a6       .idata$6                   000000018003a4a6     kernel32:KERNEL32.dll
 0002:0000f4c6       .idata$6                   000000018003a4c6     user32:USER32.dll
 0002:0000f506       .idata$6                   000000018003a506     VMProtectSDK64:VMProtectSDK64.dll
 0003:00000030       ?__vcrt_flsindex@@3KA      000000018003b030     libvcruntime:per_thread_data.obj
 0003:00000044       errno_no_memory            000000018003b044     libucrt:errno.obj
 0003:00000048       doserrno_no_memory         000000018003b048     libucrt:errno.obj
 0003:0000004c       __acrt_flsindex            000000018003b04c     libucrt:per_thread_data.obj
 0003:00000510       __rgctypeflag              000000018003b510     libucrt:mbctype.obj
 0003:00000520       __rgcode_page_info         000000018003b520     libucrt:mbctype.obj
 0003:000008d0       ?dazSupported@?1??common_control87@@9@9 000000018003b8d0     libucrt:ieee.obj
 0003:000008e0       ?dazSupported@?1??_ctrlfp@@9@9 000000018003b8e0     libucrt:fpctrl.obj
 0003:00000a20       ?__proc_attached@@3HA      000000018003ba20     LIBCMT:dll_dllmain.obj
 0003:00000a38       ?module_local_atexit_table@@3U_onexit_table_t@@A 000000018003ba38     LIBCMT:utility.obj
 0003:00000a50       ?module_local_at_quick_exit_table@@3U_onexit_table_t@@A 000000018003ba50     LIBCMT:utility.obj
 0003:00000a68       ?is_initialized_as_dll@@3_NA 000000018003ba68     LIBCMT:utility.obj
 0003:00000aa0       ?__vcrt_startup_thread_ptd@@3U__vcrt_ptd@@A 000000018003baa0     libvcruntime:per_thread_data.obj
 0003:00000b18       __vcrt_lock_table          000000018003bb18     libvcruntime:locks.obj
 0003:00000b40       __vcrt_locks_initialized   000000018003bb40     libvcruntime:locks.obj
 0003:00000b50       ?module_handles@@3PAPEAUHINSTANCE__@@A 000000018003bb50     libvcruntime:winapi_downlevel.obj
 0003:00000b70       ?encoded_function_pointers@@3PAPEAXA 000000018003bb70     libvcruntime:winapi_downlevel.obj
 0003:00000c08       ?heap@@3V_HeapManager@@A   000000018003bc08     libvcruntime:undname.obj
 0003:00000c30       __acrt_invalid_parameter_handler 000000018003bc30     libucrt:invalid_parameter.obj
 0003:00000c38       __acrt_new_handler         000000018003bc38     libucrt:new_handler.obj
 0003:00000c40       c_termination_complete     000000018003bc40     libucrt:exit.obj
 0003:00000c48       thread_local_exit_callback_func 000000018003bc48     libucrt:exit.obj
 0003:00000c50       ?c_exit_complete@?5??common_exit@@YAXHW4_crt_exit_cleanup_mode@@W4_crt_exit_return_mode@@@Z@4_NA 000000018003bc50     libucrt:exit.obj
 0003:00000c60       ?program_name@?5???$common_configure_argv@D@@YAHW4_crt_argv_mode@@@Z@4PADA 000000018003bc60     libucrt:argv_parsing.obj
 0003:00000dd8       enable_percent_n           000000018003bdd8     libucrt:printf_count_output.obj
 0003:00001200       __acrt_lock_table          000000018003c200     libucrt:locks.obj
 0003:00001408       __acrt_locks_initialized   000000018003c408     libucrt:locks.obj
 0003:00001410       module_handles             000000018003c410     libucrt:winapi_thunks.obj
 0003:000014b0       encoded_function_pointers  000000018003c4b0     libucrt:winapi_thunks.obj
 0003:000015b0       ?state_cache@?1??__acrt_is_packaged_app@@9@4JA 000000018003c5b0     libucrt:winapi_thunks.obj
 0003:000015cc       fSystemSet                 000000018003c5cc     libucrt:mbctype.obj
 0003:000015d8       ?initialized@?1??__acrt_initialize_multibyte@@9@4_NA 000000018003c5d8     libucrt:mbctype.obj
 0003:00001610       ctrlc_action               000000018003c610     libucrt:signal.obj
 0003:00001618       ctrlbreak_action           000000018003c618     libucrt:signal.obj
 0003:00001620       abort_action               000000018003c620     libucrt:signal.obj
 0003:00001628       term_action                000000018003c628     libucrt:signal.obj
 0003:00001630       user_matherr               000000018003c630     libucrt:matherr.obj
 0003:00001638       __acrt_global_new_mode     000000018003c638     libucrt:new_mode.obj
 0003:00001644       __acrt_app_type            000000018003c644     libucrt:report_runtime_error.obj
 0003:00001650       GS_ExceptionRecord         000000018003c650     LIBCMT:gs_report.obj
 0003:000016f0       GS_ContextRecord           000000018003c6f0     LIBCMT:gs_report.obj
 0004:00000000       $pdata$??0UnicodeString@@QEAA@XZ 000000018003d000     registry_manager.obj
 0004:0000000c       $pdata$??0UnicodeString@@QEAA@PEB_W_K@Z 000000018003d00c     registry_manager.obj
 0004:00000018       $pdata$??0UnicodeString@@QEAA@AEBV0@@Z 000000018003d018     registry_manager.obj
 0004:00000024       $pdata$?append@UnicodeString@@QEAAAEAV1@PEB_W_K@Z 000000018003d024     registry_manager.obj
 0004:00000030       $pdata$?HookedNtSetValueKey@@YAJPEAXPEAU_UNICODE_STRING@@KK0K@Z 000000018003d030     registry_manager.obj
 0004:0000003c       $pdata$?HookedNtDeleteValueKey@@YAJPEAXPEAU_UNICODE_STRING@@@Z 000000018003d03c     registry_manager.obj
 0004:00000048       $pdata$?HookedNtCreateKey@@YAJPEAPEAXKPEAU_OBJECT_ATTRIBUTES@@KPEAU_UNICODE_STRING@@KPEAK@Z 000000018003d048     registry_manager.obj
 0004:00000054       $pdata$?HookedNtQueryValueKey@@YAJPEAXPEAU_UNICODE_STRING@@W4_KEY_VALUE_INFORMATION_CLASS@@0KPEAK@Z 000000018003d054     registry_manager.obj
 0004:00000060       $pdata$?HookedNtOpenKey@@YAJPEAPEAXKPEAU_OBJECT_ATTRIBUTES@@@Z 000000018003d060     registry_manager.obj
 0004:0000006c       $pdata$?HookedNtOpenKeyEx@@YAJPEAPEAXKPEAU_OBJECT_ATTRIBUTES@@K@Z 000000018003d06c     registry_manager.obj
 0004:00000078       $pdata$?HookedNtDeleteKey@@YAJPEAX@Z 000000018003d078     registry_manager.obj
 0004:00000084       $pdata$?HookedNtQueryKey@@YAJPEAXW4_KEY_INFORMATION_CLASS@@0KPEAK@Z 000000018003d084     registry_manager.obj
 0004:00000090       $pdata$?HookedNtEnumerateValueKey@@YAJPEAXKW4_KEY_VALUE_INFORMATION_CLASS@@0KPEAK@Z 000000018003d090     registry_manager.obj
 0004:0000009c       $pdata$?HookedNtEnumerateKey@@YAJPEAXKW4_KEY_INFORMATION_CLASS@@0KPEAK@Z 000000018003d09c     registry_manager.obj
 0004:000000a8       $pdata$??0RegistryKey@@QEAA@PEAV0@PEB_W_N@Z 000000018003d0a8     registry_manager.obj
 0004:000000b4       $pdata$??1RegistryKey@@QEAA@XZ 000000018003d0b4     registry_manager.obj
 0004:000000c0       $pdata$?GetValue@RegistryKey@@QEBAPEAVRegistryValue@@PEB_W@Z 000000018003d0c0     registry_manager.obj
 0004:000000cc       $pdata$?AddValue@RegistryKey@@AEAAPEAVRegistryValue@@PEA_W@Z 000000018003d0cc     registry_manager.obj
 0004:000000d8       $pdata$?SetValue@RegistryKey@@QEAAXPEA_WIPEAXI@Z 000000018003d0d8     registry_manager.obj
 0004:000000e4       $pdata$?DeleteValue@RegistryKey@@QEAA_NPEA_W@Z 000000018003d0e4     registry_manager.obj
 0004:000000f0       $pdata$?GetChild@RegistryKey@@AEBAPEAV1@PEB_W@Z 000000018003d0f0     registry_manager.obj
 0004:000000fc       $pdata$1$?GetChild@RegistryKey@@AEBAPEAV1@PEB_W@Z 000000018003d0fc     registry_manager.obj
 0004:00000108       $pdata$3$?GetChild@RegistryKey@@AEBAPEAV1@PEB_W@Z 000000018003d108     registry_manager.obj
 0004:00000114       $pdata$4$?GetChild@RegistryKey@@AEBAPEAV1@PEB_W@Z 000000018003d114     registry_manager.obj
 0004:00000120       $pdata$?GetKey@RegistryKey@@QEBAPEAV1@PEB_W@Z 000000018003d120     registry_manager.obj
 0004:0000012c       $pdata$1$?GetKey@RegistryKey@@QEBAPEAV1@PEB_W@Z 000000018003d12c     registry_manager.obj
 0004:00000138       $pdata$3$?GetKey@RegistryKey@@QEBAPEAV1@PEB_W@Z 000000018003d138     registry_manager.obj
 0004:00000144       $pdata$4$?GetKey@RegistryKey@@QEBAPEAV1@PEB_W@Z 000000018003d144     registry_manager.obj
 0004:00000150       $pdata$5$?GetKey@RegistryKey@@QEBAPEAV1@PEB_W@Z 000000018003d150     registry_manager.obj
 0004:0000015c       $pdata$6$?GetKey@RegistryKey@@QEBAPEAV1@PEB_W@Z 000000018003d15c     registry_manager.obj
 0004:00000168       $pdata$?AddChild@RegistryKey@@AEAAPEAV1@PEB_W_NPEA_N@Z 000000018003d168     registry_manager.obj
 0004:00000174       $pdata$?AddKey@RegistryKey@@QEAAPEAV1@PEB_W_NPEA_N@Z 000000018003d174     registry_manager.obj
 0004:00000180       $pdata$?DeleteKey@RegistryKey@@QEAA_NPEAV1@@Z 000000018003d180     registry_manager.obj
 0004:0000018c       $pdata$?full_name@RegistryKey@@QEBA?AVUnicodeString@@XZ 000000018003d18c     registry_manager.obj
 0004:00000198       $pdata$??0RegistryManager@@QEAA@PEBEPEAUHINSTANCE__@@0PEAVVirtualObjectList@@@Z 000000018003d198     registry_manager.obj
 0004:000001a4       $pdata$?HookAPIs@RegistryManager@@QEAAXAEAVHookManager@@@Z 000000018003d1a4     registry_manager.obj
 0004:000001b0       $pdata$?UnhookAPIs@RegistryManager@@QEAAXAEAVHookManager@@@Z 000000018003d1b0     registry_manager.obj
 0004:000001bc       $pdata$0$?UnhookAPIs@RegistryManager@@QEAAXAEAVHookManager@@@Z 000000018003d1bc     registry_manager.obj
 0004:000001c8       $pdata$1$?UnhookAPIs@RegistryManager@@QEAAXAEAVHookManager@@@Z 000000018003d1c8     registry_manager.obj
 0004:000001d4       $pdata$?NtSetValueKey@RegistryManager@@QEAAJPEAXPEAU_UNICODE_STRING@@KK0K@Z 000000018003d1d4     registry_manager.obj
 0004:000001e0       $pdata$?NtDeleteValueKey@RegistryManager@@QEAAJPEAXPEAU_UNICODE_STRING@@@Z 000000018003d1e0     registry_manager.obj
 0004:000001ec       $pdata$?GetRootKey@RegistryManager@@AEAAPEAVRegistryKey@@PEAXPEAI_N@Z 000000018003d1ec     registry_manager.obj
 0004:000001f8       $pdata$?NtCreateKey@RegistryManager@@QEAAJPEAPEAXKPEAU_OBJECT_ATTRIBUTES@@KPEAU_UNICODE_STRING@@KPEAK@Z 000000018003d1f8     registry_manager.obj
 0004:00000204       $pdata$?NtOpenKey@RegistryManager@@QEAAJPEAPEAXKPEAU_OBJECT_ATTRIBUTES@@@Z 000000018003d204     registry_manager.obj
 0004:00000210       $pdata$?NtOpenKeyEx@RegistryManager@@QEAAJPEAPEAXKPEAU_OBJECT_ATTRIBUTES@@K@Z 000000018003d210     registry_manager.obj
 0004:0000021c       $pdata$?QueryValueKey@RegistryManager@@AEAAJPEAVRegistryValue@@W4_KEY_VALUE_INFORMATION_CLASS@@PEAXKPEAK@Z 000000018003d21c     registry_manager.obj
 0004:00000228       $pdata$0$?QueryValueKey@RegistryManager@@AEAAJPEAVRegistryValue@@W4_KEY_VALUE_INFORMATION_CLASS@@PEAXKPEAK@Z 000000018003d228     registry_manager.obj
 0004:00000234       $pdata$2$?QueryValueKey@RegistryManager@@AEAAJPEAVRegistryValue@@W4_KEY_VALUE_INFORMATION_CLASS@@PEAXKPEAK@Z 000000018003d234     registry_manager.obj
 0004:00000240       $pdata$4$?QueryValueKey@RegistryManager@@AEAAJPEAVRegistryValue@@W4_KEY_VALUE_INFORMATION_CLASS@@PEAXKPEAK@Z 000000018003d240     registry_manager.obj
 0004:0000024c       $pdata$5$?QueryValueKey@RegistryManager@@AEAAJPEAVRegistryValue@@W4_KEY_VALUE_INFORMATION_CLASS@@PEAXKPEAK@Z 000000018003d24c     registry_manager.obj
 0004:00000258       $pdata$?NtQueryValueKey@RegistryManager@@QEAAJPEAXPEAU_UNICODE_STRING@@W4_KEY_VALUE_INFORMATION_CLASS@@0KPEAK@Z 000000018003d258     registry_manager.obj
 0004:00000264       $pdata$?NtDeleteKey@RegistryManager@@QEAAJPEAX@Z 000000018003d264     registry_manager.obj
 0004:00000270       $pdata$?QueryKey@RegistryManager@@AEAAJPEAVRegistryKey@@W4_KEY_INFORMATION_CLASS@@PEAXKPEAK@Z 000000018003d270     registry_manager.obj
 0004:0000027c       $pdata$?NtQueryKey@RegistryManager@@QEAAJPEAXW4_KEY_INFORMATION_CLASS@@0KPEAK@Z 000000018003d27c     registry_manager.obj
 0004:00000288       $pdata$?NtEnumerateValueKey@RegistryManager@@QEAAJPEAXKW4_KEY_VALUE_INFORMATION_CLASS@@0KPEAK@Z 000000018003d288     registry_manager.obj
 0004:00000294       $pdata$?NtEnumerateKey@RegistryManager@@QEAAJPEAXKW4_KEY_INFORMATION_CLASS@@0KPEAK@Z 000000018003d294     registry_manager.obj
 0004:000002a0       $pdata$?push_back@?$vector@PEAVRegistryKey@@@@QEAAXAEBQEAVRegistryKey@@@Z 000000018003d2a0     registry_manager.obj
 0004:000002ac       $pdata$1$?push_back@?$vector@PEAVRegistryKey@@@@QEAAXAEBQEAVRegistryKey@@@Z 000000018003d2ac     registry_manager.obj
 0004:000002b8       $pdata$2$?push_back@?$vector@PEAVRegistryKey@@@@QEAAXAEBQEAVRegistryKey@@@Z 000000018003d2b8     registry_manager.obj
 0004:000002c4       $pdata$?ShowMessage@@YAXPEB_W@Z 000000018003d2c4     utils.obj
 0004:000002d0       $pdata$0$?ShowMessage@@YAXPEB_W@Z 000000018003d2d0     utils.obj
 0004:000002dc       $pdata$1$?ShowMessage@@YAXPEB_W@Z 000000018003d2dc     utils.obj
 0004:000002e8       $pdata$?InternalGetProcAddress@@YAPEAXPEAUHINSTANCE__@@PEBD@Z 000000018003d2e8     utils.obj
 0004:000002f4       $pdata$2$?InternalGetProcAddress@@YAPEAXPEAUHINSTANCE__@@PEBD@Z 000000018003d2f4     utils.obj
 0004:00000300       $pdata$3$?InternalGetProcAddress@@YAPEAXPEAUHINSTANCE__@@PEBD@Z 000000018003d300     utils.obj
 0004:0000030c       $pdata$?LzmaDecode@@YAHPEAU_CLzmaDecoderState@@PEBE_KPEA_KPEAE23@Z 000000018003d30c     LzmaDecode.obj
 0004:00000318       $pdata$DllMain             000000018003d318     core.obj
 0004:00000324       $pdata$?ExportedIsValidImageCRC@@YA_NXZ 000000018003d324     core.obj
 0004:00000330       $pdata$3$?ExportedIsValidImageCRC@@YA_NXZ 000000018003d330     core.obj
 0004:0000033c       $pdata$6$?ExportedIsValidImageCRC@@YA_NXZ 000000018003d33c     core.obj
 0004:00000348       $pdata$7$?ExportedIsValidImageCRC@@YA_NXZ 000000018003d348     core.obj
 0004:00000354       $pdata$8$?ExportedIsValidImageCRC@@YA_NXZ 000000018003d354     core.obj
 0004:00000360       $pdata$?ExportedIsVirtualMachinePresent@@YA_NXZ 000000018003d360     core.obj
 0004:0000036c       $pdata$?ExportedIsDebuggerPresent@@YA_N_N@Z 000000018003d36c     core.obj
 0004:00000378       $pdata$??1VirtualObjectList@@QEAA@XZ 000000018003d378     core.obj
 0004:00000384       $pdata$?Add@VirtualObjectList@@QEAAPEAVVirtualObject@@W4VirtualObjectType@@PEAX1I@Z 000000018003d384     core.obj
 0004:00000390       $pdata$?DeleteObject@VirtualObjectList@@QEAAXPEAX@Z 000000018003d390     core.obj
 0004:0000039c       $pdata$0$?DeleteObject@VirtualObjectList@@QEAAXPEAX@Z 000000018003d39c     core.obj
 0004:000003a8       $pdata$1$?DeleteObject@VirtualObjectList@@QEAAXPEAX@Z 000000018003d3a8     core.obj
 0004:000003b4       $pdata$?DeleteRef@VirtualObjectList@@QEAAXPEAX0@Z 000000018003d3b4     core.obj
 0004:000003c0       $pdata$0$?DeleteRef@VirtualObjectList@@QEAAXPEAX0@Z 000000018003d3c0     core.obj
 0004:000003cc       $pdata$1$?DeleteRef@VirtualObjectList@@QEAAXPEAX0@Z 000000018003d3cc     core.obj
 0004:000003d8       $pdata$??1Core@@QEAA@XZ    000000018003d3d8     core.obj
 0004:000003e4       $pdata$??_GFileManager@@QEAAPEAXI@Z 000000018003d3e4     core.obj
 0004:000003f0       $pdata$?Instance@Core@@SAPEAV1@XZ 000000018003d3f0     core.obj
 0004:000003fc       $pdata$1$?Instance@Core@@SAPEAV1@XZ 000000018003d3fc     core.obj
 0004:00000408       $pdata$2$?Instance@Core@@SAPEAV1@XZ 000000018003d408     core.obj
 0004:00000414       $pdata$?Init@Core@@QEAA_NPEAUHINSTANCE__@@@Z 000000018003d414     core.obj
 0004:00000420       $pdata$?hardware_id@Core@@QEAAPEAVHardwareID@@XZ 000000018003d420     core.obj
 0004:0000042c       $pdata$?HookedNtProtectVirtualMemory@@YAJPEAXPEAPEAXPEA_KKPEAK@Z 000000018003d42c     core.obj
 0004:00000438       $pdata$?HookedDbgUiRemoteBreakin@@YAXXZ 000000018003d438     core.obj
 0004:00000444       $pdata$?HookedNtClose@@YAJPEAX@Z 000000018003d444     core.obj
 0004:00000450       $pdata$?HookedNtQueryObject@@YAJPEAXW4_OBJECT_INFORMATION_CLASS@@0KPEAK@Z 000000018003d450     core.obj
 0004:0000045c       $pdata$?HookAPIs@Core@@AEAAXAEAVHookManager@@I@Z 000000018003d45c     core.obj
 0004:00000468       $pdata$1$?HookAPIs@Core@@AEAAXAEAVHookManager@@I@Z 000000018003d468     core.obj
 0004:00000474       $pdata$2$?HookAPIs@Core@@AEAAXAEAVHookManager@@I@Z 000000018003d474     core.obj
 0004:00000480       $pdata$?UnhookAPIs@Core@@AEAAXAEAVHookManager@@@Z 000000018003d480     core.obj
 0004:0000048c       $pdata$0$?UnhookAPIs@Core@@AEAAXAEAVHookManager@@@Z 000000018003d48c     core.obj
 0004:00000498       $pdata$1$?UnhookAPIs@Core@@AEAAXAEAVHookManager@@@Z 000000018003d498     core.obj
 0004:000004a4       $pdata$?NtProtectVirtualMemory@Core@@QEAAJPEAXPEAPEAXPEA_KKPEAK@Z 000000018003d4a4     core.obj
 0004:000004b0       $pdata$?NtQueryObject@Core@@QEAAJPEAXW4_OBJECT_INFORMATION_CLASS@@0KPEAK@Z 000000018003d4b0     core.obj
 0004:000004bc       $pdata$??1?$vector@VUnicodeString@@@@QEAA@XZ 000000018003d4bc     core.obj
 0004:000004c8       $pdata$??0CipherRC5@@QEAA@AEBURC5Key@@@Z 000000018003d4c8     crypto.obj
 0004:000004d4       $pdata$??0BigNumber@@QEAA@PEBE_K_N@Z 000000018003d4d4     crypto.obj
 0004:000004e0       $pdata$?init@BigNumber@@AEAAX_K@Z 000000018003d4e0     crypto.obj
 0004:000004ec       $pdata$?internal_mul@BigNumber@@AEBAXPEAG00H@Z 000000018003d4ec     crypto.obj
 0004:000004f8       $pdata$3$?internal_mul@BigNumber@@AEBAXPEAG00H@Z 000000018003d4f8     crypto.obj
 0004:00000504       $pdata$4$?internal_mul@BigNumber@@AEBAXPEAG00H@Z 000000018003d504     crypto.obj
 0004:00000510       $pdata$?internal_mod@BigNumber@@AEBAXPEAGH0H0H@Z 000000018003d510     crypto.obj
 0004:0000051c       $pdata$2$?internal_mod@BigNumber@@AEBAXPEAGH0H0H@Z 000000018003d51c     crypto.obj
 0004:00000528       $pdata$3$?internal_mod@BigNumber@@AEBAXPEAGH0H0H@Z 000000018003d528     crypto.obj
 0004:00000534       $pdata$?modpow@BigNumber@@QEBAPEAVCryptoContainer@@AEBV2@_K111@Z 000000018003d534     crypto.obj
 0004:00000540       $pdata$?bignum_byte@BigNumber@@AEBAEPEAG_K@Z 000000018003d540     crypto.obj
 0004:0000054c       $pdata$?EncryptValue@CryptoContainer@@AEBA_N_KPEAE0@Z 000000018003d54c     crypto.obj
 0004:00000558       $pdata$4$?EncryptValue@CryptoContainer@@AEBA_N_KPEAE0@Z 000000018003d558     crypto.obj
 0004:00000564       $pdata$5$?EncryptValue@CryptoContainer@@AEBA_N_KPEAE0@Z 000000018003d564     crypto.obj
 0004:00000570       $pdata$?DecryptValue@CryptoContainer@@AEBA_N_KPEAE0@Z 000000018003d570     crypto.obj
 0004:0000057c       $pdata$4$?DecryptValue@CryptoContainer@@AEBA_N_KPEAE0@Z 000000018003d57c     crypto.obj
 0004:00000588       $pdata$5$?DecryptValue@CryptoContainer@@AEBA_N_KPEAE0@Z 000000018003d588     crypto.obj
 0004:00000594       $pdata$?UTF8ToUnicode@CryptoContainer@@QEBAX_K0PEA_W0@Z 000000018003d594     crypto.obj
 0004:000005a0       $pdata$2$?UTF8ToUnicode@CryptoContainer@@QEBAX_K0PEA_W0@Z 000000018003d5a0     crypto.obj
 0004:000005ac       $pdata$4$?UTF8ToUnicode@CryptoContainer@@QEBAX_K0PEA_W0@Z 000000018003d5ac     crypto.obj
 0004:000005b8       $pdata$5$?UTF8ToUnicode@CryptoContainer@@QEBAX_K0PEA_W0@Z 000000018003d5b8     crypto.obj
 0004:000005c4       $pdata$6$?UTF8ToUnicode@CryptoContainer@@QEBAX_K0PEA_W0@Z 000000018003d5c4     crypto.obj
 0004:000005d0       $pdata$?Base64Encode@@YA_NPEBE_KPEADAEA_K@Z 000000018003d5d0     crypto.obj
 0004:000005dc       $pdata$0$?Base64Encode@@YA_NPEBE_KPEADAEA_K@Z 000000018003d5dc     crypto.obj
 0004:000005e8       $pdata$2$?Base64Encode@@YA_NPEBE_KPEADAEA_K@Z 000000018003d5e8     crypto.obj
 0004:000005f4       $pdata$3$?Base64Encode@@YA_NPEBE_KPEADAEA_K@Z 000000018003d5f4     crypto.obj
 0004:00000600       $pdata$?Base64Decode@@YA_NPEBD_KPEAEAEA_K@Z 000000018003d600     crypto.obj
 0004:0000060c       $pdata$0$?Base64Decode@@YA_NPEBD_KPEAEAEA_K@Z 000000018003d60c     crypto.obj
 0004:00000618       $pdata$2$?Base64Decode@@YA_NPEBD_KPEAEAEA_K@Z 000000018003d618     crypto.obj
 0004:00000624       $pdata$3$?Base64Decode@@YA_NPEBD_KPEAEAEA_K@Z 000000018003d624     crypto.obj
 0004:00000630       $pdata$?Input@SHA1@@QEAAXPEBE_K@Z 000000018003d630     crypto.obj
 0004:0000063c       $pdata$0$?Input@SHA1@@QEAAXPEBE_K@Z 000000018003d63c     crypto.obj
 0004:00000648       $pdata$1$?Input@SHA1@@QEAAXPEBE_K@Z 000000018003d648     crypto.obj
 0004:00000654       $pdata$?Input@SHA1@@QEAAXAEBVCryptoContainer@@_K1@Z 000000018003d654     crypto.obj
 0004:00000660       $pdata$0$?Input@SHA1@@QEAAXAEBVCryptoContainer@@_K1@Z 000000018003d660     crypto.obj
 0004:0000066c       $pdata$1$?Input@SHA1@@QEAAXAEBVCryptoContainer@@_K1@Z 000000018003d66c     crypto.obj
 0004:00000678       $pdata$?ProcessMessageBlock@SHA1@@AEAAXXZ 000000018003d678     crypto.obj
 0004:00000684       $pdata$?Result@SHA1@@QEAAPEBEXZ 000000018003d684     crypto.obj
 0004:00000690       $pdata$?CalcCRC@@YAIPEBX_K@Z 000000018003d690     crypto.obj
 0004:0000069c       $pdata$0$?CalcCRC@@YAIPEBX_K@Z 000000018003d69c     crypto.obj
 0004:000006a8       $pdata$1$?CalcCRC@@YAIPEBX_K@Z 000000018003d6a8     crypto.obj
 0004:000006b4       $pdata$?HookAPI@HookManager@@QEAAPEAXPEAUHINSTANCE__@@PEBDPEAX_NPEAPEAX@Z 000000018003d6b4     hook_manager.obj
 0004:000006c0       $pdata$?UnhookAPI@HookManager@@QEAA_NPEAX@Z 000000018003d6c0     hook_manager.obj
 0004:000006cc       $pdata$?GetThreads@HookManager@@AEAAXXZ 000000018003d6cc     hook_manager.obj
 0004:000006d8       $pdata$5$?GetThreads@HookManager@@AEAAXXZ 000000018003d6d8     hook_manager.obj
 0004:000006e4       $pdata$6$?GetThreads@HookManager@@AEAAXXZ 000000018003d6e4     hook_manager.obj
 0004:000006f0       $pdata$?End@HookManager@@QEAAXXZ 000000018003d6f0     hook_manager.obj
 0004:000006fc       $pdata$0$?End@HookManager@@QEAAXXZ 000000018003d6fc     hook_manager.obj
 0004:00000708       $pdata$1$?End@HookManager@@QEAAXXZ 000000018003d708     hook_manager.obj
 0004:00000714       $pdata$?GetInstructionSize@@YA_NPEBEAEAUsCommandInfo@@@Z 000000018003d714     hook_manager.obj
 0004:00000720       $pdata$1$?GetInstructionSize@@YA_NPEBEAEAUsCommandInfo@@@Z 000000018003d720     hook_manager.obj
 0004:0000072c       $pdata$3$?GetInstructionSize@@YA_NPEBEAEAUsCommandInfo@@@Z 000000018003d72c     hook_manager.obj
 0004:00000738       $pdata$?Hook@HookedAPI@@QEAA_NPEAX0PEAPEAX@Z 000000018003d738     hook_manager.obj
 0004:00000744       $pdata$?Unhook@HookedAPI@@QEAAXXZ 000000018003d744     hook_manager.obj
 0004:00000750       $pdata$2$?Unhook@HookedAPI@@QEAAXXZ 000000018003d750     hook_manager.obj
 0004:0000075c       $pdata$3$?Unhook@HookedAPI@@QEAAXXZ 000000018003d75c     hook_manager.obj
 0004:00000768       $pdata$4$?Unhook@HookedAPI@@QEAAXXZ 000000018003d768     hook_manager.obj
 0004:00000774       $pdata$5$?Unhook@HookedAPI@@QEAAXXZ 000000018003d774     hook_manager.obj
 0004:00000780       $pdata$??$swprintf_s@$0CAA@@@YAHAEAY0CAA@_WPEB_WZZ 000000018003d780     hook_manager.obj
 0004:0000078c       $pdata$??$swprintf_s@$0GE@@@YAHAEAY0GE@_WPEB_WZZ 000000018003d78c     hook_manager.obj
 0004:00000798       $pdata$?ExportedGetCurrentHWID@@YAHPEADH@Z 000000018003d798     hwid.obj
 0004:000007a4       $pdata$??0HardwareID@@QEAA@XZ 000000018003d7a4     hwid.obj
 0004:000007b0       $pdata$?AddBlock@HardwareID@@AEAAXPEBX_KW4BlockType@1@@Z 000000018003d7b0     hwid.obj
 0004:000007bc       $pdata$0$?AddBlock@HardwareID@@AEAAXPEBX_KW4BlockType@1@@Z 000000018003d7bc     hwid.obj
 0004:000007c8       $pdata$1$?AddBlock@HardwareID@@AEAAXPEBX_KW4BlockType@1@@Z 000000018003d7c8     hwid.obj
 0004:000007d4       $pdata$?GetCPU@HardwareID@@AEAAXE@Z 000000018003d7d4     hwid.obj
 0004:000007e0       $pdata$3$?GetCPU@HardwareID@@AEAAXE@Z 000000018003d7e0     hwid.obj
 0004:000007ec       $pdata$4$?GetCPU@HardwareID@@AEAAXE@Z 000000018003d7ec     hwid.obj
 0004:000007f8       $pdata$?GetMachineName@HardwareID@@AEAAXXZ 000000018003d7f8     hwid.obj
 0004:00000804       $pdata$?GetMacAddresses@HardwareID@@AEAAXXZ 000000018003d804     hwid.obj
 0004:00000810       $pdata$0$?GetMacAddresses@HardwareID@@AEAAXXZ 000000018003d810     hwid.obj
 0004:0000081c       $pdata$1$?GetMacAddresses@HardwareID@@AEAAXXZ 000000018003d81c     hwid.obj
 0004:00000828       $pdata$3$?GetMacAddresses@HardwareID@@AEAAXXZ 000000018003d828     hwid.obj
 0004:00000834       $pdata$4$?GetMacAddresses@HardwareID@@AEAAXXZ 000000018003d834     hwid.obj
 0004:00000840       $pdata$5$?GetMacAddresses@HardwareID@@AEAAXXZ 000000018003d840     hwid.obj
 0004:0000084c       $pdata$6$?GetMacAddresses@HardwareID@@AEAAXXZ 000000018003d84c     hwid.obj
 0004:00000858       $pdata$7$?GetMacAddresses@HardwareID@@AEAAXXZ 000000018003d858     hwid.obj
 0004:00000864       $pdata$8$?GetMacAddresses@HardwareID@@AEAAXXZ 000000018003d864     hwid.obj
 0004:00000870       $pdata$?GetHDD@HardwareID@@AEAAXXZ 000000018003d870     hwid.obj
 0004:0000087c       $pdata$1$?GetHDD@HardwareID@@AEAAXXZ 000000018003d87c     hwid.obj
 0004:00000888       $pdata$2$?GetHDD@HardwareID@@AEAAXXZ 000000018003d888     hwid.obj
 0004:00000894       $pdata$?GetCurrent@HardwareID@@QEAAHPEADH@Z 000000018003d894     hwid.obj
 0004:000008a0       $pdata$?IsCorrect@HardwareID@@QEBA_NPEAE_K@Z 000000018003d8a0     hwid.obj
 0004:000008ac       $pdata$0$?IsCorrect@HardwareID@@QEBA_NPEAE_K@Z 000000018003d8ac     hwid.obj
 0004:000008b8       $pdata$1$?IsCorrect@HardwareID@@QEBA_NPEAE_K@Z 000000018003d8b8     hwid.obj
 0004:000008c4       $pdata$2$?IsCorrect@HardwareID@@QEBA_NPEAE_K@Z 000000018003d8c4     hwid.obj
 0004:000008d0       $pdata$4$?IsCorrect@HardwareID@@QEBA_NPEAE_K@Z 000000018003d8d0     hwid.obj
 0004:000008dc       $pdata$5$?IsCorrect@HardwareID@@QEBA_NPEAE_K@Z 000000018003d8dc     hwid.obj
 0004:000008e8       $pdata$?IsCorrect@HardwareID@@QEBA_NAEAVCryptoContainer@@_K1@Z 000000018003d8e8     hwid.obj
 0004:000008f4       $pdata$1$?IsCorrect@HardwareID@@QEBA_NAEAVCryptoContainer@@_K1@Z 000000018003d8f4     hwid.obj
 0004:00000900       $pdata$2$?IsCorrect@HardwareID@@QEBA_NAEAVCryptoContainer@@_K1@Z 000000018003d900     hwid.obj
 0004:0000090c       $pdata$?ExportedSetSerialNumber@@YAHPEBD@Z 000000018003d90c     licensing_manager.obj
 0004:00000918       $pdata$?ExportedGetSerialNumberState@@YAHXZ 000000018003d918     licensing_manager.obj
 0004:00000924       $pdata$?ExportedGetSerialNumberData@@YA_NPEAUVMProtectSerialNumberData@@H@Z 000000018003d924     licensing_manager.obj
 0004:00000930       $pdata$?ExportedActivateLicense@@YAHPEBDPEADH@Z 000000018003d930     licensing_manager.obj
 0004:0000093c       $pdata$?ExportedDeactivateLicense@@YAHPEBD@Z 000000018003d93c     licensing_manager.obj
 0004:00000948       $pdata$?ExportedGetOfflineActivationString@@YAHPEBDPEADH@Z 000000018003d948     licensing_manager.obj
 0004:00000954       $pdata$?ExportedGetOfflineDeactivationString@@YAHPEBDPEADH@Z 000000018003d954     licensing_manager.obj
 0004:00000960       $pdata$?ExportedDecryptBuffer@@YAXPEAE@Z 000000018003d960     licensing_manager.obj
 0004:0000096c       $pdata$??0LicensingManager@@QEAA@PEAEI0@Z 000000018003d96c     licensing_manager.obj
 0004:00000978       $pdata$??1LicensingManager@@QEAA@XZ 000000018003d978     licensing_manager.obj
 0004:00000984       $pdata$?save_state@LicensingManager@@AEAAHH@Z 000000018003d984     licensing_manager.obj
 0004:00000990       $pdata$?CheckLicenseDataCRC@LicensingManager@@AEBA_NXZ 000000018003d990     licensing_manager.obj
 0004:0000099c       $pdata$0$?CheckLicenseDataCRC@LicensingManager@@AEBA_NXZ 000000018003d99c     licensing_manager.obj
 0004:000009a8       $pdata$1$?CheckLicenseDataCRC@LicensingManager@@AEBA_NXZ 000000018003d9a8     licensing_manager.obj
 0004:000009b4       $pdata$2$?CheckLicenseDataCRC@LicensingManager@@AEBA_NXZ 000000018003d9b4     licensing_manager.obj
 0004:000009c0       $pdata$?SetSerialNumber@LicensingManager@@QEAAHPEBD@Z 000000018003d9c0     licensing_manager.obj
 0004:000009cc       $pdata$?GetCurrentDate@LicensingManager@@SAIXZ 000000018003d9cc     licensing_manager.obj
 0004:000009d8       $pdata$?ParseSerial@LicensingManager@@AEAAHPEAUVMProtectSerialNumberData@@@Z 000000018003d9d8     licensing_manager.obj
 0004:000009e4       $pdata$4$?ParseSerial@LicensingManager@@AEAAHPEAUVMProtectSerialNumberData@@@Z 000000018003d9e4     licensing_manager.obj
 0004:000009f0       $pdata$5$?ParseSerial@LicensingManager@@AEAAHPEAUVMProtectSerialNumberData@@@Z 000000018003d9f0     licensing_manager.obj
 0004:000009fc       $pdata$?GetSerialNumberData@LicensingManager@@QEAA_NPEAUVMProtectSerialNumberData@@H@Z 000000018003d9fc     licensing_manager.obj
 0004:00000a08       $pdata$?ActivateLicense@LicensingManager@@QEBAHPEBDPEADH@Z 000000018003da08     licensing_manager.obj
 0004:00000a14       $pdata$?DeactivateLicense@LicensingManager@@QEBAHPEBD@Z 000000018003da14     licensing_manager.obj
 0004:00000a20       $pdata$??_GDeactivationRequest@@UEAAPEAXI@Z 000000018003da20     licensing_manager.obj
 0004:00000a2c       $pdata$?GetOfflineActivationString@LicensingManager@@QEBAHPEBDPEADH@Z 000000018003da2c     licensing_manager.obj
 0004:00000a38       $pdata$?GetOfflineDeactivationString@LicensingManager@@QEBAHPEBDPEADH@Z 000000018003da38     licensing_manager.obj
 0004:00000a44       $pdata$?DecryptBuffer@LicensingManager@@QEAAXPEAE@Z 000000018003da44     licensing_manager.obj
 0004:00000a50       $pdata$??_GBaseRequest@@UEAAPEAXI@Z 000000018003da50     licensing_manager.obj
 0004:00000a5c       $pdata$?BuildUrl@BaseRequest@@IEAA_NAEBVCryptoContainer@@@Z 000000018003da5c     licensing_manager.obj
 0004:00000a68       $pdata$1$?BuildUrl@BaseRequest@@IEAA_NAEBVCryptoContainer@@@Z 000000018003da68     licensing_manager.obj
 0004:00000a74       $pdata$2$?BuildUrl@BaseRequest@@IEAA_NAEBVCryptoContainer@@@Z 000000018003da74     licensing_manager.obj
 0004:00000a80       $pdata$?Send@BaseRequest@@QEAA_NXZ 000000018003da80     licensing_manager.obj
 0004:00000a8c       $pdata$?AppendUrlParam@BaseRequest@@IEAAXPEBD0@Z 000000018003da8c     licensing_manager.obj
 0004:00000a98       $pdata$1$?AppendUrlParam@BaseRequest@@IEAAXPEBD0@Z 000000018003da98     licensing_manager.obj
 0004:00000aa4       $pdata$2$?AppendUrlParam@BaseRequest@@IEAAXPEBD0@Z 000000018003daa4     licensing_manager.obj
 0004:00000ab0       $pdata$??_GActivationRequest@@UEAAPEAXI@Z 000000018003dab0     licensing_manager.obj
 0004:00000abc       $pdata$?BuildUrl@ActivationRequest@@AEAA_NAEBVCryptoContainer@@PEBD_N@Z 000000018003dabc     licensing_manager.obj
 0004:00000ac8       $pdata$?Process@ActivationRequest@@QEAAHAEBVCryptoContainer@@PEBD_N@Z 000000018003dac8     licensing_manager.obj
 0004:00000ad4       $pdata$?BuildUrl@DeactivationRequest@@AEAA_NAEBVCryptoContainer@@PEBD_N@Z 000000018003dad4     licensing_manager.obj
 0004:00000ae0       $pdata$2$?BuildUrl@DeactivationRequest@@AEAA_NAEBVCryptoContainer@@PEBD_N@Z 000000018003dae0     licensing_manager.obj
 0004:00000aec       $pdata$3$?BuildUrl@DeactivationRequest@@AEAA_NAEBVCryptoContainer@@PEBD_N@Z 000000018003daec     licensing_manager.obj
 0004:00000af8       $pdata$?Process@DeactivationRequest@@QEAAHAEBVCryptoContainer@@PEBD_N@Z 000000018003daf8     licensing_manager.obj
 0004:00000b04       $pdata$?reserve@?$basic_string@_WU?$char_traits@_W@std@@V?$allocator@_W@2@@std@@QEAAX_K@Z 000000018003db04     licensing_manager.obj
 0004:00000b10       $pdata$??$_Construct@PEAD@?$basic_string@_WU?$char_traits@_W@std@@V?$allocator@_W@2@@std@@QEAAXPEAD0Uinput_iterator_tag@1@@Z 000000018003db10     licensing_manager.obj
 0004:00000b1c       $pdata$?allocate@?$_Wrap_alloc@V?$allocator@_W@std@@@std@@QEAAPEA_W_K@Z 000000018003db1c     licensing_manager.obj
 0004:00000b28       $pdata$?_Copy@?$basic_string@_WU?$char_traits@_W@std@@V?$allocator@_W@2@@std@@QEAAX_K0@Z 000000018003db28     licensing_manager.obj
 0004:00000b34       $pdata$?_Tidy@?$basic_string@_WU?$char_traits@_W@std@@V?$allocator@_W@2@@std@@QEAAX_N_K@Z 000000018003db34     licensing_manager.obj
 0004:00000b40       $pdata$??1?$basic_string@_WU?$char_traits@_W@std@@V?$allocator@_W@2@@std@@QEAA@XZ 000000018003db40     licensing_manager.obj
 0004:00000b4c       $pdata$?LoaderLoadLibraryEnc@@YAPEAUHINSTANCE__@@PEBD@Z 000000018003db4c     loader.obj
 0004:00000b58       $pdata$?LoaderGetProcAddress@@YAPEAXPEAUHINSTANCE__@@PEBD_N@Z 000000018003db58     loader.obj
 0004:00000b64       $pdata$?LoaderGetModuleHandleEnc@@YAPEAUHINSTANCE__@@PEBD@Z 000000018003db64     loader.obj
 0004:00000b70       $pdata$?LoaderMessage@@YAXW4MessageType@@PEBX1@Z 000000018003db70     loader.obj
 0004:00000b7c       $pdata$0$?LoaderMessage@@YAXW4MessageType@@PEBX1@Z 000000018003db7c     loader.obj
 0004:00000b88       $pdata$2$?LoaderMessage@@YAXW4MessageType@@PEBX1@Z 000000018003db88     loader.obj
 0004:00000b94       $pdata$3$?LoaderMessage@@YAXW4MessageType@@PEBX1@Z 000000018003db94     loader.obj
 0004:00000ba0       $pdata$4$?LoaderMessage@@YAXW4MessageType@@PEBX1@Z 000000018003dba0     loader.obj
 0004:00000bac       $pdata$5$?LoaderMessage@@YAXW4MessageType@@PEBX1@Z 000000018003dbac     loader.obj
 0004:00000bb8       $pdata$?FreeImage@@YAXXZ   000000018003dbb8     loader.obj
 0004:00000bc4       $pdata$0$?FreeImage@@YAXXZ 000000018003dbc4     loader.obj
 0004:00000bd0       $pdata$1$?FreeImage@@YAXXZ 000000018003dbd0     loader.obj
 0004:00000bdc       $pdata$?LoaderProcessFixups@@YAX_JIIPEAE1@Z 000000018003dbdc     loader.obj
 0004:00000be8       $pdata$1$?LoaderProcessFixups@@YAX_JIIPEAE1@Z 000000018003dbe8     loader.obj
 0004:00000bf4       $pdata$2$?LoaderProcessFixups@@YAX_JIIPEAE1@Z 000000018003dbf4     loader.obj
 0004:00000c00       $pdata$?SetupImage@@YAIXZ  000000018003dc00     loader.obj
 0004:00000c0c       $pdata$?ExportedLoadResource@@YAPEAXPEAUHINSTANCE__@@PEAUHRSRC__@@@Z 000000018003dc0c     resource_manager.obj
 0004:00000c18       $pdata$?ExportedFindResourceA@@YAPEAUHRSRC__@@PEAUHINSTANCE__@@PEBD1@Z 000000018003dc18     resource_manager.obj
 0004:00000c24       $pdata$?ExportedFindResourceExA@@YAPEAUHRSRC__@@PEAUHINSTANCE__@@PEBD1G@Z 000000018003dc24     resource_manager.obj
 0004:00000c30       $pdata$?ExportedFindResourceW@@YAPEAUHRSRC__@@PEAUHINSTANCE__@@PEB_W1@Z 000000018003dc30     resource_manager.obj
 0004:00000c3c       $pdata$?ExportedFindResourceExW@@YAPEAUHRSRC__@@PEAUHINSTANCE__@@PEB_W1G@Z 000000018003dc3c     resource_manager.obj
 0004:00000c48       $pdata$?ExportedLoadStringA@@YAHPEAUHINSTANCE__@@IPEADH@Z 000000018003dc48     resource_manager.obj
 0004:00000c54       $pdata$?ExportedLoadStringW@@YAHPEAUHINSTANCE__@@IPEA_WH@Z 000000018003dc54     resource_manager.obj
 0004:00000c60       $pdata$?ExportedEnumResourceNamesA@@YAHPEAUHINSTANCE__@@PEBDP6AH01PEAD_J@Z3@Z 000000018003dc60     resource_manager.obj
 0004:00000c6c       $pdata$?ExportedEnumResourceNamesW@@YAHPEAUHINSTANCE__@@PEB_WP6AH01PEA_W_J@Z3@Z 000000018003dc6c     resource_manager.obj
 0004:00000c78       $pdata$?ExportedEnumResourceLanguagesA@@YAHPEAUHINSTANCE__@@PEBD1P6AH011G_J@Z2@Z 000000018003dc78     resource_manager.obj
 0004:00000c84       $pdata$?ExportedEnumResourceLanguagesW@@YAHPEAUHINSTANCE__@@PEB_W1P6AH011G_J@Z2@Z 000000018003dc84     resource_manager.obj
 0004:00000c90       $pdata$?ExportedEnumResourceTypesA@@YAHPEAUHINSTANCE__@@P6AH0PEAD_J@Z2@Z 000000018003dc90     resource_manager.obj
 0004:00000c9c       $pdata$?ExportedEnumResourceTypesW@@YAHPEAUHINSTANCE__@@P6AH0PEA_W_J@Z2@Z 000000018003dc9c     resource_manager.obj
 0004:00000ca8       $pdata$?HookedLoadStringA@@YAHPEAUHINSTANCE__@@IPEADH@Z 000000018003dca8     resource_manager.obj
 0004:00000cb4       $pdata$?HookedLoadStringW@@YAHPEAUHINSTANCE__@@IPEA_WH@Z 000000018003dcb4     resource_manager.obj
 0004:00000cc0       $pdata$?HookedLdrFindResource_U@@YAJPEAUHINSTANCE__@@PEBULDR_RESOURCE_INFO@@KPEAPEBU_IMAGE_RESOURCE_DATA_ENTRY@@@Z 000000018003dcc0     resource_manager.obj
 0004:00000ccc       $pdata$?HookedLdrAccessResource@@YAJPEAUHINSTANCE__@@PEBU_IMAGE_RESOURCE_DATA_ENTRY@@PEAPEAXPEAK@Z 000000018003dccc     resource_manager.obj
 0004:00000cd8       $pdata$??0ResourceManager@@QEAA@PEBEPEAUHINSTANCE__@@0@Z 000000018003dcd8     resource_manager.obj
 0004:00000ce4       $pdata$?HookAPIs@ResourceManager@@QEAAXAEAVHookManager@@@Z 000000018003dce4     resource_manager.obj
 0004:00000cf0       $pdata$?UnhookAPIs@ResourceManager@@QEAAXAEAVHookManager@@@Z 000000018003dcf0     resource_manager.obj
 0004:00000cfc       $pdata$0$?UnhookAPIs@ResourceManager@@QEAAXAEAVHookManager@@@Z 000000018003dcfc     resource_manager.obj
 0004:00000d08       $pdata$1$?UnhookAPIs@ResourceManager@@QEAAXAEAVHookManager@@@Z 000000018003dd08     resource_manager.obj
 0004:00000d14       $pdata$?InternalLoadResource@ResourceManager@@AEAAPEAXPEAUHINSTANCE__@@PEAUHRSRC__@@@Z 000000018003dd14     resource_manager.obj
 0004:00000d20       $pdata$?InternalFindResourceExW@ResourceManager@@AEAAPEAUHRSRC__@@PEAUHINSTANCE__@@PEB_W1G@Z 000000018003dd20     resource_manager.obj
 0004:00000d2c       $pdata$?CreateResourceName@@YAHPEB_WAEAPEA_W@Z 000000018003dd2c     resource_manager.obj
 0004:00000d38       $pdata$?CreateResourceName@@YAHPEBDAEAPEA_W@Z 000000018003dd38     resource_manager.obj
 0004:00000d44       $pdata$?FindResourceExW@ResourceManager@@QEAAPEAUHRSRC__@@PEAUHINSTANCE__@@PEB_W1G@Z 000000018003dd44     resource_manager.obj
 0004:00000d50       $pdata$1$?FindResourceExW@ResourceManager@@QEAAPEAUHRSRC__@@PEAUHINSTANCE__@@PEB_W1G@Z 000000018003dd50     resource_manager.obj
 0004:00000d5c       $pdata$2$?FindResourceExW@ResourceManager@@QEAAPEAUHRSRC__@@PEAUHINSTANCE__@@PEB_W1G@Z 000000018003dd5c     resource_manager.obj
 0004:00000d68       $pdata$?FindResourceExA@ResourceManager@@QEAAPEAUHRSRC__@@PEAUHINSTANCE__@@PEBD1G@Z 000000018003dd68     resource_manager.obj
 0004:00000d74       $pdata$1$?FindResourceExA@ResourceManager@@QEAAPEAUHRSRC__@@PEAUHINSTANCE__@@PEBD1G@Z 000000018003dd74     resource_manager.obj
 0004:00000d80       $pdata$2$?FindResourceExA@ResourceManager@@QEAAPEAUHRSRC__@@PEAUHINSTANCE__@@PEBD1G@Z 000000018003dd80     resource_manager.obj
 0004:00000d8c       $pdata$?FindEntryById@ResourceManager@@AEAAPEBURESOURCE_DIRECTORY@@PEBU2@GK@Z 000000018003dd8c     resource_manager.obj
 0004:00000d98       $pdata$?DecryptStringW@ResourceManager@@AEBAPEA_WPEB_W@Z 000000018003dd98     resource_manager.obj
 0004:00000da4       $pdata$?FindEntryByName@ResourceManager@@AEAAPEBURESOURCE_DIRECTORY@@PEBU2@PEB_WK@Z 000000018003dda4     resource_manager.obj
 0004:00000db0       $pdata$?FindResourceEntry@ResourceManager@@AEAAPEBURESOURCE_DIRECTORY@@PEB_W0G@Z 000000018003ddb0     resource_manager.obj
 0004:00000dbc       $pdata$?InternalFindStringResource@ResourceManager@@AEAAPEA_WPEAUHINSTANCE__@@I@Z 000000018003ddbc     resource_manager.obj
 0004:00000dc8       $pdata$?InternalLoadStringW@ResourceManager@@AEAAHPEB_WPEA_WH@Z 000000018003ddc8     resource_manager.obj
 0004:00000dd4       $pdata$1$?InternalLoadStringW@ResourceManager@@AEAAHPEB_WPEA_WH@Z 000000018003ddd4     resource_manager.obj
 0004:00000de0       $pdata$3$?InternalLoadStringW@ResourceManager@@AEAAHPEB_WPEA_WH@Z 000000018003dde0     resource_manager.obj
 0004:00000dec       $pdata$4$?InternalLoadStringW@ResourceManager@@AEAAHPEB_WPEA_WH@Z 000000018003ddec     resource_manager.obj
 0004:00000df8       $pdata$?InternalLoadStringA@ResourceManager@@AEAAHPEB_WPEADH@Z 000000018003ddf8     resource_manager.obj
 0004:00000e04       $pdata$2$?InternalLoadStringA@ResourceManager@@AEAAHPEB_WPEADH@Z 000000018003de04     resource_manager.obj
 0004:00000e10       $pdata$3$?InternalLoadStringA@ResourceManager@@AEAAHPEB_WPEADH@Z 000000018003de10     resource_manager.obj
 0004:00000e1c       $pdata$4$?InternalLoadStringA@ResourceManager@@AEAAHPEB_WPEADH@Z 000000018003de1c     resource_manager.obj
 0004:00000e28       $pdata$6$?InternalLoadStringA@ResourceManager@@AEAAHPEB_WPEADH@Z 000000018003de28     resource_manager.obj
 0004:00000e34       $pdata$7$?InternalLoadStringA@ResourceManager@@AEAAHPEB_WPEADH@Z 000000018003de34     resource_manager.obj
 0004:00000e40       $pdata$?EnumResourceNamesA@ResourceManager@@QEAAHPEAUHINSTANCE__@@PEBDP6AH01PEAD_J@Z3@Z 000000018003de40     resource_manager.obj
 0004:00000e4c       $pdata$2$?EnumResourceNamesA@ResourceManager@@QEAAHPEAUHINSTANCE__@@PEBDP6AH01PEAD_J@Z3@Z 000000018003de4c     resource_manager.obj
 0004:00000e58       $pdata$3$?EnumResourceNamesA@ResourceManager@@QEAAHPEAUHINSTANCE__@@PEBDP6AH01PEAD_J@Z3@Z 000000018003de58     resource_manager.obj
 0004:00000e64       $pdata$4$?EnumResourceNamesA@ResourceManager@@QEAAHPEAUHINSTANCE__@@PEBDP6AH01PEAD_J@Z3@Z 000000018003de64     resource_manager.obj
 0004:00000e70       $pdata$5$?EnumResourceNamesA@ResourceManager@@QEAAHPEAUHINSTANCE__@@PEBDP6AH01PEAD_J@Z3@Z 000000018003de70     resource_manager.obj
 0004:00000e7c       $pdata$?EnumResourceNamesW@ResourceManager@@QEAAHPEAUHINSTANCE__@@PEB_WP6AH01PEA_W_J@Z3@Z 000000018003de7c     resource_manager.obj
 0004:00000e88       $pdata$3$?EnumResourceNamesW@ResourceManager@@QEAAHPEAUHINSTANCE__@@PEB_WP6AH01PEA_W_J@Z3@Z 000000018003de88     resource_manager.obj
 0004:00000e94       $pdata$4$?EnumResourceNamesW@ResourceManager@@QEAAHPEAUHINSTANCE__@@PEB_WP6AH01PEA_W_J@Z3@Z 000000018003de94     resource_manager.obj
 0004:00000ea0       $pdata$?EnumResourceLanguagesA@ResourceManager@@QEAAHPEAUHINSTANCE__@@PEBD1P6AH011G_J@Z2@Z 000000018003dea0     resource_manager.obj
 0004:00000eac       $pdata$?EnumResourceLanguagesW@ResourceManager@@QEAAHPEAUHINSTANCE__@@PEB_W1P6AH011G_J@Z2@Z 000000018003deac     resource_manager.obj
 0004:00000eb8       $pdata$?EnumResourceTypesA@ResourceManager@@QEAAHPEAUHINSTANCE__@@P6AH0PEAD_J@Z2@Z 000000018003deb8     resource_manager.obj
 0004:00000ec4       $pdata$3$?EnumResourceTypesA@ResourceManager@@QEAAHPEAUHINSTANCE__@@P6AH0PEAD_J@Z2@Z 000000018003dec4     resource_manager.obj
 0004:00000ed0       $pdata$4$?EnumResourceTypesA@ResourceManager@@QEAAHPEAUHINSTANCE__@@P6AH0PEAD_J@Z2@Z 000000018003ded0     resource_manager.obj
 0004:00000edc       $pdata$?EnumResourceTypesW@ResourceManager@@QEAAHPEAUHINSTANCE__@@P6AH0PEA_W_J@Z2@Z 000000018003dedc     resource_manager.obj
 0004:00000ee8       $pdata$2$?EnumResourceTypesW@ResourceManager@@QEAAHPEAUHINSTANCE__@@P6AH0PEA_W_J@Z2@Z 000000018003dee8     resource_manager.obj
 0004:00000ef4       $pdata$3$?EnumResourceTypesW@ResourceManager@@QEAAHPEAUHINSTANCE__@@P6AH0PEA_W_J@Z2@Z 000000018003def4     resource_manager.obj
 0004:00000f00       $pdata$4$?EnumResourceTypesW@ResourceManager@@QEAAHPEAUHINSTANCE__@@P6AH0PEA_W_J@Z2@Z 000000018003df00     resource_manager.obj
 0004:00000f0c       $pdata$5$?EnumResourceTypesW@ResourceManager@@QEAAHPEAUHINSTANCE__@@P6AH0PEA_W_J@Z2@Z 000000018003df0c     resource_manager.obj
 0004:00000f18       $pdata$?Decrypt@VirtualResource@@QEAAPEAXPEAUHINSTANCE__@@I@Z 000000018003df18     resource_manager.obj
 0004:00000f24       $pdata$??1VirtualResourceList@@QEAA@XZ 000000018003df24     resource_manager.obj
 0004:00000f30       $pdata$0$??1VirtualResourceList@@QEAA@XZ 000000018003df30     resource_manager.obj
 0004:00000f3c       $pdata$1$??1VirtualResourceList@@QEAA@XZ 000000018003df3c     resource_manager.obj
 0004:00000f48       $pdata$?Add@VirtualResourceList@@QEAAPEAVVirtualResource@@PEBURESOURCE_DATA_ENTRY@@I@Z 000000018003df48     resource_manager.obj
 0004:00000f54       $pdata$?ExportedDecryptString@@YAPEBXPEBX@Z 000000018003df54     string_manager.obj
 0004:00000f60       $pdata$?ExportedFreeString@@YA_NPEBX@Z 000000018003df60     string_manager.obj
 0004:00000f6c       $pdata$??1StringManager@@QEAA@XZ 000000018003df6c     string_manager.obj
 0004:00000f78       $pdata$0$??1StringManager@@QEAA@XZ 000000018003df78     string_manager.obj
 0004:00000f84       $pdata$1$??1StringManager@@QEAA@XZ 000000018003df84     string_manager.obj
 0004:00000f90       $pdata$??_GVirtualString@@QEAAPEAXI@Z 000000018003df90     string_manager.obj
 0004:00000f9c       $pdata$?DecryptString@StringManager@@QEAAPEBXPEBX@Z 000000018003df9c     string_manager.obj
 0004:00000fa8       $pdata$?FreeString@StringManager@@QEAA_NPEBX@Z 000000018003dfa8     string_manager.obj
 0004:00000fb4       $pdata$??0VirtualString@@QEAA@PEBUSTRING_ENTRY@@PEAUHINSTANCE__@@I@Z 000000018003dfb4     string_manager.obj
 0004:00000fc0       $pdata$??0Path@@QEAA@PEA_W@Z 000000018003dfc0     file_manager.obj
 0004:00000fcc       $pdata$?Combine@Path@@QEAA?AVUnicodeString@@PEA_W@Z 000000018003dfcc     file_manager.obj
 0004:00000fd8       $pdata$??1Path@@QEAA@XZ    000000018003dfd8     file_manager.obj
 0004:00000fe4       $pdata$?HookedNtQueryAttributesFile@@YAJPEAU_OBJECT_ATTRIBUTES@@PEAU_FILE_BASIC_INFORMATION@@@Z 000000018003dfe4     file_manager.obj
 0004:00000ff0       $pdata$?HookedNtCreateFile@@YAJPEAPEAXKPEAU_OBJECT_ATTRIBUTES@@PEAU_IO_STATUS_BLOCK@@PEAT_LARGE_INTEGER@@KKKKPEAXK@Z 000000018003dff0     file_manager.obj
 0004:00000ffc       $pdata$?HookedNtOpenFile@@YAJPEAPEAXKPEAU_OBJECT_ATTRIBUTES@@PEAU_IO_STATUS_BLOCK@@KK@Z 000000018003dffc     file_manager.obj
 0004:00001008       $pdata$?HookedNtQueryInformationFile@@YAJPEAXPEAU_IO_STATUS_BLOCK@@0KW4_FILE_INFORMATION_CLASS@@@Z 000000018003e008     file_manager.obj
 0004:00001014       $pdata$?HookedNtQueryVolumeInformationFile@@YAJPEAXPEAU_IO_STATUS_BLOCK@@0KW4_FSINFOCLASS@@@Z 000000018003e014     file_manager.obj
 0004:00001020       $pdata$?HookedNtSetInformationFile@@YAJPEAXPEAU_IO_STATUS_BLOCK@@0KW4_FILE_INFORMATION_CLASS@@@Z 000000018003e020     file_manager.obj
 0004:0000102c       $pdata$?HookedNtQueryDirectoryFile@@YAJPEAX0P6AX0PEAU_IO_STATUS_BLOCK@@K@Z010KW4_FILE_INFORMATION_CLASS@@EPEAU_UNICODE_STRING@@E@Z 000000018003e02c     file_manager.obj
 0004:00001038       $pdata$?HookedNtReadFile@@YAJPEAX0P6AX0PEAU_IO_STATUS_BLOCK@@K@Z010KPEAT_LARGE_INTEGER@@PEAK@Z 000000018003e038     file_manager.obj
 0004:00001044       $pdata$?HookedNtCreateSection@@YAJPEAPEAXKPEAU_OBJECT_ATTRIBUTES@@PEAT_LARGE_INTEGER@@KKPEAX@Z 000000018003e044     file_manager.obj
 0004:00001050       $pdata$?HookedNtQuerySection@@YAJPEAXW4_SECTION_INFORMATION_CLASS@@0KPEAK@Z 000000018003e050     file_manager.obj
 0004:0000105c       $pdata$?HookedNtMapViewOfSection@@YAJPEAX0PEAPEAX_K2PEAT_LARGE_INTEGER@@PEA_KW4_SECTION_INHERIT@@KK@Z 000000018003e05c     file_manager.obj
 0004:00001068       $pdata$?HookedNtUnmapViewOfSection@@YAJPEAX0@Z 000000018003e068     file_manager.obj
 0004:00001074       $pdata$?HookedNtQueryVirtualMemory@@YAJPEAX0W4_MEMORY_INFORMATION_CLASS@@0KPEAK@Z 000000018003e074     file_manager.obj
 0004:00001080       $pdata$??0FileManager@@QEAA@PEBEPEAUHINSTANCE__@@0PEAVVirtualObjectList@@@Z 000000018003e080     file_manager.obj
 0004:0000108c       $pdata$?HookAPIs@FileManager@@QEAAXAEAVHookManager@@@Z 000000018003e08c     file_manager.obj
 0004:00001098       $pdata$?UnhookAPIs@FileManager@@QEAAXAEAVHookManager@@@Z 000000018003e098     file_manager.obj
 0004:000010a4       $pdata$0$?UnhookAPIs@FileManager@@QEAAXAEAVHookManager@@@Z 000000018003e0a4     file_manager.obj
 0004:000010b0       $pdata$1$?UnhookAPIs@FileManager@@QEAAXAEAVHookManager@@@Z 000000018003e0b0     file_manager.obj
 0004:000010bc       $pdata$?OpenFiles@FileManager@@QEAA_NAEAVRegistryManager@@@Z 000000018003e0bc     file_manager.obj
 0004:000010c8       $pdata$?FindEntry@FileManager@@AEAAPEBUOBJECT_ENTRY@@PEAXPEAU_UNICODE_STRING@@@Z 000000018003e0c8     file_manager.obj
 0004:000010d4       $pdata$?ReadFile@FileManager@@AEBA_NPEBUOBJECT_ENTRY@@_KPEAX1@Z 000000018003e0d4     file_manager.obj
 0004:000010e0       $pdata$?ReadImageHeader@FileManager@@AEBAJPEBUOBJECT_ENTRY@@PEAU_IMAGE_NT_HEADERS64@@@Z 000000018003e0e0     file_manager.obj
 0004:000010ec       $pdata$?ReadImage@FileManager@@AEBAJPEBUOBJECT_ENTRY@@PEAX@Z 000000018003e0ec     file_manager.obj
 0004:000010f8       $pdata$4$?ReadImage@FileManager@@AEBAJPEBUOBJECT_ENTRY@@PEAX@Z 000000018003e0f8     file_manager.obj
 0004:00001104       $pdata$5$?ReadImage@FileManager@@AEBAJPEBUOBJECT_ENTRY@@PEAX@Z 000000018003e104     file_manager.obj
 0004:00001110       $pdata$6$?ReadImage@FileManager@@AEBAJPEBUOBJECT_ENTRY@@PEAX@Z 000000018003e110     file_manager.obj
 0004:0000111c       $pdata$?NtQueryAttributesFile@FileManager@@QEAAJPEAU_OBJECT_ATTRIBUTES@@PEAU_FILE_BASIC_INFORMATION@@@Z 000000018003e11c     file_manager.obj
 0004:00001128       $pdata$?NtCreateFile@FileManager@@QEAAJPEAPEAXKPEAU_OBJECT_ATTRIBUTES@@PEAU_IO_STATUS_BLOCK@@PEAT_LARGE_INTEGER@@KKKKPEAXK@Z 000000018003e128     file_manager.obj
 0004:00001134       $pdata$?NtOpenFile@FileManager@@QEAAJPEAPEAXKPEAU_OBJECT_ATTRIBUTES@@PEAU_IO_STATUS_BLOCK@@KK@Z 000000018003e134     file_manager.obj
 0004:00001140       $pdata$?NtQueryInformationFile@FileManager@@QEAAJPEAXPEAU_IO_STATUS_BLOCK@@0KW4_FILE_INFORMATION_CLASS@@@Z 000000018003e140     file_manager.obj
 0004:0000114c       $pdata$?NtQueryVolumeInformationFile@FileManager@@QEAAJPEAXPEAU_IO_STATUS_BLOCK@@0KW4_FSINFOCLASS@@@Z 000000018003e14c     file_manager.obj
 0004:00001158       $pdata$?NtSetInformationFile@FileManager@@QEAAJPEAXPEAU_IO_STATUS_BLOCK@@0KW4_FILE_INFORMATION_CLASS@@@Z 000000018003e158     file_manager.obj
 0004:00001164       $pdata$?NtQueryDirectoryFile@FileManager@@QEAAJPEAX0P6AX0PEAU_IO_STATUS_BLOCK@@K@Z010KW4_FILE_INFORMATION_CLASS@@EPEAU_UNICODE_STRING@@E@Z 000000018003e164     file_manager.obj
 0004:00001170       $pdata$?NtReadFile@FileManager@@QEAAJPEAX0P6AX0PEAU_IO_STATUS_BLOCK@@K@Z010KPEAT_LARGE_INTEGER@@PEAK@Z 000000018003e170     file_manager.obj
 0004:0000117c       $pdata$?NtCreateSection@FileManager@@QEAAJPEAPEAXKPEAU_OBJECT_ATTRIBUTES@@PEAT_LARGE_INTEGER@@KKPEAX@Z 000000018003e17c     file_manager.obj
 0004:00001188       $pdata$?NtQuerySection@FileManager@@QEAAJPEAXW4_SECTION_INFORMATION_CLASS@@0KPEAK@Z 000000018003e188     file_manager.obj
 0004:00001194       $pdata$?NtMapViewOfSection@FileManager@@QEAAJPEAX0PEAPEAX_K2PEAT_LARGE_INTEGER@@PEA_KW4_SECTION_INHERIT@@KK@Z 000000018003e194     file_manager.obj
 0004:000011a0       $pdata$?NtQueryVirtualMemory@FileManager@@QEAAJPEAX0W4_MEMORY_INFORMATION_CLASS@@0KPEAK@Z 000000018003e1a0     file_manager.obj
 0004:000011ac       $pdata$1$?NtQueryVirtualMemory@FileManager@@QEAAJPEAX0W4_MEMORY_INFORMATION_CLASS@@0KPEAK@Z 000000018003e1ac     file_manager.obj
 0004:000011b8       $pdata$2$?NtQueryVirtualMemory@FileManager@@QEAAJPEAX0W4_MEMORY_INFORMATION_CLASS@@0KPEAK@Z 000000018003e1b8     file_manager.obj
 0004:000011c4       $pdata$3$?NtQueryVirtualMemory@FileManager@@QEAAJPEAX0W4_MEMORY_INFORMATION_CLASS@@0KPEAK@Z 000000018003e1c4     file_manager.obj
 0004:000011d0       $pdata$4$?NtQueryVirtualMemory@FileManager@@QEAAJPEAX0W4_MEMORY_INFORMATION_CLASS@@0KPEAK@Z 000000018003e1d0     file_manager.obj
 0004:000011dc       $pdata$?push_back@?$vector@VUnicodeString@@@@QEAAXAEBVUnicodeString@@@Z 000000018003e1dc     file_manager.obj
 0004:000011e8       $pdata$??$swprintf_s@$0BGI@@@YAHAEAY0BGI@_WPEB_WZZ 000000018003e1e8     file_manager.obj
 0004:000011f4       $pdata$??0bad_alloc@std@@QEAA@AEBV01@@Z 000000018003e1f4     libcpmt:xthrow.obj
 0004:00001200       $pdata$??0exception@std@@QEAA@AEBV01@@Z 000000018003e200     libcpmt:xthrow.obj
 0004:0000120c       $pdata$??0length_error@std@@QEAA@AEBV01@@Z 000000018003e20c     libcpmt:xthrow.obj
 0004:00001218       $pdata$??0length_error@std@@QEAA@PEBD@Z 000000018003e218     libcpmt:xthrow.obj
 0004:00001224       $pdata$??0logic_error@std@@QEAA@AEBV01@@Z 000000018003e224     libcpmt:xthrow.obj
 0004:00001230       $pdata$??_Gbad_alloc@std@@UEAAPEAXI@Z 000000018003e230     libcpmt:xthrow.obj
 0004:0000123c       $pdata$??_Gexception@std@@UEAAPEAXI@Z 000000018003e23c     libcpmt:xthrow.obj
 0004:00001248       $pdata$??_Glength_error@std@@UEAAPEAXI@Z 000000018003e248     libcpmt:xthrow.obj
 0004:00001254       $pdata$??_Glogic_error@std@@UEAAPEAXI@Z 000000018003e254     libcpmt:xthrow.obj
 0004:00001260       $pdata$?_Xbad_alloc@std@@YAXXZ 000000018003e260     libcpmt:xthrow.obj
 0004:0000126c       $pdata$?_Xlength_error@std@@YAXPEBD@Z 000000018003e26c     libcpmt:xthrow.obj
 0004:00001278       $pdata$??2@YAPEAX_K@Z      000000018003e278     LIBCMT:new_scalar.obj
 0004:00001284       $pdata$??_M@YAXPEAX_K1P6AX0@Z@Z 000000018003e284     LIBCMT:ehvecdtr.obj
 0004:00001290       $pdata$?__ArrayUnwind@@YAXPEAX_K1P6AX0@Z@Z 000000018003e290     LIBCMT:ehvecdtr.obj
 0004:0000129c       $pdata$??_L@YAXPEAX_K1P6AX0@Z2@Z 000000018003e29c     LIBCMT:ehvecctr.obj
 0004:000012a8       $pdata$?dllmain_crt_dispatch@@YAHQEAUHINSTANCE__@@KQEAX@Z 000000018003e2a8     LIBCMT:dll_dllmain.obj
 0004:000012b4       $pdata$?dllmain_crt_process_attach@@YAHQEAUHINSTANCE__@@QEAX@Z 000000018003e2b4     LIBCMT:dll_dllmain.obj
 0004:000012c0       $pdata$?dllmain_crt_process_detach@@YAH_N@Z 000000018003e2c0     LIBCMT:dll_dllmain.obj
 0004:000012cc       $pdata$?dllmain_dispatch@@YAHQEAUHINSTANCE__@@KQEAX@Z 000000018003e2cc     LIBCMT:dll_dllmain.obj
 0004:000012d8       $pdata$?dllmain_raw@@YAHQEAUHINSTANCE__@@KQEAX@Z 000000018003e2d8     LIBCMT:dll_dllmain.obj
 0004:000012e4       $pdata$_DllMainCRTStartup  000000018003e2e4     LIBCMT:dll_dllmain.obj
 0004:000012f0       $pdata$??_Gtype_info@@UEAAPEAXI@Z 000000018003e2f0     LIBCMT:std_type_info_static.obj
 0004:000012fc       $pdata$??0bad_array_new_length@std@@QEAA@AEBV01@@Z 000000018003e2fc     LIBCMT:throw_bad_alloc.obj
 0004:00001308       $pdata$??_Gbad_array_new_length@std@@UEAAPEAXI@Z 000000018003e308     LIBCMT:throw_bad_alloc.obj
 0004:00001314       $pdata$?__scrt_throw_std_bad_alloc@@YAXXZ 000000018003e314     LIBCMT:throw_bad_alloc.obj
 0004:00001320       $pdata$?__scrt_throw_std_bad_array_new_length@@YAXXZ 000000018003e320     LIBCMT:throw_bad_alloc.obj
 0004:0000132c       $pdata$__scrt_acquire_startup_lock 000000018003e32c     LIBCMT:utility.obj
 0004:00001338       $pdata$__scrt_dllmain_after_initialize_c 000000018003e338     LIBCMT:utility.obj
 0004:00001344       $pdata$__scrt_dllmain_before_initialize_c 000000018003e344     LIBCMT:utility.obj
 0004:00001350       $pdata$__scrt_dllmain_crt_thread_attach 000000018003e350     LIBCMT:utility.obj
 0004:0000135c       $pdata$__scrt_dllmain_crt_thread_detach 000000018003e35c     LIBCMT:utility.obj
 0004:00001368       $pdata$__scrt_dllmain_exception_filter 000000018003e368     LIBCMT:utility.obj
 0004:00001374       $pdata$__scrt_dllmain_uninitialize_c 000000018003e374     LIBCMT:utility.obj
 0004:00001380       $pdata$__scrt_dllmain_uninitialize_critical 000000018003e380     LIBCMT:utility.obj
 0004:0000138c       $pdata$__scrt_initialize_crt 000000018003e38c     LIBCMT:utility.obj
 0004:00001398       $pdata$__scrt_initialize_onexit_tables 000000018003e398     LIBCMT:utility.obj
 0004:000013a4       $pdata$__scrt_is_nonwritable_in_current_image 000000018003e3a4     LIBCMT:utility.obj
 0004:000013b0       $pdata$__scrt_release_startup_lock 000000018003e3b0     LIBCMT:utility.obj
 0004:000013bc       $pdata$__scrt_uninitialize_crt 000000018003e3bc     LIBCMT:utility.obj
 0004:000013c8       $pdata$_onexit             000000018003e3c8     LIBCMT:utility.obj
 0004:000013d4       $pdata$atexit              000000018003e3d4     LIBCMT:utility.obj
 0004:000013e0       $pdata$__security_init_cookie 000000018003e3e0     LIBCMT:gs_support.obj
 0004:000013ec       $pdata$__scrt_initialize_default_local_stdio_options 000000018003e3ec     LIBCMT:default_local_stdio_options.obj
 0004:000013f8       $pdata$__scrt_fastfail     000000018003e3f8     LIBCMT:utility_desktop.obj
 0004:00001404       $pdata$_RTC_Initialize     000000018003e404     LIBCMT:_initsect_.obj
 0004:00001410       $pdata$_RTC_Terminate      000000018003e410     LIBCMT:_initsect_.obj
 0004:0000141c       $pdata$__isa_available_init 000000018003e41c     LIBCMT:_cpu_disp_.obj
 0004:00001428       $pdata$__DestructExceptionObject 000000018003e428     libvcruntime:frame.obj
 0004:00001434       $pdata$??0bad_exception@std@@QEAA@AEBV01@@Z 000000018003e434     libvcruntime:frame.obj
 0004:00001440       $pdata$??_Gbad_exception@std@@UEAAPEAXI@Z 000000018003e440     libvcruntime:frame.obj
 0004:0000144c       $pdata$?CatchIt@@YAXPEAUEHExceptionRecord@@PEA_KPEAU_CONTEXT@@PEAU_xDISPATCHER_CONTEXT@@PEBU_s_FuncInfo@@PEBU_s_HandlerType@@PEBU_s_CatchableType@@PEBU_s_TryBlockMapEntry@@H1EE@Z 000000018003e44c     libvcruntime:frame.obj
 0004:00001458       $pdata$?ExFilterRethrow@@YAHPEAU_EXCEPTION_POINTERS@@PEAUEHExceptionRecord@@PEAH@Z 000000018003e458     libvcruntime:frame.obj
 0004:00001464       $pdata$?FindHandler@@YAXPEAUEHExceptionRecord@@PEA_KPEAU_CONTEXT@@PEAU_xDISPATCHER_CONTEXT@@PEBU_s_FuncInfo@@EH1@Z 000000018003e464     libvcruntime:frame.obj
 0004:00001470       $pdata$?FindHandlerForForeignException@@YAXPEAUEHExceptionRecord@@PEA_KPEAU_CONTEXT@@PEAU_xDISPATCHER_CONTEXT@@PEBU_s_FuncInfo@@HH1@Z 000000018003e470     libvcruntime:frame.obj
 0004:0000147c       $pdata$?IsInExceptionSpec@@YAEPEAUEHExceptionRecord@@PEBU_s_ESTypeList@@@Z 000000018003e47c     libvcruntime:frame.obj
 0004:00001488       $pdata$__BuildCatchObject  000000018003e488     libvcruntime:frame.obj
 0004:00001494       $pdata$__BuildCatchObjectHelper 000000018003e494     libvcruntime:frame.obj
 0004:000014a0       $pdata$__CxxCallCatchBlock 000000018003e4a0     libvcruntime:frame.obj
 0004:000014ac       $pdata$__FrameUnwindFilter 000000018003e4ac     libvcruntime:frame.obj
 0004:000014b8       $pdata$__FrameUnwindToState 000000018003e4b8     libvcruntime:frame.obj
 0004:000014c4       $pdata$__InternalCxxFrameHandler 000000018003e4c4     libvcruntime:frame.obj
 0004:000014d0       $pdata$__TypeMatch         000000018003e4d0     libvcruntime:frame.obj
 0004:000014dc       $pdata$__std_terminate     000000018003e4dc     libvcruntime:frame.obj
 0004:000014e8       $pdata$wcschr              000000018003e4e8     libvcruntime:wcschr.obj
 0004:000014f4       $pdata$strchr              000000018003e4f4     libvcruntime:strchr.obj
 0004:00001500       $pdata$__std_exception_copy 000000018003e500     libvcruntime:std_exception.obj
 0004:0000150c       $pdata$__std_exception_destroy 000000018003e50c     libvcruntime:std_exception.obj
 0004:00001518       $pdata$_CxxThrowException  000000018003e518     libvcruntime:throw.obj
 0004:00001524       $pdata$__C_specific_handler 000000018003e524     libvcruntime:_chandler_.obj
 0004:00001530       $pdata$__vcrt_initialize   000000018003e530     libvcruntime:initialization.obj
 0004:0000153c       $pdata$__vcrt_thread_attach 000000018003e53c     libvcruntime:initialization.obj
 0004:00001548       $pdata$__vcrt_thread_detach 000000018003e548     libvcruntime:initialization.obj
 0004:00001554       $pdata$__vcrt_uninitialize 000000018003e554     libvcruntime:initialization.obj
 0004:00001560       $pdata$__vcrt_uninitialize_critical 000000018003e560     libvcruntime:initialization.obj
 0004:0000156c       $pdata$__std_type_info_destroy_list 000000018003e56c     libvcruntime:std_type_info.obj
 0004:00001590       $pdata$__vcrt_freefls      000000018003e590     libvcruntime:per_thread_data.obj
 0004:0000159c       $pdata$__vcrt_freeptd      000000018003e59c     libvcruntime:per_thread_data.obj
 0004:000015a8       $pdata$__vcrt_getptd       000000018003e5a8     libvcruntime:per_thread_data.obj
 0004:000015b4       $pdata$__vcrt_getptd_noexit 000000018003e5b4     libvcruntime:per_thread_data.obj
 0004:000015c0       $pdata$__vcrt_initialize_ptd 000000018003e5c0     libvcruntime:per_thread_data.obj
 0004:000015cc       $pdata$__vcrt_uninitialize_ptd 000000018003e5cc     libvcruntime:per_thread_data.obj
 0004:000015d8       $pdata$?__GetCurrentState@@YAHPEA_KPEAU_xDISPATCHER_CONTEXT@@PEBU_s_FuncInfo@@@Z 000000018003e5d8     libvcruntime:ehstate.obj
 0004:000015e4       $pdata$?__GetUnwindTryBlock@@YAHPEA_KPEAU_xDISPATCHER_CONTEXT@@PEBU_s_FuncInfo@@@Z 000000018003e5e4     libvcruntime:ehstate.obj
 0004:000015f0       $pdata$?__SetUnwindTryBlock@@YAXPEA_KPEAU_xDISPATCHER_CONTEXT@@PEBU_s_FuncInfo@@H@Z 000000018003e5f0     libvcruntime:ehstate.obj
 0004:000015fc       $pdata$?__StateFromIp@@YAHPEBU_s_FuncInfo@@PEAU_xDISPATCHER_CONTEXT@@_J@Z 000000018003e5fc     libvcruntime:ehstate.obj
 0004:00001614       $pdata$?_ExecutionInCatch@@YAHPEAU_xDISPATCHER_CONTEXT@@PEBU_s_FuncInfo@@@Z 000000018003e614     libvcruntime:trnsctrl.obj
 0004:00001620       $pdata$?_GetEstablisherFrame@@YAPEA_KPEA_KPEAU_xDISPATCHER_CONTEXT@@PEBU_s_FuncInfo@@0@Z 000000018003e620     libvcruntime:trnsctrl.obj
 0004:0000162c       $pdata$?_GetRangeOfTrysToCheck@@YAPEBU_s_TryBlockMapEntry@@PEA_KPEBU_s_FuncInfo@@HHPEAI2PEAU_xDISPATCHER_CONTEXT@@@Z 000000018003e62c     libvcruntime:trnsctrl.obj
 0004:00001638       $pdata$?__FrameUnwindToEmptyState@@YAXPEA_KPEAU_xDISPATCHER_CONTEXT@@PEBU_s_FuncInfo@@@Z 000000018003e638     libvcruntime:trnsctrl.obj
 0004:00001644       $pdata$?__SehTransFilter@@YAHPEAU_EXCEPTION_POINTERS@@PEAUEHExceptionRecord@@PEA_KPEAU_CONTEXT@@PEAU_xDISPATCHER_CONTEXT@@PEBU_s_FuncInfo@@PEAH@Z 000000018003e644     libvcruntime:trnsctrl.obj
 0004:00001650       $pdata$_CallSETranslator   000000018003e650     libvcruntime:trnsctrl.obj
 0004:0000165c       $pdata$_CreateFrameInfo    000000018003e65c     libvcruntime:trnsctrl.obj
 0004:00001668       $pdata$_FindAndUnlinkFrame 000000018003e668     libvcruntime:trnsctrl.obj
 0004:00001674       $pdata$_GetImageBase       000000018003e674     libvcruntime:trnsctrl.obj
 0004:00001680       $pdata$_GetThrowImageBase  000000018003e680     libvcruntime:trnsctrl.obj
 0004:0000168c       $pdata$_IsExceptionObjectToBeDestroyed 000000018003e68c     libvcruntime:trnsctrl.obj
 0004:00001698       $pdata$_SetImageBase       000000018003e698     libvcruntime:trnsctrl.obj
 0004:000016a4       $pdata$_SetThrowImageBase  000000018003e6a4     libvcruntime:trnsctrl.obj
 0004:000016b0       $pdata$_UnwindNestedFrames 000000018003e6b0     libvcruntime:trnsctrl.obj
 0004:000016bc       $pdata$__CxxFrameHandler3  000000018003e6bc     libvcruntime:trnsctrl.obj
 0004:000016f8       $pdata$__vcrt_initialize_locks 000000018003e6f8     libvcruntime:locks.obj
 0004:00001704       $pdata$__vcrt_uninitialize_locks 000000018003e704     libvcruntime:locks.obj
 0004:00001710       $pdata$?try_get_function@@YAPEAXW4function_id@?A0xb81d63e2@@QEBDQEBW4module_id@2@2@Z 000000018003e710     libvcruntime:winapi_downlevel.obj
 0004:0000171c       $pdata$__vcrt_FlsAlloc     000000018003e71c     libvcruntime:winapi_downlevel.obj
 0004:00001728       $pdata$__vcrt_FlsFree      000000018003e728     libvcruntime:winapi_downlevel.obj
 0004:00001734       $pdata$__vcrt_FlsGetValue  000000018003e734     libvcruntime:winapi_downlevel.obj
 0004:00001740       $pdata$__vcrt_FlsSetValue  000000018003e740     libvcruntime:winapi_downlevel.obj
 0004:0000174c       $pdata$__vcrt_InitializeCriticalSectionEx 000000018003e74c     libvcruntime:winapi_downlevel.obj
 0004:00001758       $pdata$__vcrt_uninitialize_winapi_thunks 000000018003e758     libvcruntime:winapi_downlevel.obj
 0004:00001764       $pdata$??0_LocaleUpdate@@QEAA@QEAU__crt_locale_pointers@@@Z 000000018003e764     libucrt:wcsicmp.obj
 0004:00001770       $pdata$_wcsicmp            000000018003e770     libucrt:wcsicmp.obj
 0004:0000177c       $pdata$_wcsicmp_l          000000018003e77c     libucrt:wcsicmp.obj
 0004:00001788       $pdata$_wcsnicmp           000000018003e788     libucrt:wcsnicmp.obj
 0004:00001794       $pdata$_wcsnicmp_l         000000018003e794     libucrt:wcsnicmp.obj
 0004:000017a0       $pdata$??$parse_integer@KV?$c_string_character_source@D@__crt_strtox@@@__crt_strtox@@YAKQEAU__crt_locale_pointers@@V?$c_string_character_source@D@0@H_N@Z 000000018003e7a0     libucrt:atox.obj
 0004:000017ac       $pdata$??$parse_integer@KV?$c_string_character_source@_W@__crt_strtox@@@__crt_strtox@@YAKQEAU__crt_locale_pointers@@V?$c_string_character_source@_W@0@H_N@Z 000000018003e7ac     libucrt:atox.obj
 0004:000017b8       $pdata$atoi                000000018003e7b8     libucrt:atox.obj
 0004:000017c4       $pdata$_stricmp            000000018003e7c4     libucrt:stricmp.obj
 0004:000017d0       $pdata$_stricmp_l          000000018003e7d0     libucrt:stricmp.obj
 0004:000017dc       $pdata$??$common_vsprintf@Vformat_validation_base@__crt_stdio_output@@_W@@YAH_KQEA_W0QEB_WQEAU__crt_locale_pointers@@QEAD@Z 000000018003e7dc     libucrt:output.obj
 0004:000017e8       $pdata$??$ensure_buffer_is_big_enough@D@formatting_buffer@__crt_stdio_output@@QEAA_N_K@Z 000000018003e7e8     libucrt:output.obj
 0004:000017f4       $pdata$??$type_case_integer_parse_into_buffer@I@?$output_processor@_WV?$string_output_adapter@_W@__crt_stdio_output@@V?$format_validation_base@_WV?$string_output_adapter@_W@__crt_stdio_output@@@2@@__crt_stdio_output@@AEAAXII_N@Z 000000018003e7f4     libucrt:output.obj
 0004:00001800       $pdata$??$type_case_integer_parse_into_buffer@_K@?$output_processor@_WV?$string_output_adapter@_W@__crt_stdio_output@@V?$format_validation_base@_WV?$string_output_adapter@_W@__crt_stdio_output@@@2@@__crt_stdio_output@@AEAAX_KI_N@Z 000000018003e800     libucrt:output.obj
 0004:0000180c       $pdata$??$write_multiple_characters@V?$string_output_adapter@_W@__crt_stdio_output@@D@__crt_stdio_output@@YAXAEBV?$string_output_adapter@_W@0@DHQEAH@Z 000000018003e80c     libucrt:output.obj
 0004:00001818       $pdata$??0?$output_processor@_WV?$string_output_adapter@_W@__crt_stdio_output@@V?$format_validation_base@_WV?$string_output_adapter@_W@__crt_stdio_output@@@2@@__crt_stdio_output@@QEAA@AEBV?$string_output_adapter@_W@1@_KQEB_WQEAU__crt_locale_pointers@@QEAD@Z 000000018003e818     libucrt:output.obj
 0004:00001824       $pdata$?force_decimal_point@__crt_stdio_output@@YAXPEADQEAU__crt_locale_pointers@@@Z 000000018003e824     libucrt:output.obj
 0004:00001830       $pdata$?parse_int_from_format_string@?$output_processor@_WV?$string_output_adapter@_W@__crt_stdio_output@@V?$format_validation_base@_WV?$string_output_adapter@_W@__crt_stdio_output@@@2@@__crt_stdio_output@@AEAA_NQEAH@Z 000000018003e830     libucrt:output.obj
 0004:0000183c       $pdata$?process@?$output_processor@_WV?$string_output_adapter@_W@__crt_stdio_output@@V?$format_validation_base@_WV?$string_output_adapter@_W@__crt_stdio_output@@@2@@__crt_stdio_output@@QEAAHXZ 000000018003e83c     libucrt:output.obj
 0004:00001848       $pdata$?state_case_size@?$output_processor@_WV?$string_output_adapter@_W@__crt_stdio_output@@V?$format_validation_base@_WV?$string_output_adapter@_W@__crt_stdio_output@@@2@@__crt_stdio_output@@AEAA_NXZ 000000018003e848     libucrt:output.obj
 0004:00001854       $pdata$?state_case_type@?$output_processor@_WV?$string_output_adapter@_W@__crt_stdio_output@@V?$format_validation_base@_WV?$string_output_adapter@_W@__crt_stdio_output@@@2@@__crt_stdio_output@@AEAA_NXZ 000000018003e854     libucrt:output.obj
 0004:00001860       $pdata$?type_case_Z@?$output_processor@_WV?$string_output_adapter@_W@__crt_stdio_output@@V?$format_validation_base@_WV?$string_output_adapter@_W@__crt_stdio_output@@@2@@__crt_stdio_output@@AEAA_NXZ 000000018003e860     libucrt:output.obj
 0004:0000186c       $pdata$?type_case_a@?$output_processor@_WV?$string_output_adapter@_W@__crt_stdio_output@@V?$format_validation_base@_WV?$string_output_adapter@_W@__crt_stdio_output@@@2@@__crt_stdio_output@@AEAA_NXZ 000000018003e86c     libucrt:output.obj
 0004:00001878       $pdata$?type_case_c_tchar@?$output_processor@_WV?$string_output_adapter@_W@__crt_stdio_output@@V?$format_validation_base@_WV?$string_output_adapter@_W@__crt_stdio_output@@@2@@__crt_stdio_output@@AEAA_N_W@Z 000000018003e878     libucrt:output.obj
 0004:00001884       $pdata$?type_case_integer@?$output_processor@_WV?$string_output_adapter@_W@__crt_stdio_output@@V?$format_validation_base@_WV?$string_output_adapter@_W@__crt_stdio_output@@@2@@__crt_stdio_output@@AEAA_NI_N@Z 000000018003e884     libucrt:output.obj
 0004:00001890       $pdata$?type_case_n@?$output_processor@_WV?$string_output_adapter@_W@__crt_stdio_output@@V?$format_validation_base@_WV?$string_output_adapter@_W@__crt_stdio_output@@@2@@__crt_stdio_output@@AEAA_NXZ 000000018003e890     libucrt:output.obj
 0004:0000189c       $pdata$?type_case_s@?$output_processor@_WV?$string_output_adapter@_W@__crt_stdio_output@@V?$format_validation_base@_WV?$string_output_adapter@_W@__crt_stdio_output@@@2@@__crt_stdio_output@@AEAA_NXZ 000000018003e89c     libucrt:output.obj
 0004:000018a8       $pdata$?write_stored_string_tchar@?$output_processor@_WV?$string_output_adapter@_W@__crt_stdio_output@@V?$format_validation_base@_WV?$string_output_adapter@_W@__crt_stdio_output@@@2@@__crt_stdio_output@@AEAA_N_W@Z 000000018003e8a8     libucrt:output.obj
 0004:000018b4       $pdata$?write_string@?$string_output_adapter@_W@__crt_stdio_output@@QEBAXQEB_WHQEAH1@Z 000000018003e8b4     libucrt:output.obj
 0004:000018c0       $pdata$__stdio_common_vswprintf_s 000000018003e8c0     libucrt:output.obj
 0004:000018cc       $pdata$wcscat_s            000000018003e8cc     libucrt:wcscat_s.obj
 0004:000018d8       $pdata$strncpy_s           000000018003e8d8     libucrt:strncpy_s.obj
 0004:000018e4       $pdata$__acrt_call_reportfault 000000018003e8e4     libucrt:invalid_parameter.obj
 0004:000018f0       $pdata$_invalid_parameter  000000018003e8f0     libucrt:invalid_parameter.obj
 0004:000018fc       $pdata$_invalid_parameter_noinfo 000000018003e8fc     libucrt:invalid_parameter.obj
 0004:00001908       $pdata$_invalid_parameter_noinfo_noreturn 000000018003e908     libucrt:invalid_parameter.obj
 0004:00001914       $pdata$_invoke_watson      000000018003e914     libucrt:invalid_parameter.obj
 0004:00001920       $pdata$isalnum             000000018003e920     libucrt:_ctype.obj
 0004:0000192c       $pdata$isdigit             000000018003e92c     libucrt:_ctype.obj
 0004:00001938       $pdata$?internal_isupper_l@@YA_NHQEAU__crt_locale_pointers@@@Z 000000018003e938     libucrt:tolower_toupper.obj
 0004:00001944       $pdata$_tolower_l          000000018003e944     libucrt:tolower_toupper.obj
 0004:00001950       $pdata$tolower             000000018003e950     libucrt:tolower_toupper.obj
 0004:0000195c       $pdata$strcpy_s            000000018003e95c     libucrt:strcpy_s.obj
 0004:00001968       $pdata$strtoul             000000018003e968     libucrt:strtox.obj
 0004:00001974       $pdata$wcstol              000000018003e974     libucrt:strtox.obj
 0004:00001980       $pdata$wcstoul             000000018003e980     libucrt:strtox.obj
 0004:0000198c       $pdata$wcscpy_s            000000018003e98c     libucrt:wcscpy_s.obj
 0004:00001998       $pdata$_callnewh           000000018003e998     libucrt:new_handler.obj
 0004:000019a4       $pdata$_query_new_handler  000000018003e9a4     libucrt:new_handler.obj
 0004:000019b0       $pdata$terminate           000000018003e9b0     libucrt:terminate.obj
 0004:000019bc       $pdata$_initterm           000000018003e9bc     libucrt:initterm.obj
 0004:000019c8       $pdata$_initterm_e         000000018003e9c8     libucrt:initterm.obj
 0004:000019d4       $pdata$_seh_filter_exe     000000018003e9d4     libucrt:exception_filter.obj
 0004:000019e0       $pdata$?common_exit@@YAXHW4_crt_exit_cleanup_mode@@W4_crt_exit_return_mode@@@Z 000000018003e9e0     libucrt:exit.obj
 0004:000019ec       $pdata$?exit_or_terminate_process@@YAXI@Z 000000018003e9ec     libucrt:exit.obj
 0004:000019f8       $pdata$?try_cor_exit_process@@YAXI@Z 000000018003e9f8     libucrt:exit.obj
 0004:00001a04       $pdata$??$parse_command_line@D@@YAXPEADPEAPEAD0PEA_K2@Z 000000018003ea04     libucrt:argv_parsing.obj
 0004:00001a10       $pdata$__acrt_allocate_buffer_for_argv 000000018003ea10     libucrt:argv_parsing.obj
 0004:00001a1c       $pdata$_configure_narrow_argv 000000018003ea1c     libucrt:argv_parsing.obj
 0004:00001a28       $pdata$??$common_initialize_environment_nolock@D@@YAHXZ 000000018003ea28     libucrt:environment_initialization.obj
 0004:00001a34       $pdata$??$create_environment@D@@YAQEAPEADQEAD@Z 000000018003ea34     libucrt:environment_initialization.obj
 0004:00001a40       $pdata$??$free_environment@D@@YAXQEAPEAD@Z 000000018003ea40     libucrt:environment_initialization.obj
 0004:00001a4c       $pdata$??$free_environment@_W@@YAXQEAPEA_W@Z 000000018003ea4c     libucrt:environment_initialization.obj
 0004:00001a58       $pdata$??$uninitialize_environment_internal@D@@YAXAEAPEAPEAD@Z 000000018003ea58     libucrt:environment_initialization.obj
 0004:00001a64       $pdata$??$uninitialize_environment_internal@_W@@YAXAEAPEAPEA_W@Z 000000018003ea64     libucrt:environment_initialization.obj
 0004:00001a70       $pdata$__dcrt_uninitialize_environments_nolock 000000018003ea70     libucrt:environment_initialization.obj
 0004:00001a7c       $pdata$??$?RV<lambda_b8c45f8f788dd370798f47cfe8ac3a86>@@AEAV<lambda_4e60a939b0d047cfe11ddc22648dfba9>@@V<lambda_332c3edc96d0294ec56c57d38c1cdfd5>@@@?$__crt_seh_guarded_call@H@@QEAAH$$QEAV<lambda_b8c45f8f788dd370798f47cfe8ac3a86>@@AEAV<lambda_4e60a939b0d047cfe11ddc22648dfba9>@@$$QEAV<lambda_332c3edc96d0294ec56c57d38c1cdfd5>@@@Z 000000018003ea7c     libucrt:onexit.obj
 0004:00001a88       $pdata$??$?RV<lambda_e24bbb7b643b32fcea6fa61b31d4c984>@@AEAV<lambda_275893d493268fdec8709772e3fcec0e>@@V<lambda_9d71df4d7cf3f480f8d633942495c3b0>@@@?$__crt_seh_guarded_call@H@@QEAAH$$QEAV<lambda_e24bbb7b643b32fcea6fa61b31d4c984>@@AEAV<lambda_275893d493268fdec8709772e3fcec0e>@@$$QEAV<lambda_9d71df4d7cf3f480f8d633942495c3b0>@@@Z 000000018003ea88     libucrt:onexit.obj
 0004:00001a94       $pdata$??R<lambda_4e60a939b0d047cfe11ddc22648dfba9>@@QEBAHXZ 000000018003ea94     libucrt:onexit.obj
 0004:00001aa0       $pdata$_execute_onexit_table 000000018003eaa0     libucrt:onexit.obj
 0004:00001aac       $pdata$_register_onexit_function 000000018003eaac     libucrt:onexit.obj
 0004:00001ab8       $pdata$initialize_c        000000018003eab8     libucrt:initialization.obj
 0004:00001ac4       $pdata$uninitialize_environment 000000018003eac4     libucrt:initialization.obj
 0004:00001ad0       $pdata$initialize_pointers 000000018003ead0     libucrt:initialization.obj
 0004:00001adc       $pdata$uninitialize_allocated_memory 000000018003eadc     libucrt:initialization.obj
 0004:00001ae8       $pdata$__acrt_thread_attach 000000018003eae8     libucrt:initialization.obj
 0004:00001af4       $pdata$__acrt_thread_detach 000000018003eaf4     libucrt:initialization.obj
 0004:00001b00       $pdata$__acrt_uninitialize_critical 000000018003eb00     libucrt:initialization.obj
 0004:00001b0c       $pdata$_free_base          000000018003eb0c     libucrt:free_base.obj
 0004:00001b18       $pdata$_malloc_base        000000018003eb18     libucrt:malloc_base.obj
 0004:00001b24       $pdata$abort               000000018003eb24     libucrt:abort.obj
 0004:00001b30       $pdata$_calloc_base        000000018003eb30     libucrt:calloc_base.obj
 0004:00001b3c       $pdata$__acrt_errno_map_os_error 000000018003eb3c     libucrt:errno.obj
 0004:00001b48       $pdata$__doserrno          000000018003eb48     libucrt:errno.obj
 0004:00001b54       $pdata$_errno              000000018003eb54     libucrt:errno.obj
 0004:00001b60       $pdata$_towlower_l         000000018003eb60     libucrt:towlower.obj
 0004:00001b6c       $pdata$??$?RV<lambda_46352004c1216016012b18bd6f87e700>@@AEAV<lambda_3bd07e1a1191394380780325891bf33f>@@V<lambda_334532d3f185bcaa59b5be82d7d22bff>@@@?$__crt_seh_guarded_call@X@@QEAAX$$QEAV<lambda_46352004c1216016012b18bd6f87e700>@@AEAV<lambda_3bd07e1a1191394380780325891bf33f>@@$$QEAV<lambda_334532d3f185bcaa59b5be82d7d22bff>@@@Z 000000018003eb6c     libucrt:per_thread_data.obj
 0004:00001b78       $pdata$??$?RV<lambda_5e887d1dcbef67a5eb4283622ba103bf>@@AEAV<lambda_4466841279450cc726390878d4a41900>@@V<lambda_341c25c0346d94847f1f3c463c57e077>@@@?$__crt_seh_guarded_call@X@@QEAAX$$QEAV<lambda_5e887d1dcbef67a5eb4283622ba103bf>@@AEAV<lambda_4466841279450cc726390878d4a41900>@@$$QEAV<lambda_341c25c0346d94847f1f3c463c57e077>@@@Z 000000018003eb78     libucrt:per_thread_data.obj
 0004:00001b84       $pdata$??$?RV<lambda_72d1df2b273a38828b1ce30cbf4cdab5>@@AEAV<lambda_876a65b173b8412d3a47c70a915b0cf4>@@V<lambda_41932305e351933ebe8f8be3ed8bb5dc>@@@?$__crt_seh_guarded_call@X@@QEAAX$$QEAV<lambda_72d1df2b273a38828b1ce30cbf4cdab5>@@AEAV<lambda_876a65b173b8412d3a47c70a915b0cf4>@@$$QEAV<lambda_41932305e351933ebe8f8be3ed8bb5dc>@@@Z 000000018003eb84     libucrt:per_thread_data.obj
 0004:00001b90       $pdata$??$?RV<lambda_fb3a7dec4e47f37f22dae91bb15c9095>@@AEAV<lambda_698284760c8add0bfb0756c19673e34b>@@V<lambda_dfb8eca1e75fef3034a8fb18dd509707>@@@?$__crt_seh_guarded_call@X@@QEAAX$$QEAV<lambda_fb3a7dec4e47f37f22dae91bb15c9095>@@AEAV<lambda_698284760c8add0bfb0756c19673e34b>@@$$QEAV<lambda_dfb8eca1e75fef3034a8fb18dd509707>@@@Z 000000018003eb90     libucrt:per_thread_data.obj
 0004:00001b9c       $pdata$?construct_ptd_array@@YAXQEAU__acrt_ptd@@@Z 000000018003eb9c     libucrt:per_thread_data.obj
 0004:00001ba8       $pdata$?destroy_fls@@YAXPEAX@Z 000000018003eba8     libucrt:per_thread_data.obj
 0004:00001bb4       $pdata$?destroy_ptd_array@@YAXQEAU__acrt_ptd@@@Z 000000018003ebb4     libucrt:per_thread_data.obj
 0004:00001bc0       $pdata$?replace_current_thread_locale_nolock@@YAXQEAU__acrt_ptd@@QEAU__crt_locale_data@@@Z 000000018003ebc0     libucrt:per_thread_data.obj
 0004:00001bcc       $pdata$__acrt_freeptd      000000018003ebcc     libucrt:per_thread_data.obj
 0004:00001bd8       $pdata$__acrt_getptd       000000018003ebd8     libucrt:per_thread_data.obj
 0004:00001be4       $pdata$__acrt_getptd_noexit 000000018003ebe4     libucrt:per_thread_data.obj
 0004:00001bf0       $pdata$__acrt_initialize_ptd 000000018003ebf0     libucrt:per_thread_data.obj
 0004:00001bfc       $pdata$__acrt_uninitialize_ptd 000000018003ebfc     libucrt:per_thread_data.obj
 0004:00001c08       $pdata$__acrt_update_locale_info 000000018003ec08     libucrt:locale_update.obj
 0004:00001c14       $pdata$__acrt_update_multibyte_info 000000018003ec14     libucrt:locale_update.obj
 0004:00001c20       $pdata$__acrt_uninitialize_locale 000000018003ec20     libucrt:wsetlocale.obj
 0004:00001c2c       $pdata$__pctype_func       000000018003ec2c     libucrt:ctype.obj
 0004:00001c38       $pdata$iswctype            000000018003ec38     libucrt:iswctype.obj
 0004:00001c44       $pdata$_isctype_l          000000018003ec44     libucrt:isctype.obj
 0004:00001c50       $pdata$_mbtowc_l           000000018003ec50     libucrt:mbtowc.obj
 0004:00001c5c       $pdata$wcsnlen             000000018003ec5c     libucrt:strnlen.obj
 0004:00001c68       $pdata$?fp_format_a@@YAHQEBNPEAD_KQEAD2H_NIQEAU__crt_locale_pointers@@@Z 000000018003ec68     libucrt:cvt.obj
 0004:00001c74       $pdata$?fp_format_e@@YAHQEBNQEAD_K12H_NIQEAU__crt_locale_pointers@@@Z 000000018003ec74     libucrt:cvt.obj
 0004:00001c80       $pdata$?fp_format_e_internal@@YAHQEAD_KH_NIQEAU_strflt@@2QEAU__crt_locale_pointers@@@Z 000000018003ec80     libucrt:cvt.obj
 0004:00001c8c       $pdata$?fp_format_f_internal@@YAHQEAD_KHQEAU_strflt@@_NQEAU__crt_locale_pointers@@@Z 000000018003ec8c     libucrt:cvt.obj
 0004:00001c98       $pdata$?fp_format_g@@YAHQEBNQEAD_K12H_NIQEAU__crt_locale_pointers@@@Z 000000018003ec98     libucrt:cvt.obj
 0004:00001ca4       $pdata$?fp_format_nan_or_infinity@@YAHW4__acrt_fp_class@@_NPEAD_K1@Z 000000018003eca4     libucrt:cvt.obj
 0004:00001cb0       $pdata$__acrt_fp_format    000000018003ecb0     libucrt:cvt.obj
 0004:00001cbc       $pdata$_fileno             000000018003ecbc     libucrt:fileno.obj
 0004:00001cc8       $pdata$__acrt_initialize_stdio 000000018003ecc8     libucrt:_file.obj
 0004:00001cd4       $pdata$__acrt_uninitialize_stdio 000000018003ecd4     libucrt:_file.obj
 0004:00001ce0       $pdata$?initialize_inherited_file_handles_nolock@@YAXXZ 000000018003ece0     libucrt:ioinit.obj
 0004:00001cec       $pdata$?initialize_stdio_handles_nolock@@YAXXZ 000000018003ecec     libucrt:ioinit.obj
 0004:00001cf8       $pdata$__acrt_initialize_lowio 000000018003ecf8     libucrt:ioinit.obj
 0004:00001d04       $pdata$__acrt_uninitialize_lowio 000000018003ed04     libucrt:ioinit.obj
 0004:00001d10       $pdata$_isleadbyte_l       000000018003ed10     libucrt:_wctype.obj
 0004:00001d1c       $pdata$?__acrt_LCMapStringA_stat@@YAHPEAU__crt_locale_pointers@@PEB_WKPEBDHPEADHHH@Z 000000018003ed1c     libucrt:lcmapstringa.obj
 0004:00001d28       $pdata$__acrt_LCMapStringA 000000018003ed28     libucrt:lcmapstringa.obj
 0004:00001d34       $pdata$__acrt_initialize_locks 000000018003ed34     libucrt:locks.obj
 0004:00001d40       $pdata$__acrt_uninitialize_locks 000000018003ed40     libucrt:locks.obj
 0004:00001d4c       $pdata$?try_get_function@@YAPEAXW4function_id@?A0x63058377@@QEBDQEBW4module_id@2@2@Z 000000018003ed4c     libucrt:winapi_thunks.obj
 0004:00001d58       $pdata$__acrt_FlsAlloc     000000018003ed58     libucrt:winapi_thunks.obj
 0004:00001d64       $pdata$__acrt_FlsFree      000000018003ed64     libucrt:winapi_thunks.obj
 0004:00001d70       $pdata$__acrt_FlsGetValue  000000018003ed70     libucrt:winapi_thunks.obj
 0004:00001d7c       $pdata$__acrt_FlsSetValue  000000018003ed7c     libucrt:winapi_thunks.obj
 0004:00001d88       $pdata$__acrt_InitializeCriticalSectionEx 000000018003ed88     libucrt:winapi_thunks.obj
 0004:00001d94       $pdata$__acrt_LCMapStringEx 000000018003ed94     libucrt:winapi_thunks.obj
 0004:00001da0       $pdata$__acrt_LocaleNameToLCID 000000018003eda0     libucrt:winapi_thunks.obj
 0004:00001dac       $pdata$__acrt_initialize_winapi_thunks 000000018003edac     libucrt:winapi_thunks.obj
 0004:00001db8       $pdata$__acrt_is_packaged_app 000000018003edb8     libucrt:winapi_thunks.obj
 0004:00001dc4       $pdata$__acrt_uninitialize_winapi_thunks 000000018003edc4     libucrt:winapi_thunks.obj
 0004:00001dd0       $pdata$??$common_expand_argv_wildcards@D@@YAHQEAPEADQEAPEAPEAD@Z 000000018003edd0     libucrt:argv_wildcards.obj
 0004:00001ddc       $pdata$??$copy_and_add_argument_to_buffer@D@@YAHQEBD0_KAEAV?$argument_list@D@?A0xca0879c4@@@Z 000000018003eddc     libucrt:argv_wildcards.obj
 0004:00001de8       $pdata$??$expand_argument_wildcards@D@@YAHQEAD0AEAV?$argument_list@D@?A0xca0879c4@@@Z 000000018003ede8     libucrt:argv_wildcards.obj
 0004:00001df4       $pdata$?expand_if_necessary@?$argument_list@D@?A0xca0879c4@@AEAAHXZ 000000018003edf4     libucrt:argv_wildcards.obj
 0004:00001e00       $pdata$??$?RV<lambda_99476a1ad63dd22509b5d3e65b0ffc95>@@AEAV<lambda_ad1ced32f4ac17aa236e5ef05d6b3b7c>@@V<lambda_f7424dd8d45958661754dc4f2697e9c3>@@@?$__crt_seh_guarded_call@X@@QEAAX$$QEAV<lambda_99476a1ad63dd22509b5d3e65b0ffc95>@@AEAV<lambda_ad1ced32f4ac17aa236e5ef05d6b3b7c>@@$$QEAV<lambda_f7424dd8d45958661754dc4f2697e9c3>@@@Z 000000018003ee00     libucrt:mbctype.obj
 0004:00001e0c       $pdata$??R<lambda_ad1ced32f4ac17aa236e5ef05d6b3b7c>@@QEBAXXZ 000000018003ee0c     libucrt:mbctype.obj
 0004:00001e18       $pdata$?getSystemCP@@YAHH@Z 000000018003ee18     libucrt:mbctype.obj
 0004:00001e24       $pdata$?setSBCS@@YAXPEAU__crt_multibyte_data@@@Z 000000018003ee24     libucrt:mbctype.obj
 0004:00001e30       $pdata$?setSBUpLow@@YAXPEAU__crt_multibyte_data@@@Z 000000018003ee30     libucrt:mbctype.obj
 0004:00001e3c       $pdata$?setmbcp_internal@@YAHH_N@Z 000000018003ee3c     libucrt:mbctype.obj
 0004:00001e48       $pdata$__acrt_initialize_multibyte 000000018003ee48     libucrt:mbctype.obj
 0004:00001e54       $pdata$__acrt_update_thread_multibyte_data 000000018003ee54     libucrt:mbctype.obj
 0004:00001e60       $pdata$_setmbcp_nolock     000000018003ee60     libucrt:mbctype.obj
 0004:00001e6c       $pdata$?x_ismbbtype_l@@YAHPEAU__crt_locale_pointers@@IHH@Z 000000018003ee6c     libucrt:ismbbyte.obj
 0004:00001e78       $pdata$__acrt_initialize_command_line 000000018003ee78     libucrt:argv_data.obj
 0004:00001e84       $pdata$__dcrt_get_narrow_environment_from_os 000000018003ee84     libucrt:get_environment_from_os.obj
 0004:00001e90       $pdata$_recalloc_base      000000018003ee90     libucrt:recalloc.obj
 0004:00001e9c       $pdata$__acrt_initialize_heap 000000018003ee9c     libucrt:heap_handle.obj
 0004:00001ea8       $pdata$__acrt_execute_initializers 000000018003eea8     libucrt:shared_initialization.obj
 0004:00001eb4       $pdata$__acrt_execute_uninitializers 000000018003eeb4     libucrt:shared_initialization.obj
 0004:00001ec0       $pdata$??$?RV<lambda_c36588078e9f5dfd39652860aa6b3aaf>@@AEAV<lambda_ec61778202f4f5fc7e7711acc23c3bca>@@V<lambda_dc9d2797ccde5d239b4a0efae8ebd7db>@@@?$__crt_seh_guarded_call@P6AXH@Z@@QEAAP6AXH@Z$$QEAV<lambda_c36588078e9f5dfd39652860aa6b3aaf>@@AEAV<lambda_ec61778202f4f5fc7e7711acc23c3bca>@@$$QEAV<lambda_dc9d2797ccde5d239b4a0efae8ebd7db>@@@Z 000000018003eec0     libucrt:signal.obj
 0004:00001ecc       $pdata$__acrt_get_sigabrt_handler 000000018003eecc     libucrt:signal.obj
 0004:00001ed8       $pdata$raise               000000018003eed8     libucrt:signal.obj
 0004:00001ee4       $pdata$__acrt_invoke_user_matherr 000000018003eee4     libucrt:matherr.obj
 0004:00001ef0       $pdata$__acrt_LCMapStringW 000000018003eef0     libucrt:lcmapstringw.obj
 0004:00001efc       $pdata$__acrt_free_locale  000000018003eefc     libucrt:locale_refcounting.obj
 0004:00001f08       $pdata$__acrt_locale_free_lc_time_if_unreferenced 000000018003ef08     libucrt:locale_refcounting.obj
 0004:00001f14       $pdata$__acrt_release_locale_ref 000000018003ef14     libucrt:locale_refcounting.obj
 0004:00001f20       $pdata$__acrt_update_thread_locale_data 000000018003ef20     libucrt:locale_refcounting.obj
 0004:00001f2c       $pdata$_updatetlocinfoEx_nolock 000000018003ef2c     libucrt:locale_refcounting.obj
 0004:00001f38       $pdata$__acrt_locale_free_monetary 000000018003ef38     libucrt:initmon.obj
 0004:00001f44       $pdata$__acrt_locale_free_numeric 000000018003ef44     libucrt:initnum.obj
 0004:00001f50       $pdata$?free_crt_array_internal@@YAXQEAPEBX_K@Z 000000018003ef50     libucrt:inittime.obj
 0004:00001f5c       $pdata$__acrt_locale_free_time 000000018003ef5c     libucrt:inittime.obj
 0004:00001f68       $pdata$__acrt_GetStringTypeA 000000018003ef68     libucrt:getstringtypea.obj
 0004:00001f74       $pdata$__acrt_fp_strflt_to_string 000000018003ef74     libucrt:_fptostr.obj
 0004:00001f80       $pdata$?divide@__crt_strtox@@YA_KAEAUbig_integer@1@AEBU21@@Z 000000018003ef80     libucrt:cfout.obj
 0004:00001f8c       $pdata$5$?divide@__crt_strtox@@YA_KAEAUbig_integer@1@AEBU21@@Z 000000018003ef8c     libucrt:cfout.obj
 0004:00001f98       $pdata$6$?divide@__crt_strtox@@YA_KAEAUbig_integer@1@AEBU21@@Z 000000018003ef98     libucrt:cfout.obj
 0004:00001fa4       $pdata$__acrt_fltout       000000018003efa4     libucrt:cfout.obj
 0004:00001fb0       $pdata$memcpy_s            000000018003efb0     libucrt:cfout.obj
 0004:00001fbc       $pdata$_fcloseall          000000018003efbc     libucrt:closeall.obj
 0004:00001fc8       $pdata$__acrt_stdio_flush_nolock 000000018003efc8     libucrt:fflush.obj
 0004:00001fd4       $pdata$_fflush_nolock      000000018003efd4     libucrt:fflush.obj
 0004:00001fe0       $pdata$common_flush_all    000000018003efe0     libucrt:fflush.obj
 0004:00001fec       $pdata$__acrt_stdio_free_buffer_nolock 000000018003efec     libucrt:_freebuf.obj
 0004:00001ff8       $pdata$_isatty             000000018003eff8     libucrt:isatty.obj
 0004:00002004       $pdata$__acrt_lowio_create_handle_array 000000018003f004     libucrt:osfinfo.obj
 0004:00002010       $pdata$__acrt_lowio_destroy_handle_array 000000018003f010     libucrt:osfinfo.obj
 0004:0000201c       $pdata$__acrt_lowio_ensure_fh_exists 000000018003f01c     libucrt:osfinfo.obj
 0004:00002028       $pdata$_free_osfhnd        000000018003f028     libucrt:osfinfo.obj
 0004:00002034       $pdata$_get_osfhandle      000000018003f034     libucrt:osfinfo.obj
 0004:00002040       $pdata$?GetTableIndexFromLocaleName@@YAHPEB_W@Z 000000018003f040     libucrt:lcidtoname_downlevel.obj
 0004:0000204c       $pdata$__acrt_DownlevelLocaleNameToLCID 000000018003f04c     libucrt:lcidtoname_downlevel.obj
 0004:00002058       $pdata$?shortsort@@YAXPEAD0_KP6AHPEBX2@Z@Z 000000018003f058     libucrt:qsort.obj
 0004:00002064       $pdata$2$?shortsort@@YAXPEAD0_KP6AHPEBX2@Z@Z 000000018003f064     libucrt:qsort.obj
 0004:00002070       $pdata$3$?shortsort@@YAXPEAD0_KP6AHPEBX2@Z@Z 000000018003f070     libucrt:qsort.obj
 0004:0000207c       $pdata$qsort               000000018003f07c     libucrt:qsort.obj
 0004:00002088       $pdata$4$qsort             000000018003f088     libucrt:qsort.obj
 0004:00002094       $pdata$5$qsort             000000018003f094     libucrt:qsort.obj
 0004:000020a0       $pdata$strpbrk             000000018003f0a0     libucrt:strpbrk.obj
 0004:000020ac       $pdata$_mbsdec_l           000000018003f0ac     libucrt:mbsdec.obj
 0004:000020b8       $pdata$?initialize_multibyte@@YAHXZ 000000018003f0b8     libucrt:multibyte_initializer.obj
 0004:000020c4       $pdata$_msize              000000018003f0c4     libucrt:msize.obj
 0004:000020d0       $pdata$_realloc_base       000000018003f0d0     libucrt:realloc_base.obj
 0004:000020dc       $pdata$fegetenv            000000018003f0dc     libucrt:fegetenv.obj
 0004:000020e8       $pdata$fesetenv            000000018003f0e8     libucrt:fesetenv.obj
 0004:000020f4       $pdata$feholdexcept        000000018003f0f4     libucrt:feholdexcept.obj
 0004:0000210c       $pdata$?write_double_translated_ansi_nolock@@YA?AUwrite_result@?A0x9c548279@@HQEBDI@Z 000000018003f10c     libucrt:write.obj
 0004:00002118       $pdata$?write_text_ansi_nolock@@YA?AUwrite_result@?A0x9c548279@@HQEBDI@Z 000000018003f118     libucrt:write.obj
 0004:00002124       $pdata$?write_text_utf16le_nolock@@YA?AUwrite_result@?A0x9c548279@@HQEBDI@Z 000000018003f124     libucrt:write.obj
 0004:00002130       $pdata$?write_text_utf8_nolock@@YA?AUwrite_result@?A0x9c548279@@HQEBDI@Z 000000018003f130     libucrt:write.obj
 0004:0000213c       $pdata$_write              000000018003f13c     libucrt:write.obj
 0004:00002148       $pdata$_write_nolock       000000018003f148     libucrt:write.obj
 0004:00002154       $pdata$??$common_lseek_nolock@_J@@YA_JH_JH@Z 000000018003f154     libucrt:lseek.obj
 0004:00002160       $pdata$_fclose_nolock      000000018003f160     libucrt:fclose.obj
 0004:0000216c       $pdata$fclose              000000018003f16c     libucrt:fclose.obj
 0004:00002178       $pdata$??$?RV<lambda_b521505b218e5242e90febf6bfebc422>@@AEAV<lambda_6978c1fb23f02e42e1d9e99668cc68aa>@@V<lambda_314360699dd331753a4119843814e9a7>@@@?$__crt_seh_guarded_call@H@@QEAAH$$QEAV<lambda_b521505b218e5242e90febf6bfebc422>@@AEAV<lambda_6978c1fb23f02e42e1d9e99668cc68aa>@@$$QEAV<lambda_314360699dd331753a4119843814e9a7>@@@Z 000000018003f178     libucrt:commit.obj
 0004:00002184       $pdata$_commit             000000018003f184     libucrt:commit.obj
 0004:00002190       $pdata$_getfpcontrolword   000000018003f190     libucrt:_fenvutils.obj
 0004:0000219c       $pdata$_getfpstatusword    000000018003f19c     libucrt:_fenvutils.obj
 0004:000021a8       $pdata$_setfpstatusword    000000018003f1a8     libucrt:_fenvutils.obj
 0004:000021b4       $pdata$_clearfp            000000018003f1b4     libucrt:ieee.obj
 0004:000021c0       $pdata$common_control87    000000018003f1c0     libucrt:ieee.obj
 0004:000021cc       $pdata$_call_matherr       000000018003f1cc     libucrt:libm_error.obj
 0004:000021d8       $pdata$_exception_enabled  000000018003f1d8     libucrt:libm_error.obj
 0004:000021e4       $pdata$_handle_error       000000018003f1e4     libucrt:libm_error.obj
 0004:000021f0       $pdata$__acrt_initialize_fma3 000000018003f1f0     libucrt:fma3_available.obj
 0004:000021fc       $pdata$_log10_special      000000018003f1fc     libucrt:log_special.obj
 0004:00002208       $pdata$_log_special_common 000000018003f208     libucrt:log_special.obj
 0004:00002214       $pdata$_putwch_nolock      000000018003f214     libucrt:putwch.obj
 0004:00002220       $pdata$??$?RV<lambda_bfedae4ebbf01fab1bb6dcc6a9e276e0>@@AEAV<lambda_2fe9b910cf3cbf4a0ab98a02ba45b3ec>@@V<lambda_237c231691f317818eb88cc1d5d642d6>@@@?$__crt_seh_guarded_call@H@@QEAAH$$QEAV<lambda_bfedae4ebbf01fab1bb6dcc6a9e276e0>@@AEAV<lambda_2fe9b910cf3cbf4a0ab98a02ba45b3ec>@@$$QEAV<lambda_237c231691f317818eb88cc1d5d642d6>@@@Z 000000018003f220     libucrt:close.obj
 0004:0000222c       $pdata$_close              000000018003f22c     libucrt:close.obj
 0004:00002238       $pdata$_close_nolock       000000018003f238     libucrt:close.obj
 0004:00002250       $pdata$_raise_exc          000000018003f250     libucrt:fpexcept.obj
 0004:0000225c       $pdata$_raise_exc_ex       000000018003f25c     libucrt:fpexcept.obj
 0004:00002268       $pdata$_set_errno_from_matherr 000000018003f268     libucrt:fpexcept.obj
 0004:00002274       $pdata$_clrfp              000000018003f274     libucrt:fpctrl.obj
 0004:00002280       $pdata$_ctrlfp             000000018003f280     libucrt:fpctrl.obj
 0004:0000228c       $pdata$_set_statfp         000000018003f28c     libucrt:fpctrl.obj
 0004:00002298       $pdata$_statfp             000000018003f298     libucrt:fpctrl.obj
 0004:000022a4       $pdata$__dcrt_lowio_initialize_console_output 000000018003f2a4     libucrt:initcon.obj
 0004:000022b0       $pdata$__dcrt_terminate_console_output 000000018003f2b0     libucrt:initcon.obj
 0004:000022bc       $pdata$_IsNonwritableInCurrentImage 000000018003f2bc     LIBCMT:pesect.obj
 0004:000022c8       $pdata$__GSHandlerCheck    000000018003f2c8     LIBCMT:_gshandler_.obj
 0004:000022d4       $pdata$__GSHandlerCheckCommon 000000018003f2d4     LIBCMT:_gshandler_.obj
 0004:000022ec       $pdata$__raise_securityfailure 000000018003f2ec     LIBCMT:gs_report.obj
 0004:000022f8       $pdata$__report_gsfailure  000000018003f2f8     LIBCMT:gs_report.obj
 0004:00002304       $pdata$__report_rangecheckfailure 000000018003f304     LIBCMT:gs_report.obj
 0004:00002310       $pdata$__report_securityfailure 000000018003f310     LIBCMT:gs_report.obj
 0004:0000231c       $pdata$capture_current_context 000000018003f31c     LIBCMT:gs_report.obj
 0004:00002328       $pdata$capture_previous_context 000000018003f328     LIBCMT:gs_report.obj
 0004:0000234c       $pdata$strrchr             000000018003f34c     libvcruntime:strrchr.obj
 0004:00002364       $pdata$?dtor$0@?0??AddValue@RegistryKey@@AEAAPEAVRegistryValue@@PEA_W@Z@4HA 000000018003f364     registry_manager.obj
 0004:00002370       $pdata$?dtor$0@?0??AddChild@RegistryKey@@AEAAPEAV1@PEB_W_NPEA_N@Z@4HA 000000018003f370     registry_manager.obj
 0004:0000237c       $pdata$?catch$5@?0??NtSetValueKey@RegistryManager@@QEAAJPEAXPEAU_UNICODE_STRING@@KK0K@Z@4HA 000000018003f37c     registry_manager.obj
 0004:00002388       $pdata$?catch$7@?0??NtCreateKey@RegistryManager@@QEAAJPEAPEAXKPEAU_OBJECT_ATTRIBUTES@@KPEAU_UNICODE_STRING@@KPEAK@Z@4HA 000000018003f388     registry_manager.obj
 0004:00002394       $pdata$?dtor$1@?0??NtOpenKey@RegistryManager@@QEAAJPEAPEAXKPEAU_OBJECT_ATTRIBUTES@@@Z@4HA 000000018003f394     registry_manager.obj
 0004:000023a0       $pdata$?catch$10@?0??NtOpenKey@RegistryManager@@QEAAJPEAPEAXKPEAU_OBJECT_ATTRIBUTES@@@Z@4HA 000000018003f3a0     registry_manager.obj
 0004:000023ac       $pdata$?dtor$2@?0??NtOpenKey@RegistryManager@@QEAAJPEAPEAXKPEAU_OBJECT_ATTRIBUTES@@@Z@4HA 000000018003f3ac     registry_manager.obj
 0004:000023b8       $pdata$?dtor$1@?0??NtOpenKeyEx@RegistryManager@@QEAAJPEAPEAXKPEAU_OBJECT_ATTRIBUTES@@K@Z@4HA 000000018003f3b8     registry_manager.obj
 0004:000023c4       $pdata$?catch$10@?0??NtOpenKeyEx@RegistryManager@@QEAAJPEAPEAXKPEAU_OBJECT_ATTRIBUTES@@K@Z@4HA 000000018003f3c4     registry_manager.obj
 0004:000023d0       $pdata$?dtor$2@?0??NtOpenKeyEx@RegistryManager@@QEAAJPEAPEAXKPEAU_OBJECT_ATTRIBUTES@@K@Z@4HA 000000018003f3d0     registry_manager.obj
 0004:000023dc       $pdata$?catch$5@?0??NtQueryKey@RegistryManager@@QEAAJPEAXW4_KEY_INFORMATION_CLASS@@0KPEAK@Z@4HA 000000018003f3dc     registry_manager.obj
 0004:000023e8       $pdata$?catch$14@?0??NtEnumerateKey@RegistryManager@@QEAAJPEAXKW4_KEY_INFORMATION_CLASS@@0KPEAK@Z@4HA 000000018003f3e8     registry_manager.obj
 0004:000023f4       $pdata$?catch$15@?0??NtEnumerateKey@RegistryManager@@QEAAJPEAXKW4_KEY_INFORMATION_CLASS@@0KPEAK@Z@4HA 000000018003f3f4     registry_manager.obj
 0004:00002400       $pdata$?filt$0@?0??ExportedIsVirtualMachinePresent@@YA_NXZ@4HA 000000018003f400     core.obj
 0004:0000240c       $pdata$?filt$1@?0??ExportedIsVirtualMachinePresent@@YA_NXZ@4HA 000000018003f40c     core.obj
 0004:00002418       $pdata$?filt$0@?0??ExportedIsDebuggerPresent@@YA_N_N@Z@4HA 000000018003f418     core.obj
 0004:00002424       $pdata$?dtor$0@?0??Init@Core@@QEAA_NPEAUHINSTANCE__@@@Z@4HA 000000018003f424     core.obj
 0004:00002430       $pdata$?dtor$1@?0??Init@Core@@QEAA_NPEAUHINSTANCE__@@@Z@4HA 000000018003f430     core.obj
 0004:0000243c       $pdata$?dtor$6@?0??Init@Core@@QEAA_NPEAUHINSTANCE__@@@Z@4HA 000000018003f43c     core.obj
 0004:00002448       $pdata$?dtor$3@?0??Init@Core@@QEAA_NPEAUHINSTANCE__@@@Z@4HA 000000018003f448     core.obj
 0004:00002454       $pdata$?dtor$4@?0??Init@Core@@QEAA_NPEAUHINSTANCE__@@@Z@4HA 000000018003f454     core.obj
 0004:00002460       $pdata$?dtor$5@?0??Init@Core@@QEAA_NPEAUHINSTANCE__@@@Z@4HA 000000018003f460     core.obj
 0004:0000246c       $pdata$?dtor$0@?0??hardware_id@Core@@QEAAPEAVHardwareID@@XZ@4HA 000000018003f46c     core.obj
 0004:00002478       $pdata$?dtor$0@?0??modpow@BigNumber@@QEBAPEAVCryptoContainer@@AEBV2@_K111@Z@4HA 000000018003f478     crypto.obj
 0004:00002484       $pdata$?dtor$0@?0??ExportedGetCurrentHWID@@YAHPEADH@Z@4HA 000000018003f484     hwid.obj
 0004:00002490       $pdata$?dtor$0@?0???0HardwareID@@QEAA@XZ@4HA 000000018003f490     hwid.obj
 0004:0000249c       $pdata$?dtor$0@?0???0LicensingManager@@QEAA@PEAEI0@Z@4HA 000000018003f49c     licensing_manager.obj
 0004:000024a8       $pdata$?dtor$0@?0??BuildUrl@ActivationRequest@@AEAA_NAEBVCryptoContainer@@PEBD_N@Z@4HA 000000018003f4a8     licensing_manager.obj
 0004:000024b4       $pdata$?catch$64@?0???$_Construct@PEAD@?$basic_string@_WU?$char_traits@_W@std@@V?$allocator@_W@2@@std@@QEAAXPEAD0Uinput_iterator_tag@1@@Z@4HA 000000018003f4b4     licensing_manager.obj
 0004:000024c0       $pdata$?catch$107@?0??_Copy@?$basic_string@_WU?$char_traits@_W@std@@V?$allocator@_W@2@@std@@QEAAX_K0@Z@4HA 000000018003f4c0     licensing_manager.obj
 0004:000024cc       $pdata$?catch$106@?0??_Copy@?$basic_string@_WU?$char_traits@_W@std@@V?$allocator@_W@2@@std@@QEAAX_K0@Z@4HA 000000018003f4cc     licensing_manager.obj
 0004:000024d8       $pdata$?filt$0@?0??SetupImage@@YAIXZ@4HA 000000018003f4d8     loader.obj
 0004:000024e4       $pdata$?filt$1@?0??SetupImage@@YAIXZ@4HA 000000018003f4e4     loader.obj
 0004:000024f0       $pdata$?filt$2@?0??SetupImage@@YAIXZ@4HA 000000018003f4f0     loader.obj
 0004:000024fc       $pdata$?dtor$1@?0??DecryptString@StringManager@@QEAAPEBXPEBX@Z@4HA 000000018003f4fc     string_manager.obj
 0004:00002508       $pdata$?dtor$2@?0??Combine@Path@@QEAA?AVUnicodeString@@PEA_W@Z@4HA 000000018003f508     file_manager.obj
 0004:00002514       $pdata$?catch$0@?0??OpenFiles@FileManager@@QEAA_NAEAVRegistryManager@@@Z@4HA 000000018003f514     file_manager.obj
 0004:00002520       $pdata$?catch$2@?0??NtCreateFile@FileManager@@QEAAJPEAPEAXKPEAU_OBJECT_ATTRIBUTES@@PEAU_IO_STATUS_BLOCK@@PEAT_LARGE_INTEGER@@KKKKPEAXK@Z@4HA 000000018003f520     file_manager.obj
 0004:0000252c       $pdata$?catch$0@?0??NtQueryDirectoryFile@FileManager@@QEAAJPEAX0P6AX0PEAU_IO_STATUS_BLOCK@@K@Z010KW4_FILE_INFORMATION_CLASS@@EPEAU_UNICODE_STRING@@E@Z@4HA 000000018003f52c     file_manager.obj
 0004:00002538       $pdata$?catch$5@?0??NtMapViewOfSection@FileManager@@QEAAJPEAX0PEAPEAX_K2PEAT_LARGE_INTEGER@@PEA_KW4_SECTION_INHERIT@@KK@Z@4HA 000000018003f538     file_manager.obj
 0004:00002544       $pdata$?dtor$0@?0??push_back@?$vector@VUnicodeString@@@@QEAAXAEBVUnicodeString@@@Z@4HA 000000018003f544     file_manager.obj
 0004:00002550       $pdata$?fin$0@?0???_M@YAXPEAX_K1P6AX0@Z@Z@4HA 000000018003f550     LIBCMT:ehvecdtr.obj
 0004:0000255c       $pdata$?filt$0@?0??__ArrayUnwind@@YAXPEAX_K1P6AX0@Z@Z@4HA 000000018003f55c     LIBCMT:ehvecdtr.obj
 0004:00002568       $pdata$?fin$0@?0???_L@YAXPEAX_K1P6AX0@Z2@Z@4HA 000000018003f568     LIBCMT:ehvecctr.obj
 0004:00002574       $pdata$?fin$0@?0??dllmain_crt_process_attach@@YAHQEAUHINSTANCE__@@QEAX@Z@4HA 000000018003f574     LIBCMT:dll_dllmain.obj
 0004:00002580       $pdata$?fin$0@?0??dllmain_crt_process_detach@@YAH_N@Z@4HA 000000018003f580     LIBCMT:dll_dllmain.obj
 0004:0000258c       $pdata$?filt$0@?0??dllmain_dispatch@@YAHQEAUHINSTANCE__@@KQEAX@Z@4HA 000000018003f58c     LIBCMT:dll_dllmain.obj
 0004:00002598       $pdata$__scrt_is_nonwritable_in_current_image$filt$0 000000018003f598     LIBCMT:utility.obj
 0004:000025a4       $pdata$__CxxCallCatchBlock$filt$0 000000018003f5a4     libvcruntime:frame.obj
 0004:000025b0       $pdata$__CxxCallCatchBlock$fin$1 000000018003f5b0     libvcruntime:frame.obj
 0004:000025bc       $pdata$__DestructExceptionObject$filt$0 000000018003f5bc     libvcruntime:frame.obj
 0004:000025c8       $pdata$__FrameUnwindToState$filt$0 000000018003f5c8     libvcruntime:frame.obj
 0004:000025d4       $pdata$__FrameUnwindToState$fin$1 000000018003f5d4     libvcruntime:frame.obj
 0004:000025e0       $pdata$_CallSETranslator$filt$0 000000018003f5e0     libvcruntime:trnsctrl.obj
 0004:000025ec       $pdata$_query_new_handler$fin$0 000000018003f5ec     libucrt:new_handler.obj
 0004:000025f8       $pdata$?filt$0@?0??common_exit@@YAXHW4_crt_exit_cleanup_mode@@W4_crt_exit_return_mode@@@Z@4HA 000000018003f5f8     libucrt:exit.obj
 0004:00002604       $pdata$?fin$1@?0??common_exit@@YAXHW4_crt_exit_cleanup_mode@@W4_crt_exit_return_mode@@@Z@4HA 000000018003f604     libucrt:exit.obj
 0004:00002610       $pdata$?fin$0@?0???$?RV<lambda_b8c45f8f788dd370798f47cfe8ac3a86>@@AEAV<lambda_4e60a939b0d047cfe11ddc22648dfba9>@@V<lambda_332c3edc96d0294ec56c57d38c1cdfd5>@@@?$__crt_seh_guarded_call@H@@QEAAH$$QEAV<lambda_b8c45f8f788dd370798f47cfe8ac3a86>@@AEAV<lambda_4e60a939b0d047cfe11ddc22648dfba9>@@$$QEAV<lambda_332c3edc96d0294ec56c57d38c1cdfd5>@@@Z@4HA 000000018003f610     libucrt:onexit.obj
 0004:0000261c       $pdata$?fin$0@?0???$?RV<lambda_e24bbb7b643b32fcea6fa61b31d4c984>@@AEAV<lambda_275893d493268fdec8709772e3fcec0e>@@V<lambda_9d71df4d7cf3f480f8d633942495c3b0>@@@?$__crt_seh_guarded_call@H@@QEAAH$$QEAV<lambda_e24bbb7b643b32fcea6fa61b31d4c984>@@AEAV<lambda_275893d493268fdec8709772e3fcec0e>@@$$QEAV<lambda_9d71df4d7cf3f480f8d633942495c3b0>@@@Z@4HA 000000018003f61c     libucrt:onexit.obj
 0004:00002628       $pdata$?fin$0@?0???$?RV<lambda_46352004c1216016012b18bd6f87e700>@@AEAV<lambda_3bd07e1a1191394380780325891bf33f>@@V<lambda_334532d3f185bcaa59b5be82d7d22bff>@@@?$__crt_seh_guarded_call@X@@QEAAX$$QEAV<lambda_46352004c1216016012b18bd6f87e700>@@AEAV<lambda_3bd07e1a1191394380780325891bf33f>@@$$QEAV<lambda_334532d3f185bcaa59b5be82d7d22bff>@@@Z@4HA 000000018003f628     libucrt:per_thread_data.obj
 0004:00002634       $pdata$?fin$0@?0???$?RV<lambda_5e887d1dcbef67a5eb4283622ba103bf>@@AEAV<lambda_4466841279450cc726390878d4a41900>@@V<lambda_341c25c0346d94847f1f3c463c57e077>@@@?$__crt_seh_guarded_call@X@@QEAAX$$QEAV<lambda_5e887d1dcbef67a5eb4283622ba103bf>@@AEAV<lambda_4466841279450cc726390878d4a41900>@@$$QEAV<lambda_341c25c0346d94847f1f3c463c57e077>@@@Z@4HA 000000018003f634     libucrt:per_thread_data.obj
 0004:00002640       $pdata$?fin$0@?0???$?RV<lambda_72d1df2b273a38828b1ce30cbf4cdab5>@@AEAV<lambda_876a65b173b8412d3a47c70a915b0cf4>@@V<lambda_41932305e351933ebe8f8be3ed8bb5dc>@@@?$__crt_seh_guarded_call@X@@QEAAX$$QEAV<lambda_72d1df2b273a38828b1ce30cbf4cdab5>@@AEAV<lambda_876a65b173b8412d3a47c70a915b0cf4>@@$$QEAV<lambda_41932305e351933ebe8f8be3ed8bb5dc>@@@Z@4HA 000000018003f640     libucrt:per_thread_data.obj
 0004:0000264c       $pdata$?fin$0@?0???$?RV<lambda_fb3a7dec4e47f37f22dae91bb15c9095>@@AEAV<lambda_698284760c8add0bfb0756c19673e34b>@@V<lambda_dfb8eca1e75fef3034a8fb18dd509707>@@@?$__crt_seh_guarded_call@X@@QEAAX$$QEAV<lambda_fb3a7dec4e47f37f22dae91bb15c9095>@@AEAV<lambda_698284760c8add0bfb0756c19673e34b>@@$$QEAV<lambda_dfb8eca1e75fef3034a8fb18dd509707>@@@Z@4HA 000000018003f64c     libucrt:per_thread_data.obj
 0004:00002658       $pdata$__acrt_uninitialize_locale$fin$0 000000018003f658     libucrt:wsetlocale.obj
 0004:00002664       $pdata$__acrt_initialize_lowio$fin$0 000000018003f664     libucrt:ioinit.obj
 0004:00002670       $pdata$?fin$0@?0???$?RV<lambda_99476a1ad63dd22509b5d3e65b0ffc95>@@AEAV<lambda_ad1ced32f4ac17aa236e5ef05d6b3b7c>@@V<lambda_f7424dd8d45958661754dc4f2697e9c3>@@@?$__crt_seh_guarded_call@X@@QEAAX$$QEAV<lambda_99476a1ad63dd22509b5d3e65b0ffc95>@@AEAV<lambda_ad1ced32f4ac17aa236e5ef05d6b3b7c>@@$$QEAV<lambda_f7424dd8d45958661754dc4f2697e9c3>@@@Z@4HA 000000018003f670     libucrt:mbctype.obj
 0004:0000267c       $pdata$__acrt_update_thread_multibyte_data$fin$0 000000018003f67c     libucrt:mbctype.obj
 0004:00002688       $pdata$?fin$0@?0???$?RV<lambda_c36588078e9f5dfd39652860aa6b3aaf>@@AEAV<lambda_ec61778202f4f5fc7e7711acc23c3bca>@@V<lambda_dc9d2797ccde5d239b4a0efae8ebd7db>@@@?$__crt_seh_guarded_call@P6AXH@Z@@QEAAP6AXH@Z$$QEAV<lambda_c36588078e9f5dfd39652860aa6b3aaf>@@AEAV<lambda_ec61778202f4f5fc7e7711acc23c3bca>@@$$QEAV<lambda_dc9d2797ccde5d239b4a0efae8ebd7db>@@@Z@4HA 000000018003f688     libucrt:signal.obj
 0004:00002694       $pdata$raise$fin$0         000000018003f694     libucrt:signal.obj
 0004:000026a0       $pdata$__acrt_update_thread_locale_data$fin$0 000000018003f6a0     libucrt:locale_refcounting.obj
 0004:000026ac       $pdata$_fcloseall$fin$0    000000018003f6ac     libucrt:closeall.obj
 0004:000026b8       $pdata$common_flush_all$fin$0 000000018003f6b8     libucrt:fflush.obj
 0004:000026c4       $pdata$common_flush_all$fin$1 000000018003f6c4     libucrt:fflush.obj
 0004:000026d0       $pdata$__acrt_lowio_ensure_fh_exists$fin$0 000000018003f6d0     libucrt:osfinfo.obj
 0004:000026dc       $pdata$_write$fin$0        000000018003f6dc     libucrt:write.obj
 0004:000026e8       $pdata$fclose$fin$0        000000018003f6e8     libucrt:fclose.obj
 0004:000026f4       $pdata$?fin$0@?0???$?RV<lambda_b521505b218e5242e90febf6bfebc422>@@AEAV<lambda_6978c1fb23f02e42e1d9e99668cc68aa>@@V<lambda_314360699dd331753a4119843814e9a7>@@@?$__crt_seh_guarded_call@H@@QEAAH$$QEAV<lambda_b521505b218e5242e90febf6bfebc422>@@AEAV<lambda_6978c1fb23f02e42e1d9e99668cc68aa>@@$$QEAV<lambda_314360699dd331753a4119843814e9a7>@@@Z@4HA 000000018003f6f4     libucrt:commit.obj
 0004:00002700       $pdata$common_control87$filt$0 000000018003f700     libucrt:ieee.obj
 0004:0000270c       $pdata$?fin$0@?0???$?RV<lambda_bfedae4ebbf01fab1bb6dcc6a9e276e0>@@AEAV<lambda_2fe9b910cf3cbf4a0ab98a02ba45b3ec>@@V<lambda_237c231691f317818eb88cc1d5d642d6>@@@?$__crt_seh_guarded_call@H@@QEAAH$$QEAV<lambda_bfedae4ebbf01fab1bb6dcc6a9e276e0>@@AEAV<lambda_2fe9b910cf3cbf4a0ab98a02ba45b3ec>@@$$QEAV<lambda_237c231691f317818eb88cc1d5d642d6>@@@Z@4HA 000000018003f70c     libucrt:close.obj
 0004:00002718       $pdata$_ctrlfp$filt$0      000000018003f718     libucrt:fpctrl.obj
 0004:00002724       $pdata$_IsNonwritableInCurrentImage$filt$0 000000018003f724     LIBCMT:pesect.obj
 0005:00000000       __guard_fids__             0000000180040000     libucrt:initialization.obj
 0005:00000060       __guard_fids___acrt_initialize_ptd 0000000180040060     libucrt:per_thread_data.obj
 0005:00000064       __guard_fids_??$expand_argument_wildcards@D@@YAHQEAD0AEAV?$argument_list@D@?A0xca0879c4@@@Z 0000000180040064     libucrt:argv_wildcards.obj
 0005:00000068       __guard_fids__             0000000180040068     libucrt:locale_initializer.obj
 0005:0000006c       __guard_fids__             000000018004006c     libucrt:stdio_initializer.obj
 0005:00000070       __guard_fids__             0000000180040070     libucrt:stdio_initializer.obj
 0005:00000074       __guard_fids__             0000000180040074     libucrt:multibyte_initializer.obj
 0005:00000078       __guard_fids__             0000000180040078     libucrt:fma3_initializer.obj
 0005:0000007c       __guard_fids__             000000018004007c     libucrt:console_output_initializer.obj
 0005:00000080       __guard_fids__             0000000180040080     libcpmt:xthrow.obj
 0005:00000088       __guard_fids__             0000000180040088     libcpmt:xthrow.obj
 0005:00000090       __guard_fids__             0000000180040090     libcpmt:xthrow.obj
 0005:00000098       __guard_fids__             0000000180040098     libcpmt:xthrow.obj
 0005:000000a0       __guard_fids_?dllmain_crt_process_attach@@YAHQEAUHINSTANCE__@@QEAX@Z 00000001800400a0     LIBCMT:dll_dllmain.obj
 0005:000000a8       __guard_fids_?dllmain_dispatch@@YAHQEAUHINSTANCE__@@KQEAX@Z 00000001800400a8     LIBCMT:dll_dllmain.obj
 0005:000000ac       __guard_fids__             00000001800400ac     LIBCMT:std_type_info_static.obj
 0005:000000b0       __guard_fids__             00000001800400b0     LIBCMT:throw_bad_alloc.obj
 0005:000000b8       __guard_fids__             00000001800400b8     LIBCMT:guard_support.obj
 0005:000000bc       __guard_fids__             00000001800400bc     libvcruntime:frame.obj
 0005:000000c0       __guard_fids__             00000001800400c0     libvcruntime:frame.obj
 0005:000000c8       __guard_fids___vcrt_initialize_ptd 00000001800400c8     libvcruntime:per_thread_data.obj
 0005:000000cc       __guard_fids__UnwindNestedFrames 00000001800400cc     libvcruntime:trnsctrl.obj
